
main.elf:     file format elf32-avr


Disassembly of section .text:

00000000 <__vectors>:
       0:	0c 94 34 00 	jmp	0x68	; 0x68 <__ctors_end>
       4:	0c 94 51 00 	jmp	0xa2	; 0xa2 <__bad_interrupt>
       8:	0c 94 51 00 	jmp	0xa2	; 0xa2 <__bad_interrupt>
       c:	0c 94 51 00 	jmp	0xa2	; 0xa2 <__bad_interrupt>
      10:	0c 94 51 00 	jmp	0xa2	; 0xa2 <__bad_interrupt>
      14:	0c 94 51 00 	jmp	0xa2	; 0xa2 <__bad_interrupt>
      18:	0c 94 51 00 	jmp	0xa2	; 0xa2 <__bad_interrupt>
      1c:	0c 94 58 09 	jmp	0x12b0	; 0x12b0 <__vector_7>
      20:	0c 94 51 00 	jmp	0xa2	; 0xa2 <__bad_interrupt>
      24:	0c 94 46 0a 	jmp	0x148c	; 0x148c <__vector_9>
      28:	0c 94 51 00 	jmp	0xa2	; 0xa2 <__bad_interrupt>
      2c:	0c 94 51 00 	jmp	0xa2	; 0xa2 <__bad_interrupt>
      30:	0c 94 51 00 	jmp	0xa2	; 0xa2 <__bad_interrupt>
      34:	0c 94 51 00 	jmp	0xa2	; 0xa2 <__bad_interrupt>
      38:	0c 94 51 00 	jmp	0xa2	; 0xa2 <__bad_interrupt>
      3c:	0c 94 51 00 	jmp	0xa2	; 0xa2 <__bad_interrupt>
      40:	0c 94 51 00 	jmp	0xa2	; 0xa2 <__bad_interrupt>
      44:	0c 94 51 00 	jmp	0xa2	; 0xa2 <__bad_interrupt>
      48:	0c 94 51 00 	jmp	0xa2	; 0xa2 <__bad_interrupt>
      4c:	0c 94 51 00 	jmp	0xa2	; 0xa2 <__bad_interrupt>
      50:	0c 94 51 00 	jmp	0xa2	; 0xa2 <__bad_interrupt>
      54:	0c 94 51 00 	jmp	0xa2	; 0xa2 <__bad_interrupt>
      58:	0c 94 51 00 	jmp	0xa2	; 0xa2 <__bad_interrupt>
      5c:	0c 94 51 00 	jmp	0xa2	; 0xa2 <__bad_interrupt>
      60:	0c 94 51 00 	jmp	0xa2	; 0xa2 <__bad_interrupt>
      64:	0c 94 51 00 	jmp	0xa2	; 0xa2 <__bad_interrupt>

00000068 <__ctors_end>:
      68:	11 24       	eor	r1, r1
      6a:	1f be       	out	0x3f, r1	; 63
      6c:	cf ef       	ldi	r28, 0xFF	; 255
      6e:	d8 e0       	ldi	r29, 0x08	; 8
      70:	de bf       	out	0x3e, r29	; 62
      72:	cd bf       	out	0x3d, r28	; 61

00000074 <__do_copy_data>:
      74:	11 e0       	ldi	r17, 0x01	; 1
      76:	a0 e0       	ldi	r26, 0x00	; 0
      78:	b1 e0       	ldi	r27, 0x01	; 1
      7a:	e6 e1       	ldi	r30, 0x16	; 22
      7c:	ff e1       	ldi	r31, 0x1F	; 31
      7e:	02 c0       	rjmp	.+4      	; 0x84 <.do_copy_data_start>

00000080 <.do_copy_data_loop>:
      80:	05 90       	lpm	r0, Z+
      82:	0d 92       	st	X+, r0

00000084 <.do_copy_data_start>:
      84:	a4 32       	cpi	r26, 0x24	; 36
      86:	b1 07       	cpc	r27, r17
      88:	d9 f7       	brne	.-10     	; 0x80 <.do_copy_data_loop>

0000008a <__do_clear_bss>:
      8a:	16 e0       	ldi	r17, 0x06	; 6
      8c:	a4 e2       	ldi	r26, 0x24	; 36
      8e:	b1 e0       	ldi	r27, 0x01	; 1
      90:	01 c0       	rjmp	.+2      	; 0x94 <.do_clear_bss_start>

00000092 <.do_clear_bss_loop>:
      92:	1d 92       	st	X+, r1

00000094 <.do_clear_bss_start>:
      94:	a4 3e       	cpi	r26, 0xE4	; 228
      96:	b1 07       	cpc	r27, r17
      98:	e1 f7       	brne	.-8      	; 0x92 <.do_clear_bss_loop>
      9a:	0e 94 53 00 	call	0xa6	; 0xa6 <main>
      9e:	0c 94 89 0f 	jmp	0x1f12	; 0x1f12 <_exit>

000000a2 <__bad_interrupt>:
      a2:	0c 94 00 00 	jmp	0	; 0x0 <__vectors>

000000a6 <main>:
      a6:	81 e0       	ldi	r24, 0x01	; 1
      a8:	0e 94 a9 0e 	call	0x1d52	; 0x1d52 <Kernel_Clock_Prescale>
      ac:	0e 94 be 0c 	call	0x197c	; 0x197c <Kernel_Init>
      b0:	83 ef       	ldi	r24, 0xF3	; 243
      b2:	90 e0       	ldi	r25, 0x00	; 0
      b4:	60 e0       	ldi	r22, 0x00	; 0
      b6:	0e 94 7c 0b 	call	0x16f8	; 0x16f8 <Kernel_Task_Create>
      ba:	88 ee       	ldi	r24, 0xE8	; 232
      bc:	90 e0       	ldi	r25, 0x00	; 0
      be:	61 e0       	ldi	r22, 0x01	; 1
      c0:	0e 94 7c 0b 	call	0x16f8	; 0x16f8 <Kernel_Task_Create>
      c4:	8f e7       	ldi	r24, 0x7F	; 127
      c6:	90 e0       	ldi	r25, 0x00	; 0
      c8:	62 e0       	ldi	r22, 0x02	; 2
      ca:	0e 94 7c 0b 	call	0x16f8	; 0x16f8 <Kernel_Task_Create>
      ce:	84 e7       	ldi	r24, 0x74	; 116
      d0:	90 e0       	ldi	r25, 0x00	; 0
      d2:	63 e0       	ldi	r22, 0x03	; 3
      d4:	0e 94 7c 0b 	call	0x16f8	; 0x16f8 <Kernel_Task_Create>
      d8:	83 e7       	ldi	r24, 0x73	; 115
      da:	90 e0       	ldi	r25, 0x00	; 0
      dc:	0e 94 a6 0e 	call	0x1d4c	; 0x1d4c <Kernel_PreSleep_Hook>
      e0:	0e 94 f4 0b 	call	0x17e8	; 0x17e8 <Kernel_Start_Tasks>
      e4:	ff cf       	rjmp	.-2      	; 0xe4 <SRUDR0+0x1e>

000000e6 <Task_Disable_Peripherals>:
      e6:	08 95       	ret

000000e8 <Task_Sensor>:
      e8:	0e 94 f9 06 	call	0xdf2	; 0xdf2 <Sensors_Init>
      ec:	82 e0       	ldi	r24, 0x02	; 2
      ee:	90 e0       	ldi	r25, 0x00	; 0
      f0:	0e 94 04 0d 	call	0x1a08	; 0x1a08 <Kernel_Task_Sleep>
      f4:	0e 94 7b 08 	call	0x10f6	; 0x10f6 <Sensors_Sample_Temp_RH>
      f8:	8c e2       	ldi	r24, 0x2C	; 44
      fa:	91 e0       	ldi	r25, 0x01	; 1
      fc:	f9 cf       	rjmp	.-14     	; 0xf0 <Task_Sensor+0x8>

000000fe <Task_Radio>:
      fe:	0e 94 5a 04 	call	0x8b4	; 0x8b4 <nRF24L01P_Init>
     102:	82 e0       	ldi	r24, 0x02	; 2
     104:	90 e0       	ldi	r25, 0x00	; 0
     106:	0e 94 04 0d 	call	0x1a08	; 0x1a08 <Kernel_Task_Sleep>
     10a:	f0 e1       	ldi	r31, 0x10	; 16
     10c:	ff 2e       	mov	r15, r31
     10e:	cd e8       	ldi	r28, 0x8D	; 141
     110:	d6 e0       	ldi	r29, 0x06	; 6
     112:	8e 01       	movw	r16, r28
     114:	0a 5f       	subi	r16, 0xFA	; 250
     116:	1f 4f       	sbci	r17, 0xFF	; 255
     118:	f0 92 95 06 	sts	0x0695, r15
     11c:	0e 94 de 0e 	call	0x1dbc	; 0x1dbc <Kernel_Tick_Val_Get>
     120:	60 93 b5 06 	sts	0x06B5, r22
     124:	70 93 b6 06 	sts	0x06B6, r23
     128:	80 93 b7 06 	sts	0x06B7, r24
     12c:	90 93 b8 06 	sts	0x06B8, r25
     130:	29 2f       	mov	r18, r25
     132:	33 27       	eor	r19, r19
     134:	44 27       	eor	r20, r20
     136:	55 27       	eor	r21, r21
     138:	20 93 96 06 	sts	0x0696, r18
     13c:	9c 01       	movw	r18, r24
     13e:	44 27       	eor	r20, r20
     140:	55 27       	eor	r21, r21
     142:	20 93 97 06 	sts	0x0697, r18
     146:	27 2f       	mov	r18, r23
     148:	38 2f       	mov	r19, r24
     14a:	49 2f       	mov	r20, r25
     14c:	55 27       	eor	r21, r21
     14e:	20 93 98 06 	sts	0x0698, r18
     152:	60 93 99 06 	sts	0x0699, r22
     156:	0e 94 ad 06 	call	0xd5a	; 0xd5a <Peripherals_Vin_Get>
     15a:	80 93 8d 06 	sts	0x068D, r24
     15e:	99 83       	std	Y+1, r25	; 0x01
     160:	90 93 9a 06 	sts	0x069A, r25
     164:	80 93 9b 06 	sts	0x069B, r24
     168:	0e 94 b2 06 	call	0xd64	; 0xd64 <Peripherals_Analog_Temp_Get>
     16c:	90 93 90 06 	sts	0x0690, r25
     170:	80 93 8f 06 	sts	0x068F, r24
     174:	29 2f       	mov	r18, r25
     176:	33 27       	eor	r19, r19
     178:	27 fd       	sbrc	r18, 7
     17a:	3a 95       	dec	r19
     17c:	20 93 9c 06 	sts	0x069C, r18
     180:	80 93 9d 06 	sts	0x069D, r24
     184:	0e 94 b8 06 	call	0xd70	; 0xd70 <Peripherals_Digital_Temp_Get>
     188:	90 93 92 06 	sts	0x0692, r25
     18c:	80 93 91 06 	sts	0x0691, r24
     190:	29 2f       	mov	r18, r25
     192:	33 27       	eor	r19, r19
     194:	27 fd       	sbrc	r18, 7
     196:	3a 95       	dec	r19
     198:	20 93 9e 06 	sts	0x069E, r18
     19c:	80 93 9f 06 	sts	0x069F, r24
     1a0:	0e 94 b5 06 	call	0xd6a	; 0xd6a <Peripherals_Digital_RH_Get>
     1a4:	80 93 93 06 	sts	0x0693, r24
     1a8:	f8 01       	movw	r30, r16
     1aa:	91 83       	std	Z+1, r25	; 0x01
     1ac:	80 93 a0 06 	sts	0x06A0, r24
     1b0:	0e 94 4e 04 	call	0x89c	; 0x89c <nRF24L01P_WakeUp>
     1b4:	85 e9       	ldi	r24, 0x95	; 149
     1b6:	96 e0       	ldi	r25, 0x06	; 6
     1b8:	6c e0       	ldi	r22, 0x0C	; 12
     1ba:	0e 94 34 05 	call	0xa68	; 0xa68 <nRF24L01P_Transmit_Basic>
     1be:	0e 94 42 04 	call	0x884	; 0x884 <nRF24L01P_Deep_Sleep>
     1c2:	0e 94 eb 05 	call	0xbd6	; 0xbd6 <nRF24L01P_Error_Handler>
     1c6:	8c e2       	ldi	r24, 0x2C	; 44
     1c8:	91 e0       	ldi	r25, 0x01	; 1
     1ca:	0e 94 04 0d 	call	0x1a08	; 0x1a08 <Kernel_Task_Sleep>
     1ce:	a4 cf       	rjmp	.-184    	; 0x118 <Task_Radio+0x1a>

000001d0 <Task_Vin_Sense>:
     1d0:	52 9a       	sbi	0x0a, 2	; 10
     1d2:	5a 98       	cbi	0x0b, 2	; 11
     1d4:	82 e0       	ldi	r24, 0x02	; 2
     1d6:	90 e0       	ldi	r25, 0x00	; 0
     1d8:	0e 94 04 0d 	call	0x1a08	; 0x1a08 <Kernel_Task_Sleep>
     1dc:	0e 94 7a 06 	call	0xcf4	; 0xcf4 <Peripherals_Vin_Sense_Sample>
     1e0:	8c e3       	ldi	r24, 0x3C	; 60
     1e2:	90 e0       	ldi	r25, 0x00	; 0
     1e4:	f9 cf       	rjmp	.-14     	; 0x1d8 <Task_Vin_Sense+0x8>

000001e6 <Task_RGB_LED>:
     1e6:	0e 94 bb 06 	call	0xd76	; 0xd76 <RGB_Init>
     1ea:	82 e0       	ldi	r24, 0x02	; 2
     1ec:	90 e0       	ldi	r25, 0x00	; 0
     1ee:	0e 94 04 0d 	call	0x1a08	; 0x1a08 <Kernel_Task_Sleep>
     1f2:	15 e8       	ldi	r17, 0x85	; 133
     1f4:	0e 94 ad 06 	call	0xd5a	; 0xd5a <Peripherals_Vin_Get>
     1f8:	81 5f       	subi	r24, 0xF1	; 241
     1fa:	9a 40       	sbci	r25, 0x0A	; 10
     1fc:	18 f0       	brcs	.+6      	; 0x204 <Task_RGB_LED+0x1e>
     1fe:	80 e0       	ldi	r24, 0x00	; 0
     200:	61 e0       	ldi	r22, 0x01	; 1
     202:	02 c0       	rjmp	.+4      	; 0x208 <Task_RGB_LED+0x22>
     204:	81 e0       	ldi	r24, 0x01	; 1
     206:	60 e0       	ldi	r22, 0x00	; 0
     208:	40 e0       	ldi	r20, 0x00	; 0
     20a:	0e 94 c2 06 	call	0xd84	; 0xd84 <RGB_Set_State>
     20e:	81 2f       	mov	r24, r17
     210:	8a 95       	dec	r24
     212:	f1 f7       	brne	.-4      	; 0x210 <Task_RGB_LED+0x2a>
     214:	80 e0       	ldi	r24, 0x00	; 0
     216:	60 e0       	ldi	r22, 0x00	; 0
     218:	40 e0       	ldi	r20, 0x00	; 0
     21a:	0e 94 c2 06 	call	0xd84	; 0xd84 <RGB_Set_State>
     21e:	8e e1       	ldi	r24, 0x1E	; 30
     220:	90 e0       	ldi	r25, 0x00	; 0
     222:	0e 94 04 0d 	call	0x1a08	; 0x1a08 <Kernel_Task_Sleep>
     226:	e6 cf       	rjmp	.-52     	; 0x1f4 <Task_RGB_LED+0xe>

00000228 <nRF24L01P_Struct_Init>:
     228:	89 eb       	ldi	r24, 0xB9	; 185
     22a:	96 e0       	ldi	r25, 0x06	; 6
     22c:	90 93 cd 06 	sts	0x06CD, r25
     230:	80 93 cc 06 	sts	0x06CC, r24
     234:	84 e0       	ldi	r24, 0x04	; 4
     236:	80 93 b9 06 	sts	0x06B9, r24
     23a:	10 92 ba 06 	sts	0x06BA, r1
     23e:	10 92 bb 06 	sts	0x06BB, r1
     242:	10 92 bc 06 	sts	0x06BC, r1
     246:	21 e0       	ldi	r18, 0x01	; 1
     248:	20 93 bd 06 	sts	0x06BD, r18
     24c:	8a e0       	ldi	r24, 0x0A	; 10
     24e:	90 e0       	ldi	r25, 0x00	; 0
     250:	90 93 bf 06 	sts	0x06BF, r25
     254:	80 93 be 06 	sts	0x06BE, r24
     258:	10 92 c1 06 	sts	0x06C1, r1
     25c:	10 92 c0 06 	sts	0x06C0, r1
     260:	10 92 c2 06 	sts	0x06C2, r1
     264:	10 92 c4 06 	sts	0x06C4, r1
     268:	10 92 c3 06 	sts	0x06C3, r1
     26c:	10 92 c6 06 	sts	0x06C6, r1
     270:	10 92 c5 06 	sts	0x06C5, r1
     274:	10 92 c7 06 	sts	0x06C7, r1
     278:	20 93 c8 06 	sts	0x06C8, r18
     27c:	10 92 ca 06 	sts	0x06CA, r1
     280:	10 92 c9 06 	sts	0x06C9, r1
     284:	10 92 cb 06 	sts	0x06CB, r1
     288:	08 95       	ret

0000028a <nRF24L01P_CSN_High>:
     28a:	2a 9a       	sbi	0x05, 2	; 5
     28c:	08 95       	ret

0000028e <nRF24L01P_CSN_Low>:
     28e:	2a 98       	cbi	0x05, 2	; 5
     290:	08 95       	ret

00000292 <nRF24L01P_CE_High>:
     292:	29 9a       	sbi	0x05, 1	; 5
     294:	08 95       	ret

00000296 <nRF24L01P_CE_Low>:
     296:	29 98       	cbi	0x05, 1	; 5
     298:	08 95       	ret

0000029a <nRF24L01P_Enable_GPIO>:
     29a:	84 b1       	in	r24, 0x04	; 4
     29c:	8c 62       	ori	r24, 0x2C	; 44
     29e:	84 b9       	out	0x04, r24	; 4
     2a0:	24 98       	cbi	0x04, 4	; 4
     2a2:	22 9a       	sbi	0x04, 2	; 4
     2a4:	21 9a       	sbi	0x04, 1	; 4
     2a6:	2a 9a       	sbi	0x05, 2	; 5
     2a8:	29 98       	cbi	0x05, 1	; 5
     2aa:	08 95       	ret

000002ac <nRF24L01P_Disable_GPIO>:
     2ac:	24 9a       	sbi	0x04, 4	; 4
     2ae:	85 b1       	in	r24, 0x05	; 5
     2b0:	83 7c       	andi	r24, 0xC3	; 195
     2b2:	85 b9       	out	0x05, r24	; 5
     2b4:	2a 9a       	sbi	0x05, 2	; 5
     2b6:	29 98       	cbi	0x05, 1	; 5
     2b8:	08 95       	ret

000002ba <nRF24L01P_Enable_SPI>:
     2ba:	80 e5       	ldi	r24, 0x50	; 80
     2bc:	8c bd       	out	0x2c, r24	; 44
     2be:	81 e0       	ldi	r24, 0x01	; 1
     2c0:	8d bd       	out	0x2d, r24	; 45
     2c2:	08 95       	ret

000002c4 <nRF24L01P_Disable_SPI>:
     2c4:	1c bc       	out	0x2c, r1	; 44
     2c6:	1d bc       	out	0x2d, r1	; 45
     2c8:	08 95       	ret

000002ca <nRF24L01P_Enable>:
     2ca:	0e 94 4d 01 	call	0x29a	; 0x29a <nRF24L01P_Enable_GPIO>
     2ce:	80 e5       	ldi	r24, 0x50	; 80
     2d0:	8c bd       	out	0x2c, r24	; 44
     2d2:	81 e0       	ldi	r24, 0x01	; 1
     2d4:	8d bd       	out	0x2d, r24	; 45
     2d6:	08 95       	ret

000002d8 <nRF24L01P_Disable>:
     2d8:	1c bc       	out	0x2c, r1	; 44
     2da:	1d bc       	out	0x2d, r1	; 45
     2dc:	0e 94 56 01 	call	0x2ac	; 0x2ac <nRF24L01P_Disable_GPIO>
     2e0:	08 95       	ret

000002e2 <nRF24L01P_Error_Clear>:
     2e2:	e0 91 cc 06 	lds	r30, 0x06CC
     2e6:	f0 91 cd 06 	lds	r31, 0x06CD
     2ea:	11 8a       	std	Z+17, r1	; 0x11
     2ec:	10 8a       	std	Z+16, r1	; 0x10
     2ee:	12 8a       	std	Z+18, r1	; 0x12
     2f0:	08 95       	ret

000002f2 <nRF24L01P_Get_Error>:
     2f2:	e0 91 cc 06 	lds	r30, 0x06CC
     2f6:	f0 91 cd 06 	lds	r31, 0x06CD
     2fa:	82 89       	ldd	r24, Z+18	; 0x12
     2fc:	08 95       	ret

000002fe <nRF24L01P_No_Error>:
     2fe:	90 e0       	ldi	r25, 0x00	; 0
     300:	e0 91 cc 06 	lds	r30, 0x06CC
     304:	f0 91 cd 06 	lds	r31, 0x06CD
     308:	82 89       	ldd	r24, Z+18	; 0x12
     30a:	88 23       	and	r24, r24
     30c:	09 f4       	brne	.+2      	; 0x310 <nRF24L01P_No_Error+0x12>
     30e:	91 e0       	ldi	r25, 0x01	; 1
     310:	89 2f       	mov	r24, r25
     312:	08 95       	ret

00000314 <nRF24L01P_Error_Timeout>:
     314:	81 e0       	ldi	r24, 0x01	; 1
     316:	8a 95       	dec	r24
     318:	f1 f7       	brne	.-4      	; 0x316 <nRF24L01P_Error_Timeout+0x2>
     31a:	e0 91 cc 06 	lds	r30, 0x06CC
     31e:	f0 91 cd 06 	lds	r31, 0x06CD
     322:	80 89       	ldd	r24, Z+16	; 0x10
     324:	91 89       	ldd	r25, Z+17	; 0x11
     326:	01 96       	adiw	r24, 0x01	; 1
     328:	91 8b       	std	Z+17, r25	; 0x11
     32a:	80 8b       	std	Z+16, r24	; 0x10
     32c:	89 5e       	subi	r24, 0xE9	; 233
     32e:	93 40       	sbci	r25, 0x03	; 3
     330:	20 f0       	brcs	.+8      	; 0x33a <nRF24L01P_Error_Timeout+0x26>
     332:	11 8a       	std	Z+17, r1	; 0x11
     334:	10 8a       	std	Z+16, r1	; 0x10
     336:	80 e1       	ldi	r24, 0x10	; 16
     338:	82 8b       	std	Z+18, r24	; 0x12
     33a:	82 89       	ldd	r24, Z+18	; 0x12
     33c:	08 95       	ret

0000033e <nRF24L01P_SPI_Transfer>:
     33e:	98 2f       	mov	r25, r24
     340:	e0 91 cc 06 	lds	r30, 0x06CC
     344:	f0 91 cd 06 	lds	r31, 0x06CD
     348:	82 89       	ldd	r24, Z+18	; 0x12
     34a:	88 23       	and	r24, r24
     34c:	a9 f4       	brne	.+42     	; 0x378 <nRF24L01P_SPI_Transfer+0x3a>
     34e:	9e bd       	out	0x2e, r25	; 46
     350:	11 8a       	std	Z+17, r1	; 0x11
     352:	10 8a       	std	Z+16, r1	; 0x10
     354:	12 8a       	std	Z+18, r1	; 0x12
     356:	04 c0       	rjmp	.+8      	; 0x360 <nRF24L01P_SPI_Transfer+0x22>
     358:	0e 94 8a 01 	call	0x314	; 0x314 <nRF24L01P_Error_Timeout>
     35c:	88 23       	and	r24, r24
     35e:	19 f4       	brne	.+6      	; 0x366 <nRF24L01P_SPI_Transfer+0x28>
     360:	0d b4       	in	r0, 0x2d	; 45
     362:	07 fe       	sbrs	r0, 7
     364:	f9 cf       	rjmp	.-14     	; 0x358 <nRF24L01P_SPI_Transfer+0x1a>
     366:	e0 91 cc 06 	lds	r30, 0x06CC
     36a:	f0 91 cd 06 	lds	r31, 0x06CD
     36e:	82 89       	ldd	r24, Z+18	; 0x12
     370:	88 23       	and	r24, r24
     372:	11 f4       	brne	.+4      	; 0x378 <nRF24L01P_SPI_Transfer+0x3a>
     374:	8e b5       	in	r24, 0x2e	; 46
     376:	08 95       	ret
     378:	80 e0       	ldi	r24, 0x00	; 0
     37a:	08 95       	ret

0000037c <nRF24L01P_Calcuate_CRC>:
     37c:	36 2f       	mov	r19, r22
     37e:	20 e0       	ldi	r18, 0x00	; 0
     380:	28 27       	eor	r18, r24
     382:	39 27       	eor	r19, r25
     384:	40 e0       	ldi	r20, 0x00	; 0
     386:	61 e2       	ldi	r22, 0x21	; 33
     388:	70 e1       	ldi	r23, 0x10	; 16
     38a:	c9 01       	movw	r24, r18
     38c:	88 0f       	add	r24, r24
     38e:	99 1f       	adc	r25, r25
     390:	37 ff       	sbrs	r19, 7
     392:	04 c0       	rjmp	.+8      	; 0x39c <nRF24L01P_Calcuate_CRC+0x20>
     394:	9c 01       	movw	r18, r24
     396:	26 27       	eor	r18, r22
     398:	37 27       	eor	r19, r23
     39a:	01 c0       	rjmp	.+2      	; 0x39e <nRF24L01P_Calcuate_CRC+0x22>
     39c:	9c 01       	movw	r18, r24
     39e:	4f 5f       	subi	r20, 0xFF	; 255
     3a0:	48 30       	cpi	r20, 0x08	; 8
     3a2:	99 f7       	brne	.-26     	; 0x38a <nRF24L01P_Calcuate_CRC+0xe>
     3a4:	c9 01       	movw	r24, r18
     3a6:	08 95       	ret

000003a8 <nRF24L01P_Calcuate_CRC_Block>:
     3a8:	0f 93       	push	r16
     3aa:	1f 93       	push	r17
     3ac:	cf 93       	push	r28
     3ae:	df 93       	push	r29
     3b0:	06 2f       	mov	r16, r22
     3b2:	ec 01       	movw	r28, r24
     3b4:	20 e0       	ldi	r18, 0x00	; 0
     3b6:	30 e0       	ldi	r19, 0x00	; 0
     3b8:	10 e0       	ldi	r17, 0x00	; 0
     3ba:	06 c0       	rjmp	.+12     	; 0x3c8 <nRF24L01P_Calcuate_CRC_Block+0x20>
     3bc:	c9 01       	movw	r24, r18
     3be:	69 91       	ld	r22, Y+
     3c0:	0e 94 be 01 	call	0x37c	; 0x37c <nRF24L01P_Calcuate_CRC>
     3c4:	9c 01       	movw	r18, r24
     3c6:	1f 5f       	subi	r17, 0xFF	; 255
     3c8:	10 17       	cp	r17, r16
     3ca:	c0 f3       	brcs	.-16     	; 0x3bc <nRF24L01P_Calcuate_CRC_Block+0x14>
     3cc:	c9 01       	movw	r24, r18
     3ce:	df 91       	pop	r29
     3d0:	cf 91       	pop	r28
     3d2:	1f 91       	pop	r17
     3d4:	0f 91       	pop	r16
     3d6:	08 95       	ret

000003d8 <nRF24L01P_ReadWrite_Register>:
     3d8:	ff 92       	push	r15
     3da:	0f 93       	push	r16
     3dc:	1f 93       	push	r17
     3de:	cf 93       	push	r28
     3e0:	df 93       	push	r29
     3e2:	98 2f       	mov	r25, r24
     3e4:	14 2f       	mov	r17, r20
     3e6:	05 2f       	mov	r16, r21
     3e8:	f2 2e       	mov	r15, r18
     3ea:	e0 91 cc 06 	lds	r30, 0x06CC
     3ee:	f0 91 cd 06 	lds	r31, 0x06CD
     3f2:	82 89       	ldd	r24, Z+18	; 0x12
     3f4:	88 23       	and	r24, r24
     3f6:	29 f5       	brne	.+74     	; 0x442 <KER_TR+0x5a>
     3f8:	2a 98       	cbi	0x05, 2	; 5
     3fa:	66 23       	and	r22, r22
     3fc:	89 f4       	brne	.+34     	; 0x420 <KER_TR+0x38>
     3fe:	89 2f       	mov	r24, r25
     400:	80 62       	ori	r24, 0x20	; 32
     402:	0e 94 9f 01 	call	0x33e	; 0x33e <nRF24L01P_SPI_Transfer>
     406:	81 2f       	mov	r24, r17
     408:	90 2f       	mov	r25, r16
     40a:	9c 01       	movw	r18, r24
     40c:	e9 01       	movw	r28, r18
     40e:	10 e0       	ldi	r17, 0x00	; 0
     410:	04 c0       	rjmp	.+8      	; 0x41a <KER_TR+0x32>
     412:	89 91       	ld	r24, Y+
     414:	0e 94 9f 01 	call	0x33e	; 0x33e <nRF24L01P_SPI_Transfer>
     418:	1f 5f       	subi	r17, 0xFF	; 255
     41a:	1f 15       	cp	r17, r15
     41c:	d0 f3       	brcs	.-12     	; 0x412 <KER_TR+0x2a>
     41e:	10 c0       	rjmp	.+32     	; 0x440 <KER_TR+0x58>
     420:	89 2f       	mov	r24, r25
     422:	0e 94 9f 01 	call	0x33e	; 0x33e <nRF24L01P_SPI_Transfer>
     426:	81 2f       	mov	r24, r17
     428:	90 2f       	mov	r25, r16
     42a:	9c 01       	movw	r18, r24
     42c:	e9 01       	movw	r28, r18
     42e:	10 e0       	ldi	r17, 0x00	; 0
     430:	05 c0       	rjmp	.+10     	; 0x43c <KER_TR+0x54>
     432:	8f ef       	ldi	r24, 0xFF	; 255
     434:	0e 94 9f 01 	call	0x33e	; 0x33e <nRF24L01P_SPI_Transfer>
     438:	89 93       	st	Y+, r24
     43a:	1f 5f       	subi	r17, 0xFF	; 255
     43c:	1f 15       	cp	r17, r15
     43e:	c8 f3       	brcs	.-14     	; 0x432 <KER_TR+0x4a>
     440:	2a 9a       	sbi	0x05, 2	; 5
     442:	df 91       	pop	r29
     444:	cf 91       	pop	r28
     446:	1f 91       	pop	r17
     448:	0f 91       	pop	r16
     44a:	ff 90       	pop	r15
     44c:	08 95       	ret

0000044e <nRF24L01P_Flush_Transmit_Buffer>:
     44e:	e0 91 cc 06 	lds	r30, 0x06CC
     452:	f0 91 cd 06 	lds	r31, 0x06CD
     456:	82 89       	ldd	r24, Z+18	; 0x12
     458:	88 23       	and	r24, r24
     45a:	39 f4       	brne	.+14     	; 0x46a <nRF24L01P_Flush_Transmit_Buffer+0x1c>
     45c:	31 96       	adiw	r30, 0x01	; 1
     45e:	81 ee       	ldi	r24, 0xE1	; 225
     460:	60 e0       	ldi	r22, 0x00	; 0
     462:	af 01       	movw	r20, r30
     464:	20 e0       	ldi	r18, 0x00	; 0
     466:	0e 94 ec 01 	call	0x3d8	; 0x3d8 <nRF24L01P_ReadWrite_Register>
     46a:	08 95       	ret

0000046c <nRF24L01P_Write_Data_To_Transmit_Buffer>:
     46c:	ac 01       	movw	r20, r24
     46e:	e0 91 cc 06 	lds	r30, 0x06CC
     472:	f0 91 cd 06 	lds	r31, 0x06CD
     476:	82 89       	ldd	r24, Z+18	; 0x12
     478:	88 23       	and	r24, r24
     47a:	29 f4       	brne	.+10     	; 0x486 <nRF24L01P_Write_Data_To_Transmit_Buffer+0x1a>
     47c:	80 ea       	ldi	r24, 0xA0	; 160
     47e:	60 e0       	ldi	r22, 0x00	; 0
     480:	20 e2       	ldi	r18, 0x20	; 32
     482:	0e 94 ec 01 	call	0x3d8	; 0x3d8 <nRF24L01P_ReadWrite_Register>
     486:	08 95       	ret

00000488 <nRF24L01P_Transmit_Buffer_Empty>:
     488:	e0 91 cc 06 	lds	r30, 0x06CC
     48c:	f0 91 cd 06 	lds	r31, 0x06CD
     490:	82 89       	ldd	r24, Z+18	; 0x12
     492:	88 23       	and	r24, r24
     494:	11 f0       	breq	.+4      	; 0x49a <nRF24L01P_Transmit_Buffer_Empty+0x12>
     496:	80 e0       	ldi	r24, 0x00	; 0
     498:	08 95       	ret
     49a:	11 82       	std	Z+1, r1	; 0x01
     49c:	31 96       	adiw	r30, 0x01	; 1
     49e:	87 e1       	ldi	r24, 0x17	; 23
     4a0:	61 e0       	ldi	r22, 0x01	; 1
     4a2:	af 01       	movw	r20, r30
     4a4:	21 e0       	ldi	r18, 0x01	; 1
     4a6:	0e 94 ec 01 	call	0x3d8	; 0x3d8 <nRF24L01P_ReadWrite_Register>
     4aa:	e0 91 cc 06 	lds	r30, 0x06CC
     4ae:	f0 91 cd 06 	lds	r31, 0x06CD
     4b2:	81 81       	ldd	r24, Z+1	; 0x01
     4b4:	90 e0       	ldi	r25, 0x00	; 0
     4b6:	64 e0       	ldi	r22, 0x04	; 4
     4b8:	96 95       	lsr	r25
     4ba:	87 95       	ror	r24
     4bc:	6a 95       	dec	r22
     4be:	e1 f7       	brne	.-8      	; 0x4b8 <nRF24L01P_Transmit_Buffer_Empty+0x30>
     4c0:	81 70       	andi	r24, 0x01	; 1
     4c2:	08 95       	ret

000004c4 <nRF24L01P_Wait_Till_Transmission_Completes>:
     4c4:	1f 93       	push	r17
     4c6:	e0 91 cc 06 	lds	r30, 0x06CC
     4ca:	f0 91 cd 06 	lds	r31, 0x06CD
     4ce:	82 89       	ldd	r24, Z+18	; 0x12
     4d0:	88 23       	and	r24, r24
     4d2:	29 f0       	breq	.+10     	; 0x4de <nRF24L01P_Wait_Till_Transmission_Completes+0x1a>
     4d4:	09 c0       	rjmp	.+18     	; 0x4e8 <nRF24L01P_Wait_Till_Transmission_Completes+0x24>
     4d6:	81 2f       	mov	r24, r17
     4d8:	8a 95       	dec	r24
     4da:	f1 f7       	brne	.-4      	; 0x4d8 <nRF24L01P_Wait_Till_Transmission_Completes+0x14>
     4dc:	01 c0       	rjmp	.+2      	; 0x4e0 <nRF24L01P_Wait_Till_Transmission_Completes+0x1c>
     4de:	15 e8       	ldi	r17, 0x85	; 133
     4e0:	0e 94 44 02 	call	0x488	; 0x488 <nRF24L01P_Transmit_Buffer_Empty>
     4e4:	88 23       	and	r24, r24
     4e6:	b9 f3       	breq	.-18     	; 0x4d6 <nRF24L01P_Wait_Till_Transmission_Completes+0x12>
     4e8:	1f 91       	pop	r17
     4ea:	08 95       	ret

000004ec <nRF24L01P_Flush_Receive_Buffer>:
     4ec:	e0 91 cc 06 	lds	r30, 0x06CC
     4f0:	f0 91 cd 06 	lds	r31, 0x06CD
     4f4:	82 89       	ldd	r24, Z+18	; 0x12
     4f6:	88 23       	and	r24, r24
     4f8:	39 f4       	brne	.+14     	; 0x508 <nRF24L01P_Flush_Receive_Buffer+0x1c>
     4fa:	31 96       	adiw	r30, 0x01	; 1
     4fc:	82 ee       	ldi	r24, 0xE2	; 226
     4fe:	60 e0       	ldi	r22, 0x00	; 0
     500:	af 01       	movw	r20, r30
     502:	20 e0       	ldi	r18, 0x00	; 0
     504:	0e 94 ec 01 	call	0x3d8	; 0x3d8 <nRF24L01P_ReadWrite_Register>
     508:	08 95       	ret

0000050a <nRF24L01P_Read_Data_From_Receive_Buffer>:
     50a:	ac 01       	movw	r20, r24
     50c:	e0 91 cc 06 	lds	r30, 0x06CC
     510:	f0 91 cd 06 	lds	r31, 0x06CD
     514:	82 89       	ldd	r24, Z+18	; 0x12
     516:	88 23       	and	r24, r24
     518:	29 f4       	brne	.+10     	; 0x524 <nRF24L01P_Read_Data_From_Receive_Buffer+0x1a>
     51a:	81 e6       	ldi	r24, 0x61	; 97
     51c:	61 e0       	ldi	r22, 0x01	; 1
     51e:	20 e2       	ldi	r18, 0x20	; 32
     520:	0e 94 ec 01 	call	0x3d8	; 0x3d8 <nRF24L01P_ReadWrite_Register>
     524:	08 95       	ret

00000526 <nRF24L01P_Receive_Buffer_Not_Empty>:
     526:	e0 91 cc 06 	lds	r30, 0x06CC
     52a:	f0 91 cd 06 	lds	r31, 0x06CD
     52e:	82 89       	ldd	r24, Z+18	; 0x12
     530:	88 23       	and	r24, r24
     532:	11 f0       	breq	.+4      	; 0x538 <nRF24L01P_Receive_Buffer_Not_Empty+0x12>
     534:	80 e0       	ldi	r24, 0x00	; 0
     536:	08 95       	ret
     538:	11 82       	std	Z+1, r1	; 0x01
     53a:	31 96       	adiw	r30, 0x01	; 1
     53c:	87 e1       	ldi	r24, 0x17	; 23
     53e:	61 e0       	ldi	r22, 0x01	; 1
     540:	af 01       	movw	r20, r30
     542:	21 e0       	ldi	r18, 0x01	; 1
     544:	0e 94 ec 01 	call	0x3d8	; 0x3d8 <nRF24L01P_ReadWrite_Register>
     548:	e0 91 cc 06 	lds	r30, 0x06CC
     54c:	f0 91 cd 06 	lds	r31, 0x06CD
     550:	81 81       	ldd	r24, Z+1	; 0x01
     552:	80 95       	com	r24
     554:	81 70       	andi	r24, 0x01	; 1
     556:	08 95       	ret

00000558 <nRF24L01P_Get_Mode>:
     558:	e0 91 cc 06 	lds	r30, 0x06CC
     55c:	f0 91 cd 06 	lds	r31, 0x06CD
     560:	82 89       	ldd	r24, Z+18	; 0x12
     562:	88 23       	and	r24, r24
     564:	11 f0       	breq	.+4      	; 0x56a <nRF24L01P_Get_Mode+0x12>
     566:	80 e0       	ldi	r24, 0x00	; 0
     568:	08 95       	ret
     56a:	31 96       	adiw	r30, 0x01	; 1
     56c:	80 e0       	ldi	r24, 0x00	; 0
     56e:	61 e0       	ldi	r22, 0x01	; 1
     570:	af 01       	movw	r20, r30
     572:	21 e0       	ldi	r18, 0x01	; 1
     574:	0e 94 ec 01 	call	0x3d8	; 0x3d8 <nRF24L01P_ReadWrite_Register>
     578:	e0 91 cc 06 	lds	r30, 0x06CC
     57c:	f0 91 cd 06 	lds	r31, 0x06CD
     580:	81 81       	ldd	r24, Z+1	; 0x01
     582:	81 ff       	sbrs	r24, 1
     584:	07 c0       	rjmp	.+14     	; 0x594 <nRF24L01P_Get_Mode+0x3c>
     586:	80 ff       	sbrs	r24, 0
     588:	02 c0       	rjmp	.+4      	; 0x58e <nRF24L01P_Get_Mode+0x36>
     58a:	81 e0       	ldi	r24, 0x01	; 1
     58c:	01 c0       	rjmp	.+2      	; 0x590 <nRF24L01P_Get_Mode+0x38>
     58e:	82 e0       	ldi	r24, 0x02	; 2
     590:	80 83       	st	Z, r24
     592:	08 95       	ret
     594:	10 82       	st	Z, r1
     596:	80 e0       	ldi	r24, 0x00	; 0
     598:	08 95       	ret

0000059a <nRF24L01P_Set_Mode_Sleep>:
     59a:	e0 91 cc 06 	lds	r30, 0x06CC
     59e:	f0 91 cd 06 	lds	r31, 0x06CD
     5a2:	82 89       	ldd	r24, Z+18	; 0x12
     5a4:	88 23       	and	r24, r24
     5a6:	61 f4       	brne	.+24     	; 0x5c0 <nRF24L01P_Set_Mode_Sleep+0x26>
     5a8:	11 82       	std	Z+1, r1	; 0x01
     5aa:	31 96       	adiw	r30, 0x01	; 1
     5ac:	60 e0       	ldi	r22, 0x00	; 0
     5ae:	af 01       	movw	r20, r30
     5b0:	21 e0       	ldi	r18, 0x01	; 1
     5b2:	0e 94 ec 01 	call	0x3d8	; 0x3d8 <nRF24L01P_ReadWrite_Register>
     5b6:	e0 91 cc 06 	lds	r30, 0x06CC
     5ba:	f0 91 cd 06 	lds	r31, 0x06CD
     5be:	10 82       	st	Z, r1
     5c0:	08 95       	ret

000005c2 <nRF24L01P_Set_Mode_Tx>:
     5c2:	e0 91 cc 06 	lds	r30, 0x06CC
     5c6:	f0 91 cd 06 	lds	r31, 0x06CD
     5ca:	82 89       	ldd	r24, Z+18	; 0x12
     5cc:	88 23       	and	r24, r24
     5ce:	91 f4       	brne	.+36     	; 0x5f4 <nRF24L01P_Set_Mode_Tx+0x32>
     5d0:	82 e7       	ldi	r24, 0x72	; 114
     5d2:	81 83       	std	Z+1, r24	; 0x01
     5d4:	29 98       	cbi	0x05, 1	; 5
     5d6:	31 96       	adiw	r30, 0x01	; 1
     5d8:	80 e0       	ldi	r24, 0x00	; 0
     5da:	60 e0       	ldi	r22, 0x00	; 0
     5dc:	af 01       	movw	r20, r30
     5de:	21 e0       	ldi	r18, 0x01	; 1
     5e0:	0e 94 ec 01 	call	0x3d8	; 0x3d8 <nRF24L01P_ReadWrite_Register>
     5e4:	0e 94 27 02 	call	0x44e	; 0x44e <nRF24L01P_Flush_Transmit_Buffer>
     5e8:	e0 91 cc 06 	lds	r30, 0x06CC
     5ec:	f0 91 cd 06 	lds	r31, 0x06CD
     5f0:	82 e0       	ldi	r24, 0x02	; 2
     5f2:	80 83       	st	Z, r24
     5f4:	08 95       	ret

000005f6 <nRF24L01P_Set_Mode_Rx>:
     5f6:	e0 91 cc 06 	lds	r30, 0x06CC
     5fa:	f0 91 cd 06 	lds	r31, 0x06CD
     5fe:	82 89       	ldd	r24, Z+18	; 0x12
     600:	88 23       	and	r24, r24
     602:	81 f4       	brne	.+32     	; 0x624 <nRF24L01P_Set_Mode_Rx+0x2e>
     604:	83 e7       	ldi	r24, 0x73	; 115
     606:	81 83       	std	Z+1, r24	; 0x01
     608:	29 9a       	sbi	0x05, 1	; 5
     60a:	31 96       	adiw	r30, 0x01	; 1
     60c:	80 e0       	ldi	r24, 0x00	; 0
     60e:	60 e0       	ldi	r22, 0x00	; 0
     610:	af 01       	movw	r20, r30
     612:	21 e0       	ldi	r18, 0x01	; 1
     614:	0e 94 ec 01 	call	0x3d8	; 0x3d8 <nRF24L01P_ReadWrite_Register>
     618:	e0 91 cc 06 	lds	r30, 0x06CC
     61c:	f0 91 cd 06 	lds	r31, 0x06CD
     620:	81 e0       	ldi	r24, 0x01	; 1
     622:	80 83       	st	Z, r24
     624:	08 95       	ret

00000626 <nRF24L01P_ReadModifyWrite>:
     626:	ff 92       	push	r15
     628:	0f 93       	push	r16
     62a:	1f 93       	push	r17
     62c:	f8 2e       	mov	r15, r24
     62e:	16 2f       	mov	r17, r22
     630:	04 2f       	mov	r16, r20
     632:	e0 91 cc 06 	lds	r30, 0x06CC
     636:	f0 91 cd 06 	lds	r31, 0x06CD
     63a:	82 89       	ldd	r24, Z+18	; 0x12
     63c:	88 23       	and	r24, r24
     63e:	69 f5       	brne	.+90     	; 0x69a <nRF24L01P_ReadModifyWrite+0x74>
     640:	31 96       	adiw	r30, 0x01	; 1
     642:	8f 2d       	mov	r24, r15
     644:	61 e0       	ldi	r22, 0x01	; 1
     646:	af 01       	movw	r20, r30
     648:	21 e0       	ldi	r18, 0x01	; 1
     64a:	0e 94 ec 01 	call	0x3d8	; 0x3d8 <nRF24L01P_ReadWrite_Register>
     64e:	e0 91 cc 06 	lds	r30, 0x06CC
     652:	f0 91 cd 06 	lds	r31, 0x06CD
     656:	00 23       	and	r16, r16
     658:	51 f0       	breq	.+20     	; 0x66e <nRF24L01P_ReadModifyWrite+0x48>
     65a:	81 e0       	ldi	r24, 0x01	; 1
     65c:	90 e0       	ldi	r25, 0x00	; 0
     65e:	02 c0       	rjmp	.+4      	; 0x664 <nRF24L01P_ReadModifyWrite+0x3e>
     660:	88 0f       	add	r24, r24
     662:	99 1f       	adc	r25, r25
     664:	1a 95       	dec	r17
     666:	e2 f7       	brpl	.-8      	; 0x660 <nRF24L01P_ReadModifyWrite+0x3a>
     668:	21 81       	ldd	r18, Z+1	; 0x01
     66a:	28 2b       	or	r18, r24
     66c:	0a c0       	rjmp	.+20     	; 0x682 <nRF24L01P_ReadModifyWrite+0x5c>
     66e:	81 e0       	ldi	r24, 0x01	; 1
     670:	90 e0       	ldi	r25, 0x00	; 0
     672:	02 c0       	rjmp	.+4      	; 0x678 <nRF24L01P_ReadModifyWrite+0x52>
     674:	88 0f       	add	r24, r24
     676:	99 1f       	adc	r25, r25
     678:	1a 95       	dec	r17
     67a:	e2 f7       	brpl	.-8      	; 0x674 <nRF24L01P_ReadModifyWrite+0x4e>
     67c:	80 95       	com	r24
     67e:	21 81       	ldd	r18, Z+1	; 0x01
     680:	28 23       	and	r18, r24
     682:	21 83       	std	Z+1, r18	; 0x01
     684:	40 91 cc 06 	lds	r20, 0x06CC
     688:	50 91 cd 06 	lds	r21, 0x06CD
     68c:	4f 5f       	subi	r20, 0xFF	; 255
     68e:	5f 4f       	sbci	r21, 0xFF	; 255
     690:	8f 2d       	mov	r24, r15
     692:	60 e0       	ldi	r22, 0x00	; 0
     694:	21 e0       	ldi	r18, 0x01	; 1
     696:	0e 94 ec 01 	call	0x3d8	; 0x3d8 <nRF24L01P_ReadWrite_Register>
     69a:	1f 91       	pop	r17
     69c:	0f 91       	pop	r16
     69e:	ff 90       	pop	r15
     6a0:	08 95       	ret

000006a2 <nRF24L01P_Get_Channel>:
     6a2:	e0 91 cc 06 	lds	r30, 0x06CC
     6a6:	f0 91 cd 06 	lds	r31, 0x06CD
     6aa:	82 89       	ldd	r24, Z+18	; 0x12
     6ac:	88 23       	and	r24, r24
     6ae:	11 f0       	breq	.+4      	; 0x6b4 <nRF24L01P_Get_Channel+0x12>
     6b0:	80 e0       	ldi	r24, 0x00	; 0
     6b2:	08 95       	ret
     6b4:	31 96       	adiw	r30, 0x01	; 1
     6b6:	85 e0       	ldi	r24, 0x05	; 5
     6b8:	61 e0       	ldi	r22, 0x01	; 1
     6ba:	af 01       	movw	r20, r30
     6bc:	21 e0       	ldi	r18, 0x01	; 1
     6be:	0e 94 ec 01 	call	0x3d8	; 0x3d8 <nRF24L01P_ReadWrite_Register>
     6c2:	e0 91 cc 06 	lds	r30, 0x06CC
     6c6:	f0 91 cd 06 	lds	r31, 0x06CD
     6ca:	81 81       	ldd	r24, Z+1	; 0x01
     6cc:	08 95       	ret

000006ce <nRF24L01P_Set_Channel>:
     6ce:	98 2f       	mov	r25, r24
     6d0:	e0 91 cc 06 	lds	r30, 0x06CC
     6d4:	f0 91 cd 06 	lds	r31, 0x06CD
     6d8:	82 89       	ldd	r24, Z+18	; 0x12
     6da:	88 23       	and	r24, r24
     6dc:	61 f4       	brne	.+24     	; 0x6f6 <nRF24L01P_Set_Channel+0x28>
     6de:	89 2f       	mov	r24, r25
     6e0:	9e 37       	cpi	r25, 0x7E	; 126
     6e2:	08 f0       	brcs	.+2      	; 0x6e6 <nRF24L01P_Set_Channel+0x18>
     6e4:	8d e7       	ldi	r24, 0x7D	; 125
     6e6:	81 83       	std	Z+1, r24	; 0x01
     6e8:	31 96       	adiw	r30, 0x01	; 1
     6ea:	85 e0       	ldi	r24, 0x05	; 5
     6ec:	60 e0       	ldi	r22, 0x00	; 0
     6ee:	af 01       	movw	r20, r30
     6f0:	21 e0       	ldi	r18, 0x01	; 1
     6f2:	0e 94 ec 01 	call	0x3d8	; 0x3d8 <nRF24L01P_ReadWrite_Register>
     6f6:	08 95       	ret

000006f8 <nRF24L01P_Get_Speed>:
     6f8:	e0 91 cc 06 	lds	r30, 0x06CC
     6fc:	f0 91 cd 06 	lds	r31, 0x06CD
     700:	82 89       	ldd	r24, Z+18	; 0x12
     702:	88 23       	and	r24, r24
     704:	11 f0       	breq	.+4      	; 0x70a <nRF24L01P_Get_Speed+0x12>
     706:	80 e0       	ldi	r24, 0x00	; 0
     708:	08 95       	ret
     70a:	31 96       	adiw	r30, 0x01	; 1
     70c:	86 e0       	ldi	r24, 0x06	; 6
     70e:	61 e0       	ldi	r22, 0x01	; 1
     710:	af 01       	movw	r20, r30
     712:	21 e0       	ldi	r18, 0x01	; 1
     714:	0e 94 ec 01 	call	0x3d8	; 0x3d8 <nRF24L01P_ReadWrite_Register>
     718:	e0 91 cc 06 	lds	r30, 0x06CC
     71c:	f0 91 cd 06 	lds	r31, 0x06CD
     720:	91 81       	ldd	r25, Z+1	; 0x01
     722:	96 95       	lsr	r25
     724:	96 95       	lsr	r25
     726:	96 95       	lsr	r25
     728:	89 2f       	mov	r24, r25
     72a:	86 95       	lsr	r24
     72c:	82 70       	andi	r24, 0x02	; 2
     72e:	81 83       	std	Z+1, r24	; 0x01
     730:	91 70       	andi	r25, 0x01	; 1
     732:	89 2b       	or	r24, r25
     734:	82 83       	std	Z+2, r24	; 0x02
     736:	82 30       	cpi	r24, 0x02	; 2
     738:	11 f4       	brne	.+4      	; 0x73e <nRF24L01P_Get_Speed+0x46>
     73a:	11 82       	std	Z+1, r1	; 0x01
     73c:	06 c0       	rjmp	.+12     	; 0x74a <nRF24L01P_Get_Speed+0x52>
     73e:	81 30       	cpi	r24, 0x01	; 1
     740:	19 f0       	breq	.+6      	; 0x748 <nRF24L01P_Get_Speed+0x50>
     742:	88 23       	and	r24, r24
     744:	11 f4       	brne	.+4      	; 0x74a <nRF24L01P_Get_Speed+0x52>
     746:	82 e0       	ldi	r24, 0x02	; 2
     748:	81 83       	std	Z+1, r24	; 0x01
     74a:	81 81       	ldd	r24, Z+1	; 0x01
     74c:	08 95       	ret

0000074e <nRF24L01P_Set_Speed>:
     74e:	98 2f       	mov	r25, r24
     750:	e0 91 cc 06 	lds	r30, 0x06CC
     754:	f0 91 cd 06 	lds	r31, 0x06CD
     758:	82 89       	ldd	r24, Z+18	; 0x12
     75a:	88 23       	and	r24, r24
     75c:	41 f5       	brne	.+80     	; 0x7ae <nRF24L01P_Set_Speed+0x60>
     75e:	99 23       	and	r25, r25
     760:	21 f4       	brne	.+8      	; 0x76a <nRF24L01P_Set_Speed+0x1c>
     762:	86 e0       	ldi	r24, 0x06	; 6
     764:	65 e0       	ldi	r22, 0x05	; 5
     766:	41 e0       	ldi	r20, 0x01	; 1
     768:	05 c0       	rjmp	.+10     	; 0x774 <nRF24L01P_Set_Speed+0x26>
     76a:	91 30       	cpi	r25, 0x01	; 1
     76c:	49 f4       	brne	.+18     	; 0x780 <nRF24L01P_Set_Speed+0x32>
     76e:	86 e0       	ldi	r24, 0x06	; 6
     770:	65 e0       	ldi	r22, 0x05	; 5
     772:	40 e0       	ldi	r20, 0x00	; 0
     774:	0e 94 13 03 	call	0x626	; 0x626 <nRF24L01P_ReadModifyWrite>
     778:	86 e0       	ldi	r24, 0x06	; 6
     77a:	63 e0       	ldi	r22, 0x03	; 3
     77c:	40 e0       	ldi	r20, 0x00	; 0
     77e:	0a c0       	rjmp	.+20     	; 0x794 <nRF24L01P_Set_Speed+0x46>
     780:	92 30       	cpi	r25, 0x02	; 2
     782:	59 f4       	brne	.+22     	; 0x79a <nRF24L01P_Set_Speed+0x4c>
     784:	86 e0       	ldi	r24, 0x06	; 6
     786:	65 e0       	ldi	r22, 0x05	; 5
     788:	40 e0       	ldi	r20, 0x00	; 0
     78a:	0e 94 13 03 	call	0x626	; 0x626 <nRF24L01P_ReadModifyWrite>
     78e:	86 e0       	ldi	r24, 0x06	; 6
     790:	63 e0       	ldi	r22, 0x03	; 3
     792:	41 e0       	ldi	r20, 0x01	; 1
     794:	0e 94 13 03 	call	0x626	; 0x626 <nRF24L01P_ReadModifyWrite>
     798:	08 95       	ret
     79a:	86 e0       	ldi	r24, 0x06	; 6
     79c:	65 e0       	ldi	r22, 0x05	; 5
     79e:	40 e0       	ldi	r20, 0x00	; 0
     7a0:	0e 94 13 03 	call	0x626	; 0x626 <nRF24L01P_ReadModifyWrite>
     7a4:	86 e0       	ldi	r24, 0x06	; 6
     7a6:	63 e0       	ldi	r22, 0x03	; 3
     7a8:	41 e0       	ldi	r20, 0x01	; 1
     7aa:	0e 94 13 03 	call	0x626	; 0x626 <nRF24L01P_ReadModifyWrite>
     7ae:	08 95       	ret

000007b0 <nRF24L01P_Get_Tx_Power>:
     7b0:	e0 91 cc 06 	lds	r30, 0x06CC
     7b4:	f0 91 cd 06 	lds	r31, 0x06CD
     7b8:	82 89       	ldd	r24, Z+18	; 0x12
     7ba:	88 23       	and	r24, r24
     7bc:	11 f0       	breq	.+4      	; 0x7c2 <nRF24L01P_Get_Tx_Power+0x12>
     7be:	80 e0       	ldi	r24, 0x00	; 0
     7c0:	08 95       	ret
     7c2:	31 96       	adiw	r30, 0x01	; 1
     7c4:	86 e0       	ldi	r24, 0x06	; 6
     7c6:	61 e0       	ldi	r22, 0x01	; 1
     7c8:	af 01       	movw	r20, r30
     7ca:	21 e0       	ldi	r18, 0x01	; 1
     7cc:	0e 94 ec 01 	call	0x3d8	; 0x3d8 <nRF24L01P_ReadWrite_Register>
     7d0:	e0 91 cc 06 	lds	r30, 0x06CC
     7d4:	f0 91 cd 06 	lds	r31, 0x06CD
     7d8:	81 81       	ldd	r24, Z+1	; 0x01
     7da:	86 95       	lsr	r24
     7dc:	83 70       	andi	r24, 0x03	; 3
     7de:	81 83       	std	Z+1, r24	; 0x01
     7e0:	08 95       	ret

000007e2 <nRF24L01P_Set_Tx_Power>:
     7e2:	98 2f       	mov	r25, r24
     7e4:	e0 91 cc 06 	lds	r30, 0x06CC
     7e8:	f0 91 cd 06 	lds	r31, 0x06CD
     7ec:	82 89       	ldd	r24, Z+18	; 0x12
     7ee:	88 23       	and	r24, r24
     7f0:	71 f5       	brne	.+92     	; 0x84e <nRF24L01P_Set_Tx_Power+0x6c>
     7f2:	99 23       	and	r25, r25
     7f4:	21 f4       	brne	.+8      	; 0x7fe <nRF24L01P_Set_Tx_Power+0x1c>
     7f6:	86 e0       	ldi	r24, 0x06	; 6
     7f8:	62 e0       	ldi	r22, 0x02	; 2
     7fa:	40 e0       	ldi	r20, 0x00	; 0
     7fc:	0b c0       	rjmp	.+22     	; 0x814 <nRF24L01P_Set_Tx_Power+0x32>
     7fe:	91 30       	cpi	r25, 0x01	; 1
     800:	21 f4       	brne	.+8      	; 0x80a <nRF24L01P_Set_Tx_Power+0x28>
     802:	86 e0       	ldi	r24, 0x06	; 6
     804:	62 e0       	ldi	r22, 0x02	; 2
     806:	40 e0       	ldi	r20, 0x00	; 0
     808:	10 c0       	rjmp	.+32     	; 0x82a <nRF24L01P_Set_Tx_Power+0x48>
     80a:	92 30       	cpi	r25, 0x02	; 2
     80c:	49 f4       	brne	.+18     	; 0x820 <nRF24L01P_Set_Tx_Power+0x3e>
     80e:	86 e0       	ldi	r24, 0x06	; 6
     810:	62 e0       	ldi	r22, 0x02	; 2
     812:	41 e0       	ldi	r20, 0x01	; 1
     814:	0e 94 13 03 	call	0x626	; 0x626 <nRF24L01P_ReadModifyWrite>
     818:	86 e0       	ldi	r24, 0x06	; 6
     81a:	61 e0       	ldi	r22, 0x01	; 1
     81c:	40 e0       	ldi	r20, 0x00	; 0
     81e:	0a c0       	rjmp	.+20     	; 0x834 <nRF24L01P_Set_Tx_Power+0x52>
     820:	93 30       	cpi	r25, 0x03	; 3
     822:	59 f4       	brne	.+22     	; 0x83a <nRF24L01P_Set_Tx_Power+0x58>
     824:	86 e0       	ldi	r24, 0x06	; 6
     826:	62 e0       	ldi	r22, 0x02	; 2
     828:	41 e0       	ldi	r20, 0x01	; 1
     82a:	0e 94 13 03 	call	0x626	; 0x626 <nRF24L01P_ReadModifyWrite>
     82e:	86 e0       	ldi	r24, 0x06	; 6
     830:	61 e0       	ldi	r22, 0x01	; 1
     832:	41 e0       	ldi	r20, 0x01	; 1
     834:	0e 94 13 03 	call	0x626	; 0x626 <nRF24L01P_ReadModifyWrite>
     838:	08 95       	ret
     83a:	86 e0       	ldi	r24, 0x06	; 6
     83c:	62 e0       	ldi	r22, 0x02	; 2
     83e:	41 e0       	ldi	r20, 0x01	; 1
     840:	0e 94 13 03 	call	0x626	; 0x626 <nRF24L01P_ReadModifyWrite>
     844:	86 e0       	ldi	r24, 0x06	; 6
     846:	61 e0       	ldi	r22, 0x01	; 1
     848:	41 e0       	ldi	r20, 0x01	; 1
     84a:	0e 94 13 03 	call	0x626	; 0x626 <nRF24L01P_ReadModifyWrite>
     84e:	08 95       	ret

00000850 <nRF24L01P_Set_Own_Address>:
     850:	e0 91 cc 06 	lds	r30, 0x06CC
     854:	f0 91 cd 06 	lds	r31, 0x06CD
     858:	83 83       	std	Z+3, r24	; 0x03
     85a:	08 95       	ret

0000085c <nRF24L01P_Set_Destination_Address>:
     85c:	e0 91 cc 06 	lds	r30, 0x06CC
     860:	f0 91 cd 06 	lds	r31, 0x06CD
     864:	84 83       	std	Z+4, r24	; 0x04
     866:	08 95       	ret

00000868 <nRF24L01P_Set_Receive_Timeout>:
     868:	e0 91 cc 06 	lds	r30, 0x06CC
     86c:	f0 91 cd 06 	lds	r31, 0x06CD
     870:	96 83       	std	Z+6, r25	; 0x06
     872:	85 83       	std	Z+5, r24	; 0x05
     874:	08 95       	ret

00000876 <nRF24L01P_Set_MaxRetransmission>:
     876:	e0 91 cc 06 	lds	r30, 0x06CC
     87a:	f0 91 cd 06 	lds	r31, 0x06CD
     87e:	93 87       	std	Z+11, r25	; 0x0b
     880:	82 87       	std	Z+10, r24	; 0x0a
     882:	08 95       	ret

00000884 <nRF24L01P_Deep_Sleep>:
     884:	e0 91 cc 06 	lds	r30, 0x06CC
     888:	f0 91 cd 06 	lds	r31, 0x06CD
     88c:	80 81       	ld	r24, Z
     88e:	88 23       	and	r24, r24
     890:	21 f0       	breq	.+8      	; 0x89a <nRF24L01P_Deep_Sleep+0x16>
     892:	0e 94 cd 02 	call	0x59a	; 0x59a <nRF24L01P_Set_Mode_Sleep>
     896:	0e 94 6c 01 	call	0x2d8	; 0x2d8 <nRF24L01P_Disable>
     89a:	08 95       	ret

0000089c <nRF24L01P_WakeUp>:
     89c:	e0 91 cc 06 	lds	r30, 0x06CC
     8a0:	f0 91 cd 06 	lds	r31, 0x06CD
     8a4:	80 81       	ld	r24, Z
     8a6:	88 23       	and	r24, r24
     8a8:	21 f4       	brne	.+8      	; 0x8b2 <nRF24L01P_WakeUp+0x16>
     8aa:	0e 94 65 01 	call	0x2ca	; 0x2ca <nRF24L01P_Enable>
     8ae:	0e 94 fb 02 	call	0x5f6	; 0x5f6 <nRF24L01P_Set_Mode_Rx>
     8b2:	08 95       	ret

000008b4 <nRF24L01P_Init>:
     8b4:	0f 93       	push	r16
     8b6:	1f 93       	push	r17
     8b8:	0e 94 14 01 	call	0x228	; 0x228 <nRF24L01P_Struct_Init>
     8bc:	0e 94 65 01 	call	0x2ca	; 0x2ca <nRF24L01P_Enable>
     8c0:	e0 91 cc 06 	lds	r30, 0x06CC
     8c4:	f0 91 cd 06 	lds	r31, 0x06CD
     8c8:	11 82       	std	Z+1, r1	; 0x01
     8ca:	31 96       	adiw	r30, 0x01	; 1
     8cc:	80 e0       	ldi	r24, 0x00	; 0
     8ce:	60 e0       	ldi	r22, 0x00	; 0
     8d0:	af 01       	movw	r20, r30
     8d2:	21 e0       	ldi	r18, 0x01	; 1
     8d4:	0e 94 ec 01 	call	0x3d8	; 0x3d8 <nRF24L01P_ReadWrite_Register>
     8d8:	e0 91 cc 06 	lds	r30, 0x06CC
     8dc:	f0 91 cd 06 	lds	r31, 0x06CD
     8e0:	11 82       	std	Z+1, r1	; 0x01
     8e2:	31 96       	adiw	r30, 0x01	; 1
     8e4:	81 e0       	ldi	r24, 0x01	; 1
     8e6:	60 e0       	ldi	r22, 0x00	; 0
     8e8:	af 01       	movw	r20, r30
     8ea:	21 e0       	ldi	r18, 0x01	; 1
     8ec:	0e 94 ec 01 	call	0x3d8	; 0x3d8 <nRF24L01P_ReadWrite_Register>
     8f0:	e0 91 cc 06 	lds	r30, 0x06CC
     8f4:	f0 91 cd 06 	lds	r31, 0x06CD
     8f8:	83 e0       	ldi	r24, 0x03	; 3
     8fa:	81 83       	std	Z+1, r24	; 0x01
     8fc:	31 96       	adiw	r30, 0x01	; 1
     8fe:	82 e0       	ldi	r24, 0x02	; 2
     900:	60 e0       	ldi	r22, 0x00	; 0
     902:	af 01       	movw	r20, r30
     904:	21 e0       	ldi	r18, 0x01	; 1
     906:	0e 94 ec 01 	call	0x3d8	; 0x3d8 <nRF24L01P_ReadWrite_Register>
     90a:	e0 91 cc 06 	lds	r30, 0x06CC
     90e:	f0 91 cd 06 	lds	r31, 0x06CD
     912:	81 e0       	ldi	r24, 0x01	; 1
     914:	81 83       	std	Z+1, r24	; 0x01
     916:	31 96       	adiw	r30, 0x01	; 1
     918:	83 e0       	ldi	r24, 0x03	; 3
     91a:	60 e0       	ldi	r22, 0x00	; 0
     91c:	af 01       	movw	r20, r30
     91e:	21 e0       	ldi	r18, 0x01	; 1
     920:	0e 94 ec 01 	call	0x3d8	; 0x3d8 <nRF24L01P_ReadWrite_Register>
     924:	e0 91 cc 06 	lds	r30, 0x06CC
     928:	f0 91 cd 06 	lds	r31, 0x06CD
     92c:	11 82       	std	Z+1, r1	; 0x01
     92e:	31 96       	adiw	r30, 0x01	; 1
     930:	84 e0       	ldi	r24, 0x04	; 4
     932:	60 e0       	ldi	r22, 0x00	; 0
     934:	af 01       	movw	r20, r30
     936:	21 e0       	ldi	r18, 0x01	; 1
     938:	0e 94 ec 01 	call	0x3d8	; 0x3d8 <nRF24L01P_ReadWrite_Register>
     93c:	e0 91 cc 06 	lds	r30, 0x06CC
     940:	f0 91 cd 06 	lds	r31, 0x06CD
     944:	82 e0       	ldi	r24, 0x02	; 2
     946:	81 83       	std	Z+1, r24	; 0x01
     948:	31 96       	adiw	r30, 0x01	; 1
     94a:	85 e0       	ldi	r24, 0x05	; 5
     94c:	60 e0       	ldi	r22, 0x00	; 0
     94e:	af 01       	movw	r20, r30
     950:	21 e0       	ldi	r18, 0x01	; 1
     952:	0e 94 ec 01 	call	0x3d8	; 0x3d8 <nRF24L01P_ReadWrite_Register>
     956:	e0 91 cc 06 	lds	r30, 0x06CC
     95a:	f0 91 cd 06 	lds	r31, 0x06CD
     95e:	86 e2       	ldi	r24, 0x26	; 38
     960:	81 83       	std	Z+1, r24	; 0x01
     962:	31 96       	adiw	r30, 0x01	; 1
     964:	86 e0       	ldi	r24, 0x06	; 6
     966:	60 e0       	ldi	r22, 0x00	; 0
     968:	af 01       	movw	r20, r30
     96a:	21 e0       	ldi	r18, 0x01	; 1
     96c:	0e 94 ec 01 	call	0x3d8	; 0x3d8 <nRF24L01P_ReadWrite_Register>
     970:	e0 91 cc 06 	lds	r30, 0x06CC
     974:	f0 91 cd 06 	lds	r31, 0x06CD
     978:	80 e7       	ldi	r24, 0x70	; 112
     97a:	81 83       	std	Z+1, r24	; 0x01
     97c:	31 96       	adiw	r30, 0x01	; 1
     97e:	87 e0       	ldi	r24, 0x07	; 7
     980:	60 e0       	ldi	r22, 0x00	; 0
     982:	af 01       	movw	r20, r30
     984:	21 e0       	ldi	r18, 0x01	; 1
     986:	0e 94 ec 01 	call	0x3d8	; 0x3d8 <nRF24L01P_ReadWrite_Register>
     98a:	e0 91 cc 06 	lds	r30, 0x06CC
     98e:	f0 91 cd 06 	lds	r31, 0x06CD
     992:	10 e2       	ldi	r17, 0x20	; 32
     994:	11 83       	std	Z+1, r17	; 0x01
     996:	31 96       	adiw	r30, 0x01	; 1
     998:	81 e1       	ldi	r24, 0x11	; 17
     99a:	60 e0       	ldi	r22, 0x00	; 0
     99c:	af 01       	movw	r20, r30
     99e:	21 e0       	ldi	r18, 0x01	; 1
     9a0:	0e 94 ec 01 	call	0x3d8	; 0x3d8 <nRF24L01P_ReadWrite_Register>
     9a4:	e0 91 cc 06 	lds	r30, 0x06CC
     9a8:	f0 91 cd 06 	lds	r31, 0x06CD
     9ac:	11 83       	std	Z+1, r17	; 0x01
     9ae:	31 96       	adiw	r30, 0x01	; 1
     9b0:	82 e1       	ldi	r24, 0x12	; 18
     9b2:	60 e0       	ldi	r22, 0x00	; 0
     9b4:	af 01       	movw	r20, r30
     9b6:	21 e0       	ldi	r18, 0x01	; 1
     9b8:	0e 94 ec 01 	call	0x3d8	; 0x3d8 <nRF24L01P_ReadWrite_Register>
     9bc:	e0 91 cc 06 	lds	r30, 0x06CC
     9c0:	f0 91 cd 06 	lds	r31, 0x06CD
     9c4:	11 82       	std	Z+1, r1	; 0x01
     9c6:	31 96       	adiw	r30, 0x01	; 1
     9c8:	8c e1       	ldi	r24, 0x1C	; 28
     9ca:	60 e0       	ldi	r22, 0x00	; 0
     9cc:	af 01       	movw	r20, r30
     9ce:	21 e0       	ldi	r18, 0x01	; 1
     9d0:	0e 94 ec 01 	call	0x3d8	; 0x3d8 <nRF24L01P_ReadWrite_Register>
     9d4:	e0 91 cc 06 	lds	r30, 0x06CC
     9d8:	f0 91 cd 06 	lds	r31, 0x06CD
     9dc:	11 82       	std	Z+1, r1	; 0x01
     9de:	31 96       	adiw	r30, 0x01	; 1
     9e0:	8d e1       	ldi	r24, 0x1D	; 29
     9e2:	60 e0       	ldi	r22, 0x00	; 0
     9e4:	af 01       	movw	r20, r30
     9e6:	21 e0       	ldi	r18, 0x01	; 1
     9e8:	0e 94 ec 01 	call	0x3d8	; 0x3d8 <nRF24L01P_ReadWrite_Register>
     9ec:	00 e0       	ldi	r16, 0x00	; 0
     9ee:	11 e0       	ldi	r17, 0x01	; 1
     9f0:	80 e1       	ldi	r24, 0x10	; 16
     9f2:	60 e0       	ldi	r22, 0x00	; 0
     9f4:	a8 01       	movw	r20, r16
     9f6:	25 e0       	ldi	r18, 0x05	; 5
     9f8:	0e 94 ec 01 	call	0x3d8	; 0x3d8 <nRF24L01P_ReadWrite_Register>
     9fc:	8a e0       	ldi	r24, 0x0A	; 10
     9fe:	60 e0       	ldi	r22, 0x00	; 0
     a00:	a8 01       	movw	r20, r16
     a02:	25 e0       	ldi	r18, 0x05	; 5
     a04:	0e 94 ec 01 	call	0x3d8	; 0x3d8 <nRF24L01P_ReadWrite_Register>
     a08:	8b e0       	ldi	r24, 0x0B	; 11
     a0a:	60 e0       	ldi	r22, 0x00	; 0
     a0c:	46 e0       	ldi	r20, 0x06	; 6
     a0e:	51 e0       	ldi	r21, 0x01	; 1
     a10:	25 e0       	ldi	r18, 0x05	; 5
     a12:	0e 94 ec 01 	call	0x3d8	; 0x3d8 <nRF24L01P_ReadWrite_Register>
     a16:	8c e0       	ldi	r24, 0x0C	; 12
     a18:	60 e0       	ldi	r22, 0x00	; 0
     a1a:	4c e0       	ldi	r20, 0x0C	; 12
     a1c:	51 e0       	ldi	r21, 0x01	; 1
     a1e:	25 e0       	ldi	r18, 0x05	; 5
     a20:	0e 94 ec 01 	call	0x3d8	; 0x3d8 <nRF24L01P_ReadWrite_Register>
     a24:	8d e0       	ldi	r24, 0x0D	; 13
     a26:	60 e0       	ldi	r22, 0x00	; 0
     a28:	42 e1       	ldi	r20, 0x12	; 18
     a2a:	51 e0       	ldi	r21, 0x01	; 1
     a2c:	25 e0       	ldi	r18, 0x05	; 5
     a2e:	0e 94 ec 01 	call	0x3d8	; 0x3d8 <nRF24L01P_ReadWrite_Register>
     a32:	8e e0       	ldi	r24, 0x0E	; 14
     a34:	60 e0       	ldi	r22, 0x00	; 0
     a36:	48 e1       	ldi	r20, 0x18	; 24
     a38:	51 e0       	ldi	r21, 0x01	; 1
     a3a:	25 e0       	ldi	r18, 0x05	; 5
     a3c:	0e 94 ec 01 	call	0x3d8	; 0x3d8 <nRF24L01P_ReadWrite_Register>
     a40:	8f e0       	ldi	r24, 0x0F	; 15
     a42:	60 e0       	ldi	r22, 0x00	; 0
     a44:	4e e1       	ldi	r20, 0x1E	; 30
     a46:	51 e0       	ldi	r21, 0x01	; 1
     a48:	25 e0       	ldi	r18, 0x05	; 5
     a4a:	0e 94 ec 01 	call	0x3d8	; 0x3d8 <nRF24L01P_ReadWrite_Register>
     a4e:	e0 91 cc 06 	lds	r30, 0x06CC
     a52:	f0 91 cd 06 	lds	r31, 0x06CD
     a56:	80 e2       	ldi	r24, 0x20	; 32
     a58:	90 e0       	ldi	r25, 0x00	; 0
     a5a:	96 83       	std	Z+6, r25	; 0x06
     a5c:	85 83       	std	Z+5, r24	; 0x05
     a5e:	0e 94 42 04 	call	0x884	; 0x884 <nRF24L01P_Deep_Sleep>
     a62:	1f 91       	pop	r17
     a64:	0f 91       	pop	r16
     a66:	08 95       	ret

00000a68 <nRF24L01P_Transmit_Basic>:
     a68:	ff 92       	push	r15
     a6a:	0f 93       	push	r16
     a6c:	1f 93       	push	r17
     a6e:	8c 01       	movw	r16, r24
     a70:	f6 2e       	mov	r15, r22
     a72:	e0 91 cc 06 	lds	r30, 0x06CC
     a76:	f0 91 cd 06 	lds	r31, 0x06CD
     a7a:	11 8a       	std	Z+17, r1	; 0x11
     a7c:	10 8a       	std	Z+16, r1	; 0x10
     a7e:	12 8a       	std	Z+18, r1	; 0x12
     a80:	0e 94 e1 02 	call	0x5c2	; 0x5c2 <nRF24L01P_Set_Mode_Tx>
     a84:	e0 91 cc 06 	lds	r30, 0x06CC
     a88:	f0 91 cd 06 	lds	r31, 0x06CD
     a8c:	83 81       	ldd	r24, Z+3	; 0x03
     a8e:	f8 01       	movw	r30, r16
     a90:	83 8f       	std	Z+27, r24	; 0x1b
     a92:	e0 91 cc 06 	lds	r30, 0x06CC
     a96:	f0 91 cd 06 	lds	r31, 0x06CD
     a9a:	84 81       	ldd	r24, Z+4	; 0x04
     a9c:	f8 01       	movw	r30, r16
     a9e:	84 8f       	std	Z+28, r24	; 0x1c
     aa0:	f5 8e       	std	Z+29, r15	; 0x1d
     aa2:	c8 01       	movw	r24, r16
     aa4:	6e e1       	ldi	r22, 0x1E	; 30
     aa6:	0e 94 d4 01 	call	0x3a8	; 0x3a8 <nRF24L01P_Calcuate_CRC_Block>
     aaa:	f8 01       	movw	r30, r16
     aac:	96 8f       	std	Z+30, r25	; 0x1e
     aae:	87 8f       	std	Z+31, r24	; 0x1f
     ab0:	c8 01       	movw	r24, r16
     ab2:	0e 94 36 02 	call	0x46c	; 0x46c <nRF24L01P_Write_Data_To_Transmit_Buffer>
     ab6:	29 9a       	sbi	0x05, 1	; 5
     ab8:	0e 94 62 02 	call	0x4c4	; 0x4c4 <nRF24L01P_Wait_Till_Transmission_Completes>
     abc:	29 98       	cbi	0x05, 1	; 5
     abe:	1f 91       	pop	r17
     ac0:	0f 91       	pop	r16
     ac2:	ff 90       	pop	r15
     ac4:	08 95       	ret

00000ac6 <nRF24L01P_Recieve_Basic>:
     ac6:	df 92       	push	r13
     ac8:	ef 92       	push	r14
     aca:	ff 92       	push	r15
     acc:	0f 93       	push	r16
     ace:	1f 93       	push	r17
     ad0:	cf 93       	push	r28
     ad2:	df 93       	push	r29
     ad4:	7c 01       	movw	r14, r24
     ad6:	e0 91 cc 06 	lds	r30, 0x06CC
     ada:	f0 91 cd 06 	lds	r31, 0x06CD
     ade:	11 8a       	std	Z+17, r1	; 0x11
     ae0:	10 8a       	std	Z+16, r1	; 0x10
     ae2:	12 8a       	std	Z+18, r1	; 0x12
     ae4:	10 86       	std	Z+8, r1	; 0x08
     ae6:	17 82       	std	Z+7, r1	; 0x07
     ae8:	0e 94 fb 02 	call	0x5f6	; 0x5f6 <nRF24L01P_Set_Mode_Rx>
     aec:	75 e8       	ldi	r23, 0x85	; 133
     aee:	d7 2e       	mov	r13, r23
     af0:	23 c0       	rjmp	.+70     	; 0xb38 <nRF24L01P_Recieve_Basic+0x72>
     af2:	0e 94 93 02 	call	0x526	; 0x526 <nRF24L01P_Receive_Buffer_Not_Empty>
     af6:	88 23       	and	r24, r24
     af8:	99 f0       	breq	.+38     	; 0xb20 <nRF24L01P_Recieve_Basic+0x5a>
     afa:	c7 01       	movw	r24, r14
     afc:	0e 94 85 02 	call	0x50a	; 0x50a <nRF24L01P_Read_Data_From_Receive_Buffer>
     b00:	f7 01       	movw	r30, r14
     b02:	d6 8d       	ldd	r29, Z+30	; 0x1e
     b04:	c0 e0       	ldi	r28, 0x00	; 0
     b06:	07 8d       	ldd	r16, Z+31	; 0x1f
     b08:	10 e0       	ldi	r17, 0x00	; 0
     b0a:	0c 2b       	or	r16, r28
     b0c:	1d 2b       	or	r17, r29
     b0e:	c7 01       	movw	r24, r14
     b10:	6e e1       	ldi	r22, 0x1E	; 30
     b12:	0e 94 d4 01 	call	0x3a8	; 0x3a8 <nRF24L01P_Calcuate_CRC_Block>
     b16:	08 17       	cp	r16, r24
     b18:	19 07       	cpc	r17, r25
     b1a:	11 f4       	brne	.+4      	; 0xb20 <nRF24L01P_Recieve_Basic+0x5a>
     b1c:	81 e0       	ldi	r24, 0x01	; 1
     b1e:	18 c0       	rjmp	.+48     	; 0xb50 <nRF24L01P_Recieve_Basic+0x8a>
     b20:	8d 2d       	mov	r24, r13
     b22:	8a 95       	dec	r24
     b24:	f1 f7       	brne	.-4      	; 0xb22 <nRF24L01P_Recieve_Basic+0x5c>
     b26:	e0 91 cc 06 	lds	r30, 0x06CC
     b2a:	f0 91 cd 06 	lds	r31, 0x06CD
     b2e:	87 81       	ldd	r24, Z+7	; 0x07
     b30:	90 85       	ldd	r25, Z+8	; 0x08
     b32:	01 96       	adiw	r24, 0x01	; 1
     b34:	90 87       	std	Z+8, r25	; 0x08
     b36:	87 83       	std	Z+7, r24	; 0x07
     b38:	e0 91 cc 06 	lds	r30, 0x06CC
     b3c:	f0 91 cd 06 	lds	r31, 0x06CD
     b40:	27 81       	ldd	r18, Z+7	; 0x07
     b42:	30 85       	ldd	r19, Z+8	; 0x08
     b44:	85 81       	ldd	r24, Z+5	; 0x05
     b46:	96 81       	ldd	r25, Z+6	; 0x06
     b48:	28 17       	cp	r18, r24
     b4a:	39 07       	cpc	r19, r25
     b4c:	90 f2       	brcs	.-92     	; 0xaf2 <nRF24L01P_Recieve_Basic+0x2c>
     b4e:	80 e0       	ldi	r24, 0x00	; 0
     b50:	df 91       	pop	r29
     b52:	cf 91       	pop	r28
     b54:	1f 91       	pop	r17
     b56:	0f 91       	pop	r16
     b58:	ff 90       	pop	r15
     b5a:	ef 90       	pop	r14
     b5c:	df 90       	pop	r13
     b5e:	08 95       	ret

00000b60 <nRF24L01P_Transmit_With_ACK>:
     b60:	cf 93       	push	r28
     b62:	df 93       	push	r29
     b64:	ec 01       	movw	r28, r24
     b66:	e0 91 cc 06 	lds	r30, 0x06CC
     b6a:	f0 91 cd 06 	lds	r31, 0x06CD
     b6e:	87 85       	ldd	r24, Z+15	; 0x0f
     b70:	88 23       	and	r24, r24
     b72:	19 f0       	breq	.+6      	; 0xb7a <nRF24L01P_Transmit_With_ACK+0x1a>
     b74:	81 e0       	ldi	r24, 0x01	; 1
     b76:	8a 8f       	std	Y+26, r24	; 0x1a
     b78:	01 c0       	rjmp	.+2      	; 0xb7c <nRF24L01P_Transmit_With_ACK+0x1c>
     b7a:	1a 8e       	std	Y+26, r1	; 0x1a
     b7c:	ce 01       	movw	r24, r28
     b7e:	0e 94 34 05 	call	0xa68	; 0xa68 <nRF24L01P_Transmit_Basic>
     b82:	ce 01       	movw	r24, r28
     b84:	0e 94 63 05 	call	0xac6	; 0xac6 <nRF24L01P_Recieve_Basic>
     b88:	81 11       	cpse	r24, r1
     b8a:	81 e0       	ldi	r24, 0x01	; 1
     b8c:	df 91       	pop	r29
     b8e:	cf 91       	pop	r28
     b90:	08 95       	ret

00000b92 <nRF24L01P_Recieve_With_ACK>:
     b92:	cf 93       	push	r28
     b94:	df 93       	push	r29
     b96:	ec 01       	movw	r28, r24
     b98:	0e 94 63 05 	call	0xac6	; 0xac6 <nRF24L01P_Recieve_Basic>
     b9c:	88 23       	and	r24, r24
     b9e:	b9 f0       	breq	.+46     	; 0xbce <nRF24L01P_Recieve_With_ACK+0x3c>
     ba0:	8a 8d       	ldd	r24, Y+26	; 0x1a
     ba2:	81 30       	cpi	r24, 0x01	; 1
     ba4:	a1 f4       	brne	.+40     	; 0xbce <nRF24L01P_Recieve_With_ACK+0x3c>
     ba6:	e0 91 cc 06 	lds	r30, 0x06CC
     baa:	f0 91 cd 06 	lds	r31, 0x06CD
     bae:	93 81       	ldd	r25, Z+3	; 0x03
     bb0:	8c 8d       	ldd	r24, Y+28	; 0x1c
     bb2:	98 17       	cp	r25, r24
     bb4:	61 f4       	brne	.+24     	; 0xbce <nRF24L01P_Recieve_With_ACK+0x3c>
     bb6:	84 ef       	ldi	r24, 0xF4	; 244
     bb8:	91 e0       	ldi	r25, 0x01	; 1
     bba:	01 97       	sbiw	r24, 0x01	; 1
     bbc:	f1 f7       	brne	.-4      	; 0xbba <nRF24L01P_Recieve_With_ACK+0x28>
     bbe:	8b 8d       	ldd	r24, Y+27	; 0x1b
     bc0:	84 83       	std	Z+4, r24	; 0x04
     bc2:	ce 01       	movw	r24, r28
     bc4:	62 e0       	ldi	r22, 0x02	; 2
     bc6:	0e 94 34 05 	call	0xa68	; 0xa68 <nRF24L01P_Transmit_Basic>
     bca:	81 e0       	ldi	r24, 0x01	; 1
     bcc:	01 c0       	rjmp	.+2      	; 0xbd0 <nRF24L01P_Recieve_With_ACK+0x3e>
     bce:	80 e0       	ldi	r24, 0x00	; 0
     bd0:	df 91       	pop	r29
     bd2:	cf 91       	pop	r28
     bd4:	08 95       	ret

00000bd6 <nRF24L01P_Error_Handler>:
     bd6:	e0 91 cc 06 	lds	r30, 0x06CC
     bda:	f0 91 cd 06 	lds	r31, 0x06CD
     bde:	82 89       	ldd	r24, Z+18	; 0x12
     be0:	88 23       	and	r24, r24
     be2:	39 f0       	breq	.+14     	; 0xbf2 <nRF24L01P_Error_Handler+0x1c>
     be4:	11 8a       	std	Z+17, r1	; 0x11
     be6:	10 8a       	std	Z+16, r1	; 0x10
     be8:	12 8a       	std	Z+18, r1	; 0x12
     bea:	0e 94 6c 01 	call	0x2d8	; 0x2d8 <nRF24L01P_Disable>
     bee:	0e 94 5a 04 	call	0x8b4	; 0x8b4 <nRF24L01P_Init>
     bf2:	08 95       	ret

00000bf4 <Peripherals_ADC_Init>:
     bf4:	80 91 7a 00 	lds	r24, 0x007A
     bf8:	87 fd       	sbrc	r24, 7
     bfa:	1c c0       	rjmp	.+56     	; 0xc34 <Peripherals_ADC_Init+0x40>
     bfc:	8f ec       	ldi	r24, 0xCF	; 207
     bfe:	80 93 7c 00 	sts	0x007C, r24
     c02:	86 e0       	ldi	r24, 0x06	; 6
     c04:	80 93 7a 00 	sts	0x007A, r24
     c08:	80 91 7a 00 	lds	r24, 0x007A
     c0c:	80 6c       	ori	r24, 0xC0	; 192
     c0e:	80 93 7a 00 	sts	0x007A, r24
     c12:	90 e0       	ldi	r25, 0x00	; 0
     c14:	2d e0       	ldi	r18, 0x0D	; 13
     c16:	0a c0       	rjmp	.+20     	; 0xc2c <Peripherals_ADC_Init+0x38>
     c18:	9f 5f       	subi	r25, 0xFF	; 255
     c1a:	82 2f       	mov	r24, r18
     c1c:	8a 95       	dec	r24
     c1e:	f1 f7       	brne	.-4      	; 0xc1c <Peripherals_ADC_Init+0x28>
     c20:	99 3c       	cpi	r25, 0xC9	; 201
     c22:	21 f4       	brne	.+8      	; 0xc2c <Peripherals_ADC_Init+0x38>
     c24:	81 e0       	ldi	r24, 0x01	; 1
     c26:	80 93 31 01 	sts	0x0131, r24
     c2a:	08 95       	ret
     c2c:	80 91 7a 00 	lds	r24, 0x007A
     c30:	84 ff       	sbrs	r24, 4
     c32:	f2 cf       	rjmp	.-28     	; 0xc18 <Peripherals_ADC_Init+0x24>
     c34:	08 95       	ret

00000c36 <Peripherals_ADC_Sample>:
     c36:	df 92       	push	r13
     c38:	ef 92       	push	r14
     c3a:	ff 92       	push	r15
     c3c:	0f 93       	push	r16
     c3e:	1f 93       	push	r17
     c40:	18 2f       	mov	r17, r24
     c42:	d6 2e       	mov	r13, r22
     c44:	0e 94 fa 05 	call	0xbf4	; 0xbf4 <Peripherals_ADC_Init>
     c48:	80 91 31 01 	lds	r24, 0x0131
     c4c:	88 23       	and	r24, r24
     c4e:	09 f0       	breq	.+2      	; 0xc52 <Peripherals_ADC_Sample+0x1c>
     c50:	40 c0       	rjmp	.+128    	; 0xcd2 <Peripherals_ADC_Sample+0x9c>
     c52:	80 91 7c 00 	lds	r24, 0x007C
     c56:	80 7f       	andi	r24, 0xF0	; 240
     c58:	81 2b       	or	r24, r17
     c5a:	80 93 7c 00 	sts	0x007C, r24
     c5e:	84 ef       	ldi	r24, 0xF4	; 244
     c60:	91 e0       	ldi	r25, 0x01	; 1
     c62:	01 97       	sbiw	r24, 0x01	; 1
     c64:	f1 f7       	brne	.-4      	; 0xc62 <Peripherals_ADC_Sample+0x2c>
     c66:	ee 24       	eor	r14, r14
     c68:	ff 24       	eor	r15, r15
     c6a:	87 01       	movw	r16, r14
     c6c:	20 e0       	ldi	r18, 0x00	; 0
     c6e:	30 e0       	ldi	r19, 0x00	; 0
     c70:	4d e0       	ldi	r20, 0x0D	; 13
     c72:	1e c0       	rjmp	.+60     	; 0xcb0 <Peripherals_ADC_Sample+0x7a>
     c74:	80 91 7a 00 	lds	r24, 0x007A
     c78:	80 64       	ori	r24, 0x40	; 64
     c7a:	80 93 7a 00 	sts	0x007A, r24
     c7e:	90 e0       	ldi	r25, 0x00	; 0
     c80:	08 c0       	rjmp	.+16     	; 0xc92 <Peripherals_ADC_Sample+0x5c>
     c82:	9f 5f       	subi	r25, 0xFF	; 255
     c84:	84 2f       	mov	r24, r20
     c86:	8a 95       	dec	r24
     c88:	f1 f7       	brne	.-4      	; 0xc86 <Peripherals_ADC_Sample+0x50>
     c8a:	99 3c       	cpi	r25, 0xC9	; 201
     c8c:	11 f4       	brne	.+4      	; 0xc92 <Peripherals_ADC_Sample+0x5c>
     c8e:	31 e0       	ldi	r19, 0x01	; 1
     c90:	04 c0       	rjmp	.+8      	; 0xc9a <Peripherals_ADC_Sample+0x64>
     c92:	80 91 7a 00 	lds	r24, 0x007A
     c96:	84 ff       	sbrs	r24, 4
     c98:	f4 cf       	rjmp	.-24     	; 0xc82 <Peripherals_ADC_Sample+0x4c>
     c9a:	80 91 78 00 	lds	r24, 0x0078
     c9e:	90 91 79 00 	lds	r25, 0x0079
     ca2:	a0 e0       	ldi	r26, 0x00	; 0
     ca4:	b0 e0       	ldi	r27, 0x00	; 0
     ca6:	e8 0e       	add	r14, r24
     ca8:	f9 1e       	adc	r15, r25
     caa:	0a 1f       	adc	r16, r26
     cac:	1b 1f       	adc	r17, r27
     cae:	2f 5f       	subi	r18, 0xFF	; 255
     cb0:	2d 15       	cp	r18, r13
     cb2:	00 f3       	brcs	.-64     	; 0xc74 <Peripherals_ADC_Sample+0x3e>
     cb4:	30 93 31 01 	sts	0x0131, r19
     cb8:	2d 2d       	mov	r18, r13
     cba:	30 e0       	ldi	r19, 0x00	; 0
     cbc:	40 e0       	ldi	r20, 0x00	; 0
     cbe:	50 e0       	ldi	r21, 0x00	; 0
     cc0:	c8 01       	movw	r24, r16
     cc2:	b7 01       	movw	r22, r14
     cc4:	0e 94 67 0f 	call	0x1ece	; 0x1ece <__udivmodsi4>
     cc8:	c9 01       	movw	r24, r18
     cca:	da 01       	movw	r26, r20
     ccc:	9c 01       	movw	r18, r24
     cce:	ad 01       	movw	r20, r26
     cd0:	0a c0       	rjmp	.+20     	; 0xce6 <Peripherals_ADC_Sample+0xb0>
     cd2:	80 93 32 01 	sts	0x0132, r24
     cd6:	10 92 31 01 	sts	0x0131, r1
     cda:	0e 94 fa 05 	call	0xbf4	; 0xbf4 <Peripherals_ADC_Init>
     cde:	20 e0       	ldi	r18, 0x00	; 0
     ce0:	30 e0       	ldi	r19, 0x00	; 0
     ce2:	40 e0       	ldi	r20, 0x00	; 0
     ce4:	50 e0       	ldi	r21, 0x00	; 0
     ce6:	c9 01       	movw	r24, r18
     ce8:	1f 91       	pop	r17
     cea:	0f 91       	pop	r16
     cec:	ff 90       	pop	r15
     cee:	ef 90       	pop	r14
     cf0:	df 90       	pop	r13
     cf2:	08 95       	ret

00000cf4 <Peripherals_Vin_Sense_Sample>:
     cf4:	80 91 24 01 	lds	r24, 0x0124
     cf8:	81 60       	ori	r24, 0x01	; 1
     cfa:	80 93 24 01 	sts	0x0124, r24
     cfe:	5a 9a       	sbi	0x0b, 2	; 11
     d00:	86 e0       	ldi	r24, 0x06	; 6
     d02:	64 e0       	ldi	r22, 0x04	; 4
     d04:	0e 94 1b 06 	call	0xc36	; 0xc36 <Peripherals_ADC_Sample>
     d08:	90 93 26 01 	sts	0x0126, r25
     d0c:	80 93 25 01 	sts	0x0125, r24
     d10:	5a 98       	cbi	0x0b, 2	; 11
     d12:	a0 e0       	ldi	r26, 0x00	; 0
     d14:	b0 e0       	ldi	r27, 0x00	; 0
     d16:	bc 01       	movw	r22, r24
     d18:	cd 01       	movw	r24, r26
     d1a:	2c e3       	ldi	r18, 0x3C	; 60
     d1c:	3a e5       	ldi	r19, 0x5A	; 90
     d1e:	40 e0       	ldi	r20, 0x00	; 0
     d20:	50 e0       	ldi	r21, 0x00	; 0
     d22:	0e 94 48 0f 	call	0x1e90	; 0x1e90 <__mulsi3>
     d26:	2a e0       	ldi	r18, 0x0A	; 10
     d28:	96 95       	lsr	r25
     d2a:	87 95       	ror	r24
     d2c:	77 95       	ror	r23
     d2e:	67 95       	ror	r22
     d30:	2a 95       	dec	r18
     d32:	d1 f7       	brne	.-12     	; 0xd28 <Peripherals_Vin_Sense_Sample+0x34>
     d34:	60 93 27 01 	sts	0x0127, r22
     d38:	70 93 28 01 	sts	0x0128, r23
     d3c:	80 93 29 01 	sts	0x0129, r24
     d40:	90 93 2a 01 	sts	0x012A, r25
     d44:	80 91 24 01 	lds	r24, 0x0124
     d48:	8e 7f       	andi	r24, 0xFE	; 254
     d4a:	80 93 24 01 	sts	0x0124, r24
     d4e:	08 95       	ret

00000d50 <Peripherals_Vin_RawADC_Get>:
     d50:	80 91 25 01 	lds	r24, 0x0125
     d54:	90 91 26 01 	lds	r25, 0x0126
     d58:	08 95       	ret

00000d5a <Peripherals_Vin_Get>:
     d5a:	80 91 27 01 	lds	r24, 0x0127
     d5e:	90 91 28 01 	lds	r25, 0x0128
     d62:	08 95       	ret

00000d64 <Peripherals_Analog_Temp_Get>:
     d64:	80 e0       	ldi	r24, 0x00	; 0
     d66:	90 e0       	ldi	r25, 0x00	; 0
     d68:	08 95       	ret

00000d6a <Peripherals_Digital_RH_Get>:
     d6a:	0e 94 4e 09 	call	0x129c	; 0x129c <Sensors_HDC1080_RH_Get>
     d6e:	08 95       	ret

00000d70 <Peripherals_Digital_Temp_Get>:
     d70:	0e 94 49 09 	call	0x1292	; 0x1292 <Sensors_HDC1080_Temp_Get>
     d74:	08 95       	ret

00000d76 <RGB_Init>:
     d76:	55 9a       	sbi	0x0a, 5	; 10
     d78:	56 9a       	sbi	0x0a, 6	; 10
     d7a:	56 9a       	sbi	0x0a, 6	; 10
     d7c:	5d 9a       	sbi	0x0b, 5	; 11
     d7e:	5e 9a       	sbi	0x0b, 6	; 11
     d80:	5f 9a       	sbi	0x0b, 7	; 11
     d82:	08 95       	ret

00000d84 <RGB_Set_State>:
     d84:	81 30       	cpi	r24, 0x01	; 1
     d86:	11 f4       	brne	.+4      	; 0xd8c <RGB_Set_State+0x8>
     d88:	5d 98       	cbi	0x0b, 5	; 11
     d8a:	01 c0       	rjmp	.+2      	; 0xd8e <RGB_Set_State+0xa>
     d8c:	5d 9a       	sbi	0x0b, 5	; 11
     d8e:	61 30       	cpi	r22, 0x01	; 1
     d90:	11 f4       	brne	.+4      	; 0xd96 <RGB_Set_State+0x12>
     d92:	5e 98       	cbi	0x0b, 6	; 11
     d94:	01 c0       	rjmp	.+2      	; 0xd98 <RGB_Set_State+0x14>
     d96:	5e 9a       	sbi	0x0b, 6	; 11
     d98:	41 30       	cpi	r20, 0x01	; 1
     d9a:	11 f4       	brne	.+4      	; 0xda0 <RGB_Set_State+0x1c>
     d9c:	5f 98       	cbi	0x0b, 7	; 11
     d9e:	08 95       	ret
     da0:	5f 9a       	sbi	0x0b, 7	; 11
     da2:	08 95       	ret

00000da4 <Sensors_HDC1080_Struct_Init>:
     da4:	10 92 d6 06 	sts	0x06D6, r1
     da8:	10 92 da 06 	sts	0x06DA, r1
     dac:	10 92 dc 06 	sts	0x06DC, r1
     db0:	10 92 db 06 	sts	0x06DB, r1
     db4:	10 92 de 06 	sts	0x06DE, r1
     db8:	10 92 dd 06 	sts	0x06DD, r1
     dbc:	10 92 e0 06 	sts	0x06E0, r1
     dc0:	10 92 df 06 	sts	0x06DF, r1
     dc4:	10 92 e1 06 	sts	0x06E1, r1
     dc8:	10 92 e2 06 	sts	0x06E2, r1
     dcc:	10 92 e3 06 	sts	0x06E3, r1
     dd0:	10 92 ce 06 	sts	0x06CE, r1
     dd4:	10 92 cf 06 	sts	0x06CF, r1
     dd8:	10 92 d0 06 	sts	0x06D0, r1
     ddc:	10 92 d1 06 	sts	0x06D1, r1
     de0:	10 92 d2 06 	sts	0x06D2, r1
     de4:	10 92 d3 06 	sts	0x06D3, r1
     de8:	10 92 d4 06 	sts	0x06D4, r1
     dec:	10 92 d5 06 	sts	0x06D5, r1
     df0:	08 95       	ret

00000df2 <Sensors_Init>:
     df2:	0e 94 d2 06 	call	0xda4	; 0xda4 <Sensors_HDC1080_Struct_Init>
     df6:	5b 9a       	sbi	0x0b, 3	; 11
     df8:	53 9a       	sbi	0x0a, 3	; 10
     dfa:	45 98       	cbi	0x08, 5	; 8
     dfc:	3d 98       	cbi	0x07, 5	; 7
     dfe:	44 98       	cbi	0x08, 4	; 8
     e00:	3c 98       	cbi	0x07, 4	; 7
     e02:	08 95       	ret

00000e04 <Sensors_I2C_SCL_State_Set>:
     e04:	81 30       	cpi	r24, 0x01	; 1
     e06:	21 f4       	brne	.+8      	; 0xe10 <Sensors_I2C_SCL_State_Set+0xc>
     e08:	3d 98       	cbi	0x07, 5	; 7
     e0a:	80 93 d8 06 	sts	0x06D8, r24
     e0e:	08 95       	ret
     e10:	88 23       	and	r24, r24
     e12:	19 f4       	brne	.+6      	; 0xe1a <Sensors_I2C_SCL_State_Set+0x16>
     e14:	3d 9a       	sbi	0x07, 5	; 7
     e16:	10 92 d8 06 	sts	0x06D8, r1
     e1a:	08 95       	ret

00000e1c <Sensors_I2C_SDA_State_Set>:
     e1c:	81 30       	cpi	r24, 0x01	; 1
     e1e:	21 f4       	brne	.+8      	; 0xe28 <Sensors_I2C_SDA_State_Set+0xc>
     e20:	3c 98       	cbi	0x07, 4	; 7
     e22:	80 93 d9 06 	sts	0x06D9, r24
     e26:	08 95       	ret
     e28:	88 23       	and	r24, r24
     e2a:	19 f4       	brne	.+6      	; 0xe32 <Sensors_I2C_SDA_State_Set+0x16>
     e2c:	3c 9a       	sbi	0x07, 4	; 7
     e2e:	10 92 d9 06 	sts	0x06D9, r1
     e32:	08 95       	ret

00000e34 <Sensors_I2C_SDA_State_Get>:
     e34:	3c 9b       	sbis	0x07, 4	; 7
     e36:	04 c0       	rjmp	.+8      	; 0xe40 <Sensors_I2C_SDA_State_Get+0xc>
     e38:	3c 98       	cbi	0x07, 4	; 7
     e3a:	86 e0       	ldi	r24, 0x06	; 6
     e3c:	8a 95       	dec	r24
     e3e:	f1 f7       	brne	.-4      	; 0xe3c <Sensors_I2C_SDA_State_Get+0x8>
     e40:	86 b1       	in	r24, 0x06	; 6
     e42:	90 e0       	ldi	r25, 0x00	; 0
     e44:	24 e0       	ldi	r18, 0x04	; 4
     e46:	96 95       	lsr	r25
     e48:	87 95       	ror	r24
     e4a:	2a 95       	dec	r18
     e4c:	e1 f7       	brne	.-8      	; 0xe46 <Sensors_I2C_SDA_State_Get+0x12>
     e4e:	81 70       	andi	r24, 0x01	; 1
     e50:	08 95       	ret

00000e52 <Sensors_I2C_Bus_Idle>:
     e52:	3d 9b       	sbis	0x07, 5	; 7
     e54:	02 c0       	rjmp	.+4      	; 0xe5a <Sensors_I2C_Bus_Idle+0x8>
     e56:	80 e0       	ldi	r24, 0x00	; 0
     e58:	08 95       	ret
     e5a:	87 b1       	in	r24, 0x07	; 7
     e5c:	82 95       	swap	r24
     e5e:	8f 70       	andi	r24, 0x0F	; 15
     e60:	80 95       	com	r24
     e62:	81 70       	andi	r24, 0x01	; 1
     e64:	08 95       	ret

00000e66 <Sensors_HDC1080_I2C_Start>:
     e66:	1f 93       	push	r17
     e68:	80 91 e2 06 	lds	r24, 0x06E2
     e6c:	88 23       	and	r24, r24
     e6e:	c1 f4       	brne	.+48     	; 0xea0 <Sensors_HDC1080_I2C_Start+0x3a>
     e70:	81 e0       	ldi	r24, 0x01	; 1
     e72:	0e 94 02 07 	call	0xe04	; 0xe04 <Sensors_I2C_SCL_State_Set>
     e76:	16 e0       	ldi	r17, 0x06	; 6
     e78:	81 2f       	mov	r24, r17
     e7a:	8a 95       	dec	r24
     e7c:	f1 f7       	brne	.-4      	; 0xe7a <Sensors_HDC1080_I2C_Start+0x14>
     e7e:	81 e0       	ldi	r24, 0x01	; 1
     e80:	0e 94 0e 07 	call	0xe1c	; 0xe1c <Sensors_I2C_SDA_State_Set>
     e84:	81 2f       	mov	r24, r17
     e86:	8a 95       	dec	r24
     e88:	f1 f7       	brne	.-4      	; 0xe86 <Sensors_HDC1080_I2C_Start+0x20>
     e8a:	80 e0       	ldi	r24, 0x00	; 0
     e8c:	0e 94 0e 07 	call	0xe1c	; 0xe1c <Sensors_I2C_SDA_State_Set>
     e90:	81 2f       	mov	r24, r17
     e92:	8a 95       	dec	r24
     e94:	f1 f7       	brne	.-4      	; 0xe92 <Sensors_HDC1080_I2C_Start+0x2c>
     e96:	80 e0       	ldi	r24, 0x00	; 0
     e98:	0e 94 02 07 	call	0xe04	; 0xe04 <Sensors_I2C_SCL_State_Set>
     e9c:	1a 95       	dec	r17
     e9e:	f1 f7       	brne	.-4      	; 0xe9c <Sensors_HDC1080_I2C_Start+0x36>
     ea0:	1f 91       	pop	r17
     ea2:	08 95       	ret

00000ea4 <Sensors_HDC1080_I2C_Stop>:
     ea4:	1f 93       	push	r17
     ea6:	80 91 e2 06 	lds	r24, 0x06E2
     eaa:	88 23       	and	r24, r24
     eac:	d9 f4       	brne	.+54     	; 0xee4 <Sensors_HDC1080_I2C_Stop+0x40>
     eae:	3d 99       	sbic	0x07, 5	; 7
     eb0:	05 c0       	rjmp	.+10     	; 0xebc <Sensors_HDC1080_I2C_Stop+0x18>
     eb2:	0e 94 02 07 	call	0xe04	; 0xe04 <Sensors_I2C_SCL_State_Set>
     eb6:	82 e0       	ldi	r24, 0x02	; 2
     eb8:	8a 95       	dec	r24
     eba:	f1 f7       	brne	.-4      	; 0xeb8 <Sensors_HDC1080_I2C_Stop+0x14>
     ebc:	3c 99       	sbic	0x07, 4	; 7
     ebe:	06 c0       	rjmp	.+12     	; 0xecc <Sensors_HDC1080_I2C_Stop+0x28>
     ec0:	80 e0       	ldi	r24, 0x00	; 0
     ec2:	0e 94 0e 07 	call	0xe1c	; 0xe1c <Sensors_I2C_SDA_State_Set>
     ec6:	82 e0       	ldi	r24, 0x02	; 2
     ec8:	8a 95       	dec	r24
     eca:	f1 f7       	brne	.-4      	; 0xec8 <Sensors_HDC1080_I2C_Stop+0x24>
     ecc:	81 e0       	ldi	r24, 0x01	; 1
     ece:	0e 94 02 07 	call	0xe04	; 0xe04 <Sensors_I2C_SCL_State_Set>
     ed2:	16 e0       	ldi	r17, 0x06	; 6
     ed4:	81 2f       	mov	r24, r17
     ed6:	8a 95       	dec	r24
     ed8:	f1 f7       	brne	.-4      	; 0xed6 <Sensors_HDC1080_I2C_Stop+0x32>
     eda:	81 e0       	ldi	r24, 0x01	; 1
     edc:	0e 94 0e 07 	call	0xe1c	; 0xe1c <Sensors_I2C_SDA_State_Set>
     ee0:	1a 95       	dec	r17
     ee2:	f1 f7       	brne	.-4      	; 0xee0 <Sensors_HDC1080_I2C_Stop+0x3c>
     ee4:	1f 91       	pop	r17
     ee6:	08 95       	ret

00000ee8 <Sensors_HDC1080_I2C_Forced_Stop>:
     ee8:	1f 93       	push	r17
     eea:	80 91 e2 06 	lds	r24, 0x06E2
     eee:	88 23       	and	r24, r24
     ef0:	d9 f0       	breq	.+54     	; 0xf28 <Sensors_HDC1080_I2C_Forced_Stop+0x40>
     ef2:	0e 94 29 07 	call	0xe52	; 0xe52 <Sensors_I2C_Bus_Idle>
     ef6:	88 23       	and	r24, r24
     ef8:	b9 f4       	brne	.+46     	; 0xf28 <Sensors_HDC1080_I2C_Forced_Stop+0x40>
     efa:	0e 94 02 07 	call	0xe04	; 0xe04 <Sensors_I2C_SCL_State_Set>
     efe:	12 e0       	ldi	r17, 0x02	; 2
     f00:	81 2f       	mov	r24, r17
     f02:	8a 95       	dec	r24
     f04:	f1 f7       	brne	.-4      	; 0xf02 <Sensors_HDC1080_I2C_Forced_Stop+0x1a>
     f06:	80 e0       	ldi	r24, 0x00	; 0
     f08:	0e 94 0e 07 	call	0xe1c	; 0xe1c <Sensors_I2C_SDA_State_Set>
     f0c:	1a 95       	dec	r17
     f0e:	f1 f7       	brne	.-4      	; 0xf0c <Sensors_HDC1080_I2C_Forced_Stop+0x24>
     f10:	81 e0       	ldi	r24, 0x01	; 1
     f12:	0e 94 02 07 	call	0xe04	; 0xe04 <Sensors_I2C_SCL_State_Set>
     f16:	16 e0       	ldi	r17, 0x06	; 6
     f18:	81 2f       	mov	r24, r17
     f1a:	8a 95       	dec	r24
     f1c:	f1 f7       	brne	.-4      	; 0xf1a <Sensors_HDC1080_I2C_Forced_Stop+0x32>
     f1e:	81 e0       	ldi	r24, 0x01	; 1
     f20:	0e 94 0e 07 	call	0xe1c	; 0xe1c <Sensors_I2C_SDA_State_Set>
     f24:	1a 95       	dec	r17
     f26:	f1 f7       	brne	.-4      	; 0xf24 <Sensors_HDC1080_I2C_Forced_Stop+0x3c>
     f28:	1f 91       	pop	r17
     f2a:	08 95       	ret

00000f2c <Sensors_HDC1080_I2C_Send>:
     f2c:	ff 92       	push	r15
     f2e:	0f 93       	push	r16
     f30:	1f 93       	push	r17
     f32:	08 2f       	mov	r16, r24
     f34:	80 91 e2 06 	lds	r24, 0x06E2
     f38:	88 23       	and	r24, r24
     f3a:	f1 f4       	brne	.+60     	; 0xf78 <Sensors_HDC1080_I2C_Send+0x4c>
     f3c:	10 e0       	ldi	r17, 0x00	; 0
     f3e:	36 e0       	ldi	r19, 0x06	; 6
     f40:	f3 2e       	mov	r15, r19
     f42:	07 ff       	sbrs	r16, 7
     f44:	02 c0       	rjmp	.+4      	; 0xf4a <Sensors_HDC1080_I2C_Send+0x1e>
     f46:	81 e0       	ldi	r24, 0x01	; 1
     f48:	01 c0       	rjmp	.+2      	; 0xf4c <Sensors_HDC1080_I2C_Send+0x20>
     f4a:	80 e0       	ldi	r24, 0x00	; 0
     f4c:	0e 94 0e 07 	call	0xe1c	; 0xe1c <Sensors_I2C_SDA_State_Set>
     f50:	8f 2d       	mov	r24, r15
     f52:	8a 95       	dec	r24
     f54:	f1 f7       	brne	.-4      	; 0xf52 <Sensors_HDC1080_I2C_Send+0x26>
     f56:	81 e0       	ldi	r24, 0x01	; 1
     f58:	0e 94 02 07 	call	0xe04	; 0xe04 <Sensors_I2C_SCL_State_Set>
     f5c:	8f 2d       	mov	r24, r15
     f5e:	8a 95       	dec	r24
     f60:	f1 f7       	brne	.-4      	; 0xf5e <Sensors_HDC1080_I2C_Send+0x32>
     f62:	80 e0       	ldi	r24, 0x00	; 0
     f64:	0e 94 02 07 	call	0xe04	; 0xe04 <Sensors_I2C_SCL_State_Set>
     f68:	8f 2d       	mov	r24, r15
     f6a:	8a 95       	dec	r24
     f6c:	f1 f7       	brne	.-4      	; 0xf6a <Sensors_HDC1080_I2C_Send+0x3e>
     f6e:	1f 5f       	subi	r17, 0xFF	; 255
     f70:	18 30       	cpi	r17, 0x08	; 8
     f72:	11 f0       	breq	.+4      	; 0xf78 <Sensors_HDC1080_I2C_Send+0x4c>
     f74:	00 0f       	add	r16, r16
     f76:	e5 cf       	rjmp	.-54     	; 0xf42 <Sensors_HDC1080_I2C_Send+0x16>
     f78:	1f 91       	pop	r17
     f7a:	0f 91       	pop	r16
     f7c:	ff 90       	pop	r15
     f7e:	08 95       	ret

00000f80 <Sensors_HDC1080_I2C_Receive>:
     f80:	ff 92       	push	r15
     f82:	0f 93       	push	r16
     f84:	1f 93       	push	r17
     f86:	80 91 e2 06 	lds	r24, 0x06E2
     f8a:	88 23       	and	r24, r24
     f8c:	11 f0       	breq	.+4      	; 0xf92 <Sensors_HDC1080_I2C_Receive+0x12>
     f8e:	10 e0       	ldi	r17, 0x00	; 0
     f90:	1f c0       	rjmp	.+62     	; 0xfd0 <Sensors_HDC1080_I2C_Receive+0x50>
     f92:	81 e0       	ldi	r24, 0x01	; 1
     f94:	0e 94 0e 07 	call	0xe1c	; 0xe1c <Sensors_I2C_SDA_State_Set>
     f98:	86 e0       	ldi	r24, 0x06	; 6
     f9a:	8a 95       	dec	r24
     f9c:	f1 f7       	brne	.-4      	; 0xf9a <Sensors_HDC1080_I2C_Receive+0x1a>
     f9e:	10 e0       	ldi	r17, 0x00	; 0
     fa0:	00 e0       	ldi	r16, 0x00	; 0
     fa2:	46 e0       	ldi	r20, 0x06	; 6
     fa4:	f4 2e       	mov	r15, r20
     fa6:	11 0f       	add	r17, r17
     fa8:	0e 94 1a 07 	call	0xe34	; 0xe34 <Sensors_I2C_SDA_State_Get>
     fac:	81 30       	cpi	r24, 0x01	; 1
     fae:	09 f4       	brne	.+2      	; 0xfb2 <Sensors_HDC1080_I2C_Receive+0x32>
     fb0:	11 60       	ori	r17, 0x01	; 1
     fb2:	81 e0       	ldi	r24, 0x01	; 1
     fb4:	0e 94 02 07 	call	0xe04	; 0xe04 <Sensors_I2C_SCL_State_Set>
     fb8:	8f 2d       	mov	r24, r15
     fba:	8a 95       	dec	r24
     fbc:	f1 f7       	brne	.-4      	; 0xfba <Sensors_HDC1080_I2C_Receive+0x3a>
     fbe:	80 e0       	ldi	r24, 0x00	; 0
     fc0:	0e 94 02 07 	call	0xe04	; 0xe04 <Sensors_I2C_SCL_State_Set>
     fc4:	8f 2d       	mov	r24, r15
     fc6:	8a 95       	dec	r24
     fc8:	f1 f7       	brne	.-4      	; 0xfc6 <Sensors_HDC1080_I2C_Receive+0x46>
     fca:	0f 5f       	subi	r16, 0xFF	; 255
     fcc:	08 30       	cpi	r16, 0x08	; 8
     fce:	59 f7       	brne	.-42     	; 0xfa6 <Sensors_HDC1080_I2C_Receive+0x26>
     fd0:	81 2f       	mov	r24, r17
     fd2:	1f 91       	pop	r17
     fd4:	0f 91       	pop	r16
     fd6:	ff 90       	pop	r15
     fd8:	08 95       	ret

00000fda <Sensors_HDC1080_I2C_Check_Ack>:
     fda:	1f 93       	push	r17
     fdc:	80 91 e2 06 	lds	r24, 0x06E2
     fe0:	88 23       	and	r24, r24
     fe2:	f9 f4       	brne	.+62     	; 0x1022 <Sensors_HDC1080_I2C_Check_Ack+0x48>
     fe4:	81 e0       	ldi	r24, 0x01	; 1
     fe6:	0e 94 0e 07 	call	0xe1c	; 0xe1c <Sensors_I2C_SDA_State_Set>
     fea:	12 e0       	ldi	r17, 0x02	; 2
     fec:	81 2f       	mov	r24, r17
     fee:	8a 95       	dec	r24
     ff0:	f1 f7       	brne	.-4      	; 0xfee <Sensors_HDC1080_I2C_Check_Ack+0x14>
     ff2:	81 e0       	ldi	r24, 0x01	; 1
     ff4:	0e 94 02 07 	call	0xe04	; 0xe04 <Sensors_I2C_SCL_State_Set>
     ff8:	1a 95       	dec	r17
     ffa:	f1 f7       	brne	.-4      	; 0xff8 <Sensors_HDC1080_I2C_Check_Ack+0x1e>
     ffc:	0e 94 1a 07 	call	0xe34	; 0xe34 <Sensors_I2C_SDA_State_Get>
    1000:	88 23       	and	r24, r24
    1002:	21 f4       	brne	.+8      	; 0x100c <Sensors_HDC1080_I2C_Check_Ack+0x32>
    1004:	81 e0       	ldi	r24, 0x01	; 1
    1006:	80 93 d7 06 	sts	0x06D7, r24
    100a:	02 c0       	rjmp	.+4      	; 0x1010 <Sensors_HDC1080_I2C_Check_Ack+0x36>
    100c:	10 92 d7 06 	sts	0x06D7, r1
    1010:	12 e0       	ldi	r17, 0x02	; 2
    1012:	81 2f       	mov	r24, r17
    1014:	8a 95       	dec	r24
    1016:	f1 f7       	brne	.-4      	; 0x1014 <Sensors_HDC1080_I2C_Check_Ack+0x3a>
    1018:	80 e0       	ldi	r24, 0x00	; 0
    101a:	0e 94 02 07 	call	0xe04	; 0xe04 <Sensors_I2C_SCL_State_Set>
    101e:	1a 95       	dec	r17
    1020:	f1 f7       	brne	.-4      	; 0x101e <Sensors_HDC1080_I2C_Check_Ack+0x44>
    1022:	1f 91       	pop	r17
    1024:	08 95       	ret

00001026 <Sensors_HDC1080_I2C_Send_Ack>:
    1026:	1f 93       	push	r17
    1028:	80 91 e2 06 	lds	r24, 0x06E2
    102c:	88 23       	and	r24, r24
    102e:	a1 f4       	brne	.+40     	; 0x1058 <Sensors_HDC1080_I2C_Send_Ack+0x32>
    1030:	0e 94 0e 07 	call	0xe1c	; 0xe1c <Sensors_I2C_SDA_State_Set>
    1034:	12 e0       	ldi	r17, 0x02	; 2
    1036:	81 2f       	mov	r24, r17
    1038:	8a 95       	dec	r24
    103a:	f1 f7       	brne	.-4      	; 0x1038 <Sensors_HDC1080_I2C_Send_Ack+0x12>
    103c:	81 e0       	ldi	r24, 0x01	; 1
    103e:	0e 94 02 07 	call	0xe04	; 0xe04 <Sensors_I2C_SCL_State_Set>
    1042:	81 2f       	mov	r24, r17
    1044:	8a 95       	dec	r24
    1046:	f1 f7       	brne	.-4      	; 0x1044 <Sensors_HDC1080_I2C_Send_Ack+0x1e>
    1048:	81 2f       	mov	r24, r17
    104a:	8a 95       	dec	r24
    104c:	f1 f7       	brne	.-4      	; 0x104a <Sensors_HDC1080_I2C_Send_Ack+0x24>
    104e:	80 e0       	ldi	r24, 0x00	; 0
    1050:	0e 94 02 07 	call	0xe04	; 0xe04 <Sensors_I2C_SCL_State_Set>
    1054:	1a 95       	dec	r17
    1056:	f1 f7       	brne	.-4      	; 0x1054 <Sensors_HDC1080_I2C_Send_Ack+0x2e>
    1058:	1f 91       	pop	r17
    105a:	08 95       	ret

0000105c <Sensors_HDC1080_Slave_Addr_Send>:
    105c:	0f 93       	push	r16
    105e:	1f 93       	push	r17
    1060:	08 2f       	mov	r16, r24
    1062:	10 e0       	ldi	r17, 0x00	; 0
    1064:	0e 94 33 07 	call	0xe66	; 0xe66 <Sensors_HDC1080_I2C_Start>
    1068:	80 2f       	mov	r24, r16
    106a:	0e 94 96 07 	call	0xf2c	; 0xf2c <Sensors_HDC1080_I2C_Send>
    106e:	0e 94 ed 07 	call	0xfda	; 0xfda <Sensors_HDC1080_I2C_Check_Ack>
    1072:	80 91 d7 06 	lds	r24, 0x06D7
    1076:	88 23       	and	r24, r24
    1078:	11 f0       	breq	.+4      	; 0x107e <Sensors_HDC1080_Slave_Addr_Send+0x22>
    107a:	81 e0       	ldi	r24, 0x01	; 1
    107c:	09 c0       	rjmp	.+18     	; 0x1090 <Sensors_HDC1080_Slave_Addr_Send+0x34>
    107e:	0e 94 52 07 	call	0xea4	; 0xea4 <Sensors_HDC1080_I2C_Stop>
    1082:	1f 5f       	subi	r17, 0xFF	; 255
    1084:	1f 31       	cpi	r17, 0x1F	; 31
    1086:	71 f7       	brne	.-36     	; 0x1064 <Sensors_HDC1080_Slave_Addr_Send+0x8>
    1088:	81 e0       	ldi	r24, 0x01	; 1
    108a:	80 93 e2 06 	sts	0x06E2, r24
    108e:	80 e0       	ldi	r24, 0x00	; 0
    1090:	1f 91       	pop	r17
    1092:	0f 91       	pop	r16
    1094:	08 95       	ret

00001096 <Sensors_HDC1080_Config>:
    1096:	ff 92       	push	r15
    1098:	0f 93       	push	r16
    109a:	1f 93       	push	r17
    109c:	18 2f       	mov	r17, r24
    109e:	80 e8       	ldi	r24, 0x80	; 128
    10a0:	0e 94 2e 08 	call	0x105c	; 0x105c <Sensors_HDC1080_Slave_Addr_Send>
    10a4:	82 e0       	ldi	r24, 0x02	; 2
    10a6:	0e 94 96 07 	call	0xf2c	; 0xf2c <Sensors_HDC1080_I2C_Send>
    10aa:	0e 94 ed 07 	call	0xfda	; 0xfda <Sensors_HDC1080_I2C_Check_Ack>
    10ae:	f0 90 d7 06 	lds	r15, 0x06D7
    10b2:	81 2f       	mov	r24, r17
    10b4:	0e 94 96 07 	call	0xf2c	; 0xf2c <Sensors_HDC1080_I2C_Send>
    10b8:	0e 94 ed 07 	call	0xfda	; 0xfda <Sensors_HDC1080_I2C_Check_Ack>
    10bc:	00 91 d7 06 	lds	r16, 0x06D7
    10c0:	80 e0       	ldi	r24, 0x00	; 0
    10c2:	0e 94 96 07 	call	0xf2c	; 0xf2c <Sensors_HDC1080_I2C_Send>
    10c6:	0e 94 ed 07 	call	0xfda	; 0xfda <Sensors_HDC1080_I2C_Check_Ack>
    10ca:	10 91 d7 06 	lds	r17, 0x06D7
    10ce:	0e 94 52 07 	call	0xea4	; 0xea4 <Sensors_HDC1080_I2C_Stop>
    10d2:	80 91 e2 06 	lds	r24, 0x06E2
    10d6:	88 23       	and	r24, r24
    10d8:	51 f4       	brne	.+20     	; 0x10ee <Sensors_HDC1080_Config+0x58>
    10da:	00 0f       	add	r16, r16
    10dc:	11 0f       	add	r17, r17
    10de:	11 0f       	add	r17, r17
    10e0:	10 2b       	or	r17, r16
    10e2:	1f 29       	or	r17, r15
    10e4:	17 30       	cpi	r17, 0x07	; 7
    10e6:	19 f0       	breq	.+6      	; 0x10ee <Sensors_HDC1080_Config+0x58>
    10e8:	85 e0       	ldi	r24, 0x05	; 5
    10ea:	80 93 e2 06 	sts	0x06E2, r24
    10ee:	1f 91       	pop	r17
    10f0:	0f 91       	pop	r16
    10f2:	ff 90       	pop	r15
    10f4:	08 95       	ret

000010f6 <Sensors_Sample_Temp_RH>:
    10f6:	ef 92       	push	r14
    10f8:	ff 92       	push	r15
    10fa:	0f 93       	push	r16
    10fc:	1f 93       	push	r17
    10fe:	5b 98       	cbi	0x0b, 3	; 11
    1100:	80 e2       	ldi	r24, 0x20	; 32
    1102:	9e e4       	ldi	r25, 0x4E	; 78
    1104:	01 97       	sbiw	r24, 0x01	; 1
    1106:	f1 f7       	brne	.-4      	; 0x1104 <Sensors_Sample_Temp_RH+0xe>
    1108:	10 92 e2 06 	sts	0x06E2, r1
    110c:	80 e0       	ldi	r24, 0x00	; 0
    110e:	0e 94 4b 08 	call	0x1096	; 0x1096 <Sensors_HDC1080_Config>
    1112:	0e 94 33 07 	call	0xe66	; 0xe66 <Sensors_HDC1080_I2C_Start>
    1116:	80 e8       	ldi	r24, 0x80	; 128
    1118:	0e 94 96 07 	call	0xf2c	; 0xf2c <Sensors_HDC1080_I2C_Send>
    111c:	0e 94 ed 07 	call	0xfda	; 0xfda <Sensors_HDC1080_I2C_Check_Ack>
    1120:	00 91 d7 06 	lds	r16, 0x06D7
    1124:	80 e0       	ldi	r24, 0x00	; 0
    1126:	0e 94 96 07 	call	0xf2c	; 0xf2c <Sensors_HDC1080_I2C_Send>
    112a:	0e 94 ed 07 	call	0xfda	; 0xfda <Sensors_HDC1080_I2C_Check_Ack>
    112e:	10 91 d7 06 	lds	r17, 0x06D7
    1132:	0e 94 52 07 	call	0xea4	; 0xea4 <Sensors_HDC1080_I2C_Stop>
    1136:	80 91 e2 06 	lds	r24, 0x06E2
    113a:	88 23       	and	r24, r24
    113c:	39 f4       	brne	.+14     	; 0x114c <Sensors_Sample_Temp_RH+0x56>
    113e:	11 0f       	add	r17, r17
    1140:	10 2b       	or	r17, r16
    1142:	13 30       	cpi	r17, 0x03	; 3
    1144:	19 f0       	breq	.+6      	; 0x114c <Sensors_Sample_Temp_RH+0x56>
    1146:	86 e0       	ldi	r24, 0x06	; 6
    1148:	80 93 e2 06 	sts	0x06E2, r24
    114c:	80 e7       	ldi	r24, 0x70	; 112
    114e:	97 e1       	ldi	r25, 0x17	; 23
    1150:	01 97       	sbiw	r24, 0x01	; 1
    1152:	f1 f7       	brne	.-4      	; 0x1150 <Sensors_Sample_Temp_RH+0x5a>
    1154:	81 e8       	ldi	r24, 0x81	; 129
    1156:	0e 94 2e 08 	call	0x105c	; 0x105c <Sensors_HDC1080_Slave_Addr_Send>
    115a:	0e 94 c0 07 	call	0xf80	; 0xf80 <Sensors_HDC1080_I2C_Receive>
    115e:	e8 2e       	mov	r14, r24
    1160:	0e 94 13 08 	call	0x1026	; 0x1026 <Sensors_HDC1080_I2C_Send_Ack>
    1164:	0e 94 c0 07 	call	0xf80	; 0xf80 <Sensors_HDC1080_I2C_Receive>
    1168:	f8 2e       	mov	r15, r24
    116a:	0e 94 ed 07 	call	0xfda	; 0xfda <Sensors_HDC1080_I2C_Check_Ack>
    116e:	0e 94 52 07 	call	0xea4	; 0xea4 <Sensors_HDC1080_I2C_Stop>
    1172:	0e 94 33 07 	call	0xe66	; 0xe66 <Sensors_HDC1080_I2C_Start>
    1176:	80 e8       	ldi	r24, 0x80	; 128
    1178:	0e 94 96 07 	call	0xf2c	; 0xf2c <Sensors_HDC1080_I2C_Send>
    117c:	0e 94 ed 07 	call	0xfda	; 0xfda <Sensors_HDC1080_I2C_Check_Ack>
    1180:	00 91 d7 06 	lds	r16, 0x06D7
    1184:	81 e0       	ldi	r24, 0x01	; 1
    1186:	0e 94 96 07 	call	0xf2c	; 0xf2c <Sensors_HDC1080_I2C_Send>
    118a:	0e 94 ed 07 	call	0xfda	; 0xfda <Sensors_HDC1080_I2C_Check_Ack>
    118e:	10 91 d7 06 	lds	r17, 0x06D7
    1192:	0e 94 52 07 	call	0xea4	; 0xea4 <Sensors_HDC1080_I2C_Stop>
    1196:	80 91 e2 06 	lds	r24, 0x06E2
    119a:	88 23       	and	r24, r24
    119c:	39 f4       	brne	.+14     	; 0x11ac <Sensors_Sample_Temp_RH+0xb6>
    119e:	11 0f       	add	r17, r17
    11a0:	10 2b       	or	r17, r16
    11a2:	13 30       	cpi	r17, 0x03	; 3
    11a4:	19 f0       	breq	.+6      	; 0x11ac <Sensors_Sample_Temp_RH+0xb6>
    11a6:	87 e0       	ldi	r24, 0x07	; 7
    11a8:	80 93 e2 06 	sts	0x06E2, r24
    11ac:	80 e7       	ldi	r24, 0x70	; 112
    11ae:	97 e1       	ldi	r25, 0x17	; 23
    11b0:	01 97       	sbiw	r24, 0x01	; 1
    11b2:	f1 f7       	brne	.-4      	; 0x11b0 <Sensors_Sample_Temp_RH+0xba>
    11b4:	81 e8       	ldi	r24, 0x81	; 129
    11b6:	0e 94 2e 08 	call	0x105c	; 0x105c <Sensors_HDC1080_Slave_Addr_Send>
    11ba:	0e 94 c0 07 	call	0xf80	; 0xf80 <Sensors_HDC1080_I2C_Receive>
    11be:	08 2f       	mov	r16, r24
    11c0:	0e 94 13 08 	call	0x1026	; 0x1026 <Sensors_HDC1080_I2C_Send_Ack>
    11c4:	0e 94 c0 07 	call	0xf80	; 0xf80 <Sensors_HDC1080_I2C_Receive>
    11c8:	18 2f       	mov	r17, r24
    11ca:	0e 94 ed 07 	call	0xfda	; 0xfda <Sensors_HDC1080_I2C_Check_Ack>
    11ce:	0e 94 52 07 	call	0xea4	; 0xea4 <Sensors_HDC1080_I2C_Stop>
    11d2:	0e 94 74 07 	call	0xee8	; 0xee8 <Sensors_HDC1080_I2C_Forced_Stop>
    11d6:	5b 9a       	sbi	0x0b, 3	; 11
    11d8:	80 91 e2 06 	lds	r24, 0x06E2
    11dc:	88 23       	and	r24, r24
    11de:	09 f0       	breq	.+2      	; 0x11e2 <Sensors_Sample_Temp_RH+0xec>
    11e0:	43 c0       	rjmp	.+134    	; 0x1268 <Sensors_Sample_Temp_RH+0x172>
    11e2:	6e 2d       	mov	r22, r14
    11e4:	70 e0       	ldi	r23, 0x00	; 0
    11e6:	80 e0       	ldi	r24, 0x00	; 0
    11e8:	90 e0       	ldi	r25, 0x00	; 0
    11ea:	98 2f       	mov	r25, r24
    11ec:	87 2f       	mov	r24, r23
    11ee:	76 2f       	mov	r23, r22
    11f0:	66 27       	eor	r22, r22
    11f2:	2f 2d       	mov	r18, r15
    11f4:	30 e0       	ldi	r19, 0x00	; 0
    11f6:	40 e0       	ldi	r20, 0x00	; 0
    11f8:	50 e0       	ldi	r21, 0x00	; 0
    11fa:	62 2b       	or	r22, r18
    11fc:	73 2b       	or	r23, r19
    11fe:	84 2b       	or	r24, r20
    1200:	95 2b       	or	r25, r21
    1202:	22 e7       	ldi	r18, 0x72	; 114
    1204:	36 e0       	ldi	r19, 0x06	; 6
    1206:	40 e0       	ldi	r20, 0x00	; 0
    1208:	50 e0       	ldi	r21, 0x00	; 0
    120a:	0e 94 48 0f 	call	0x1e90	; 0x1e90 <__mulsi3>
    120e:	2f ef       	ldi	r18, 0xFF	; 255
    1210:	3f ef       	ldi	r19, 0xFF	; 255
    1212:	40 e0       	ldi	r20, 0x00	; 0
    1214:	50 e0       	ldi	r21, 0x00	; 0
    1216:	0e 94 67 0f 	call	0x1ece	; 0x1ece <__udivmodsi4>
    121a:	20 59       	subi	r18, 0x90	; 144
    121c:	31 40       	sbci	r19, 0x01	; 1
    121e:	30 93 de 06 	sts	0x06DE, r19
    1222:	20 93 dd 06 	sts	0x06DD, r18
    1226:	60 2f       	mov	r22, r16
    1228:	70 e0       	ldi	r23, 0x00	; 0
    122a:	80 e0       	ldi	r24, 0x00	; 0
    122c:	90 e0       	ldi	r25, 0x00	; 0
    122e:	98 2f       	mov	r25, r24
    1230:	87 2f       	mov	r24, r23
    1232:	76 2f       	mov	r23, r22
    1234:	66 27       	eor	r22, r22
    1236:	21 2f       	mov	r18, r17
    1238:	30 e0       	ldi	r19, 0x00	; 0
    123a:	40 e0       	ldi	r20, 0x00	; 0
    123c:	50 e0       	ldi	r21, 0x00	; 0
    123e:	62 2b       	or	r22, r18
    1240:	73 2b       	or	r23, r19
    1242:	84 2b       	or	r24, r20
    1244:	95 2b       	or	r25, r21
    1246:	24 e6       	ldi	r18, 0x64	; 100
    1248:	30 e0       	ldi	r19, 0x00	; 0
    124a:	40 e0       	ldi	r20, 0x00	; 0
    124c:	50 e0       	ldi	r21, 0x00	; 0
    124e:	0e 94 48 0f 	call	0x1e90	; 0x1e90 <__mulsi3>
    1252:	2f ef       	ldi	r18, 0xFF	; 255
    1254:	3f ef       	ldi	r19, 0xFF	; 255
    1256:	40 e0       	ldi	r20, 0x00	; 0
    1258:	50 e0       	ldi	r21, 0x00	; 0
    125a:	0e 94 67 0f 	call	0x1ece	; 0x1ece <__udivmodsi4>
    125e:	30 93 e0 06 	sts	0x06E0, r19
    1262:	20 93 df 06 	sts	0x06DF, r18
    1266:	04 c0       	rjmp	.+8      	; 0x1270 <Sensors_Sample_Temp_RH+0x17a>
    1268:	80 93 e3 06 	sts	0x06E3, r24
    126c:	10 92 e2 06 	sts	0x06E2, r1
    1270:	1f 91       	pop	r17
    1272:	0f 91       	pop	r16
    1274:	ff 90       	pop	r15
    1276:	ef 90       	pop	r14
    1278:	08 95       	ret

0000127a <Sensors_HDC1080_Address_Get>:
    127a:	80 91 da 06 	lds	r24, 0x06DA
    127e:	08 95       	ret

00001280 <Sensors_HDC1080_Status_Get>:
    1280:	80 91 d6 06 	lds	r24, 0x06D6
    1284:	08 95       	ret

00001286 <Sensors_HDC1080_Error_Get>:
    1286:	80 91 e2 06 	lds	r24, 0x06E2
    128a:	08 95       	ret

0000128c <Sensors_HDC1080_Sticky_Error_Get>:
    128c:	80 91 e3 06 	lds	r24, 0x06E3
    1290:	08 95       	ret

00001292 <Sensors_HDC1080_Temp_Get>:
    1292:	80 91 dd 06 	lds	r24, 0x06DD
    1296:	90 91 de 06 	lds	r25, 0x06DE
    129a:	08 95       	ret

0000129c <Sensors_HDC1080_RH_Get>:
    129c:	80 91 df 06 	lds	r24, 0x06DF
    12a0:	90 91 e0 06 	lds	r25, 0x06E0
    12a4:	08 95       	ret

000012a6 <Sensors_NTC_Temp_Get>:
    12a6:	80 91 d2 06 	lds	r24, 0x06D2
    12aa:	90 91 d3 06 	lds	r25, 0x06D3
    12ae:	08 95       	ret

000012b0 <__vector_7>:
    12b0:	20 91 53 00 	lds	r18, 0x0053
    12b4:	2e 7f       	andi	r18, 0xFE	; 254
    12b6:	20 93 53 00 	sts	0x0053, r18
    12ba:	0f 92       	push	r0
    12bc:	0f b6       	in	r0, 0x3f	; 63
    12be:	0f 92       	push	r0
    12c0:	1f 92       	push	r1
    12c2:	11 24       	eor	r1, r1
    12c4:	2f 92       	push	r2
    12c6:	3f 92       	push	r3
    12c8:	4f 92       	push	r4
    12ca:	5f 92       	push	r5
    12cc:	6f 92       	push	r6
    12ce:	7f 92       	push	r7
    12d0:	8f 92       	push	r8
    12d2:	9f 92       	push	r9
    12d4:	af 92       	push	r10
    12d6:	bf 92       	push	r11
    12d8:	cf 92       	push	r12
    12da:	df 92       	push	r13
    12dc:	ef 92       	push	r14
    12de:	ff 92       	push	r15
    12e0:	0f 93       	push	r16
    12e2:	1f 93       	push	r17
    12e4:	2f 93       	push	r18
    12e6:	3f 93       	push	r19
    12e8:	4f 93       	push	r20
    12ea:	5f 93       	push	r21
    12ec:	6f 93       	push	r22
    12ee:	7f 93       	push	r23
    12f0:	8f 93       	push	r24
    12f2:	9f 93       	push	r25
    12f4:	af 93       	push	r26
    12f6:	bf 93       	push	r27
    12f8:	cf 93       	push	r28
    12fa:	df 93       	push	r29
    12fc:	ef 93       	push	r30
    12fe:	ff 93       	push	r31
    1300:	e3 e4       	ldi	r30, 0x43	; 67
    1302:	f1 e0       	ldi	r31, 0x01	; 1
    1304:	20 91 3a 01 	lds	r18, 0x013A
    1308:	22 0f       	add	r18, r18
    130a:	e2 0f       	add	r30, r18
    130c:	20 e0       	ldi	r18, 0x00	; 0
    130e:	f2 1f       	adc	r31, r18
    1310:	2d b7       	in	r18, 0x3d	; 61
    1312:	3e b7       	in	r19, 0x3e	; 62
    1314:	20 83       	st	Z, r18
    1316:	31 83       	std	Z+1, r19	; 0x01
    1318:	21 e0       	ldi	r18, 0x01	; 1
    131a:	30 91 33 01 	lds	r19, 0x0133
    131e:	32 0f       	add	r19, r18
    1320:	30 93 33 01 	sts	0x0133, r19
    1324:	20 e0       	ldi	r18, 0x00	; 0
    1326:	30 91 34 01 	lds	r19, 0x0134
    132a:	32 1f       	adc	r19, r18
    132c:	30 93 34 01 	sts	0x0134, r19
    1330:	30 91 35 01 	lds	r19, 0x0135
    1334:	32 1f       	adc	r19, r18
    1336:	30 93 35 01 	sts	0x0135, r19
    133a:	30 91 36 01 	lds	r19, 0x0136
    133e:	32 1f       	adc	r19, r18
    1340:	30 93 36 01 	sts	0x0136, r19
    1344:	30 91 37 01 	lds	r19, 0x0137
    1348:	32 1f       	adc	r19, r18
    134a:	30 93 37 01 	sts	0x0137, r19
    134e:	80 e0       	ldi	r24, 0x00	; 0
    1350:	2f ef       	ldi	r18, 0xFF	; 255
    1352:	20 93 3c 01 	sts	0x013C, r18
    1356:	20 e0       	ldi	r18, 0x00	; 0
    1358:	20 93 3d 01 	sts	0x013D, r18
    135c:	58 2f       	mov	r21, r24

0000135e <_KER_SCH_LOOP9>:
    135e:	20 93 3a 01 	sts	0x013A, r18
    1362:	85 2f       	mov	r24, r21
    1364:	e9 e7       	ldi	r30, 0x79	; 121
    1366:	f1 e0       	ldi	r31, 0x01	; 1
    1368:	20 91 3a 01 	lds	r18, 0x013A
    136c:	22 0f       	add	r18, r18
    136e:	e2 0f       	add	r30, r18
    1370:	20 e0       	ldi	r18, 0x00	; 0
    1372:	f2 1f       	adc	r31, r18
    1374:	20 81       	ld	r18, Z
    1376:	31 81       	ldd	r19, Z+1	; 0x01
    1378:	42 2f       	mov	r20, r18
    137a:	43 2b       	or	r20, r19
    137c:	59 f0       	breq	.+22     	; 0x1394 <_VAL_NULL10>
    137e:	81 30       	cpi	r24, 0x01	; 1
    1380:	99 f0       	breq	.+38     	; 0x13a8 <_VAL_NOT_NULL10>
    1382:	41 e0       	ldi	r20, 0x01	; 1
    1384:	24 1b       	sub	r18, r20
    1386:	40 e0       	ldi	r20, 0x00	; 0
    1388:	34 0b       	sbc	r19, r20
    138a:	20 83       	st	Z, r18
    138c:	31 83       	std	Z+1, r19	; 0x01
    138e:	42 2f       	mov	r20, r18
    1390:	43 2b       	or	r20, r19
    1392:	51 f4       	brne	.+20     	; 0x13a8 <_VAL_NOT_NULL10>

00001394 <_VAL_NULL10>:
    1394:	e5 e6       	ldi	r30, 0x65	; 101
    1396:	f1 e0       	ldi	r31, 0x01	; 1
    1398:	20 91 3a 01 	lds	r18, 0x013A
    139c:	e2 0f       	add	r30, r18
    139e:	20 e0       	ldi	r18, 0x00	; 0
    13a0:	f2 1f       	adc	r31, r18
    13a2:	81 e0       	ldi	r24, 0x01	; 1
    13a4:	80 83       	st	Z, r24
    13a6:	08 c0       	rjmp	.+16     	; 0x13b8 <_EXIT_SLP_TIME10>

000013a8 <_VAL_NOT_NULL10>:
    13a8:	e5 e6       	ldi	r30, 0x65	; 101
    13aa:	f1 e0       	ldi	r31, 0x01	; 1
    13ac:	20 91 3a 01 	lds	r18, 0x013A
    13b0:	e2 0f       	add	r30, r18
    13b2:	20 e0       	ldi	r18, 0x00	; 0
    13b4:	f2 1f       	adc	r31, r18
    13b6:	80 81       	ld	r24, Z

000013b8 <_EXIT_SLP_TIME10>:
    13b8:	81 30       	cpi	r24, 0x01	; 1
    13ba:	19 f0       	breq	.+6      	; 0x13c2 <_KER_CALC_PRIO9>
    13bc:	84 30       	cpi	r24, 0x04	; 4
    13be:	09 f0       	breq	.+2      	; 0x13c2 <_KER_CALC_PRIO9>
    13c0:	12 c0       	rjmp	.+36     	; 0x13e6 <_KER_SCH_NEXT9>

000013c2 <_KER_CALC_PRIO9>:
    13c2:	ef e6       	ldi	r30, 0x6F	; 111
    13c4:	f1 e0       	ldi	r31, 0x01	; 1
    13c6:	20 e0       	ldi	r18, 0x00	; 0
    13c8:	80 91 3a 01 	lds	r24, 0x013A
    13cc:	e8 0f       	add	r30, r24
    13ce:	f2 1f       	adc	r31, r18
    13d0:	80 81       	ld	r24, Z
    13d2:	20 91 3c 01 	lds	r18, 0x013C
    13d6:	82 17       	cp	r24, r18
    13d8:	30 f4       	brcc	.+12     	; 0x13e6 <_KER_SCH_NEXT9>
    13da:	80 93 3c 01 	sts	0x013C, r24
    13de:	20 91 3a 01 	lds	r18, 0x013A
    13e2:	20 93 3d 01 	sts	0x013D, r18

000013e6 <_KER_SCH_NEXT9>:
    13e6:	20 91 3a 01 	lds	r18, 0x013A
    13ea:	23 95       	inc	r18
    13ec:	30 91 3b 01 	lds	r19, 0x013B
    13f0:	23 17       	cp	r18, r19
    13f2:	08 f4       	brcc	.+2      	; 0x13f6 <_KER_SCH_EXIT9>
    13f4:	b4 cf       	rjmp	.-152    	; 0x135e <_KER_SCH_LOOP9>

000013f6 <_KER_SCH_EXIT9>:
    13f6:	20 91 3d 01 	lds	r18, 0x013D
    13fa:	20 93 3a 01 	sts	0x013A, r18
    13fe:	20 91 3a 01 	lds	r18, 0x013A
    1402:	22 23       	and	r18, r18
    1404:	29 f0       	breq	.+10     	; 0x1410 <_KER_USG_TICK15>
    1406:	20 91 3f 01 	lds	r18, 0x013F
    140a:	23 95       	inc	r18
    140c:	20 93 3f 01 	sts	0x013F, r18

00001410 <_KER_USG_TICK15>:
    1410:	20 91 3e 01 	lds	r18, 0x013E
    1414:	23 95       	inc	r18
    1416:	24 36       	cpi	r18, 0x64	; 100
    1418:	40 f0       	brcs	.+16     	; 0x142a <_KER_USG_UTC_SV15>
    141a:	20 e0       	ldi	r18, 0x00	; 0
    141c:	30 91 3f 01 	lds	r19, 0x013F
    1420:	30 93 40 01 	sts	0x0140, r19
    1424:	30 e0       	ldi	r19, 0x00	; 0
    1426:	30 93 3f 01 	sts	0x013F, r19

0000142a <_KER_USG_UTC_SV15>:
    142a:	20 93 3e 01 	sts	0x013E, r18
    142e:	e3 e4       	ldi	r30, 0x43	; 67
    1430:	f1 e0       	ldi	r31, 0x01	; 1
    1432:	20 91 3a 01 	lds	r18, 0x013A
    1436:	22 0f       	add	r18, r18
    1438:	e2 0f       	add	r30, r18
    143a:	20 e0       	ldi	r18, 0x00	; 0
    143c:	f2 1f       	adc	r31, r18
    143e:	20 81       	ld	r18, Z
    1440:	31 81       	ldd	r19, Z+1	; 0x01
    1442:	2d bf       	out	0x3d, r18	; 61
    1444:	3e bf       	out	0x3e, r19	; 62
    1446:	ff 91       	pop	r31
    1448:	ef 91       	pop	r30
    144a:	df 91       	pop	r29
    144c:	cf 91       	pop	r28
    144e:	bf 91       	pop	r27
    1450:	af 91       	pop	r26
    1452:	9f 91       	pop	r25
    1454:	8f 91       	pop	r24
    1456:	7f 91       	pop	r23
    1458:	6f 91       	pop	r22
    145a:	5f 91       	pop	r21
    145c:	4f 91       	pop	r20
    145e:	3f 91       	pop	r19
    1460:	2f 91       	pop	r18
    1462:	1f 91       	pop	r17
    1464:	0f 91       	pop	r16
    1466:	ff 90       	pop	r15
    1468:	ef 90       	pop	r14
    146a:	df 90       	pop	r13
    146c:	cf 90       	pop	r12
    146e:	bf 90       	pop	r11
    1470:	af 90       	pop	r10
    1472:	9f 90       	pop	r9
    1474:	8f 90       	pop	r8
    1476:	7f 90       	pop	r7
    1478:	6f 90       	pop	r6
    147a:	5f 90       	pop	r5
    147c:	4f 90       	pop	r4
    147e:	3f 90       	pop	r3
    1480:	2f 90       	pop	r2
    1482:	1f 90       	pop	r1
    1484:	0f 90       	pop	r0
    1486:	0f be       	out	0x3f, r0	; 63
    1488:	0f 90       	pop	r0
    148a:	18 95       	reti

0000148c <__vector_9>:
    148c:	20 91 53 00 	lds	r18, 0x0053
    1490:	2e 7f       	andi	r18, 0xFE	; 254
    1492:	20 93 53 00 	sts	0x0053, r18
    1496:	0f 92       	push	r0
    1498:	0f b6       	in	r0, 0x3f	; 63
    149a:	0f 92       	push	r0
    149c:	1f 92       	push	r1
    149e:	11 24       	eor	r1, r1
    14a0:	2f 92       	push	r2
    14a2:	3f 92       	push	r3
    14a4:	4f 92       	push	r4
    14a6:	5f 92       	push	r5
    14a8:	6f 92       	push	r6
    14aa:	7f 92       	push	r7
    14ac:	8f 92       	push	r8
    14ae:	9f 92       	push	r9
    14b0:	af 92       	push	r10
    14b2:	bf 92       	push	r11
    14b4:	cf 92       	push	r12
    14b6:	df 92       	push	r13
    14b8:	ef 92       	push	r14
    14ba:	ff 92       	push	r15
    14bc:	0f 93       	push	r16
    14be:	1f 93       	push	r17
    14c0:	2f 93       	push	r18
    14c2:	3f 93       	push	r19
    14c4:	4f 93       	push	r20
    14c6:	5f 93       	push	r21
    14c8:	6f 93       	push	r22
    14ca:	7f 93       	push	r23
    14cc:	8f 93       	push	r24
    14ce:	9f 93       	push	r25
    14d0:	af 93       	push	r26
    14d2:	bf 93       	push	r27
    14d4:	cf 93       	push	r28
    14d6:	df 93       	push	r29
    14d8:	ef 93       	push	r30
    14da:	ff 93       	push	r31
    14dc:	e3 e4       	ldi	r30, 0x43	; 67
    14de:	f1 e0       	ldi	r31, 0x01	; 1
    14e0:	20 91 3a 01 	lds	r18, 0x013A
    14e4:	22 0f       	add	r18, r18
    14e6:	e2 0f       	add	r30, r18
    14e8:	20 e0       	ldi	r18, 0x00	; 0
    14ea:	f2 1f       	adc	r31, r18
    14ec:	2d b7       	in	r18, 0x3d	; 61
    14ee:	3e b7       	in	r19, 0x3e	; 62
    14f0:	20 83       	st	Z, r18
    14f2:	31 83       	std	Z+1, r19	; 0x01
    14f4:	21 e0       	ldi	r18, 0x01	; 1
    14f6:	30 91 33 01 	lds	r19, 0x0133
    14fa:	32 0f       	add	r19, r18
    14fc:	30 93 33 01 	sts	0x0133, r19
    1500:	20 e0       	ldi	r18, 0x00	; 0
    1502:	30 91 34 01 	lds	r19, 0x0134
    1506:	32 1f       	adc	r19, r18
    1508:	30 93 34 01 	sts	0x0134, r19
    150c:	30 91 35 01 	lds	r19, 0x0135
    1510:	32 1f       	adc	r19, r18
    1512:	30 93 35 01 	sts	0x0135, r19
    1516:	30 91 36 01 	lds	r19, 0x0136
    151a:	32 1f       	adc	r19, r18
    151c:	30 93 36 01 	sts	0x0136, r19
    1520:	30 91 37 01 	lds	r19, 0x0137
    1524:	32 1f       	adc	r19, r18
    1526:	30 93 37 01 	sts	0x0137, r19
    152a:	80 e0       	ldi	r24, 0x00	; 0
    152c:	2f ef       	ldi	r18, 0xFF	; 255
    152e:	20 93 3c 01 	sts	0x013C, r18
    1532:	20 e0       	ldi	r18, 0x00	; 0
    1534:	20 93 3d 01 	sts	0x013D, r18
    1538:	58 2f       	mov	r21, r24

0000153a <_KER_SCH_LOOP31>:
    153a:	20 93 3a 01 	sts	0x013A, r18
    153e:	85 2f       	mov	r24, r21
    1540:	e9 e7       	ldi	r30, 0x79	; 121
    1542:	f1 e0       	ldi	r31, 0x01	; 1
    1544:	20 91 3a 01 	lds	r18, 0x013A
    1548:	22 0f       	add	r18, r18
    154a:	e2 0f       	add	r30, r18
    154c:	20 e0       	ldi	r18, 0x00	; 0
    154e:	f2 1f       	adc	r31, r18
    1550:	20 81       	ld	r18, Z
    1552:	31 81       	ldd	r19, Z+1	; 0x01
    1554:	42 2f       	mov	r20, r18
    1556:	43 2b       	or	r20, r19
    1558:	59 f0       	breq	.+22     	; 0x1570 <_VAL_NULL32>
    155a:	81 30       	cpi	r24, 0x01	; 1
    155c:	99 f0       	breq	.+38     	; 0x1584 <_VAL_NOT_NULL32>
    155e:	41 e0       	ldi	r20, 0x01	; 1
    1560:	24 1b       	sub	r18, r20
    1562:	40 e0       	ldi	r20, 0x00	; 0
    1564:	34 0b       	sbc	r19, r20
    1566:	20 83       	st	Z, r18
    1568:	31 83       	std	Z+1, r19	; 0x01
    156a:	42 2f       	mov	r20, r18
    156c:	43 2b       	or	r20, r19
    156e:	51 f4       	brne	.+20     	; 0x1584 <_VAL_NOT_NULL32>

00001570 <_VAL_NULL32>:
    1570:	e5 e6       	ldi	r30, 0x65	; 101
    1572:	f1 e0       	ldi	r31, 0x01	; 1
    1574:	20 91 3a 01 	lds	r18, 0x013A
    1578:	e2 0f       	add	r30, r18
    157a:	20 e0       	ldi	r18, 0x00	; 0
    157c:	f2 1f       	adc	r31, r18
    157e:	81 e0       	ldi	r24, 0x01	; 1
    1580:	80 83       	st	Z, r24
    1582:	08 c0       	rjmp	.+16     	; 0x1594 <_EXIT_SLP_TIME32>

00001584 <_VAL_NOT_NULL32>:
    1584:	e5 e6       	ldi	r30, 0x65	; 101
    1586:	f1 e0       	ldi	r31, 0x01	; 1
    1588:	20 91 3a 01 	lds	r18, 0x013A
    158c:	e2 0f       	add	r30, r18
    158e:	20 e0       	ldi	r18, 0x00	; 0
    1590:	f2 1f       	adc	r31, r18
    1592:	80 81       	ld	r24, Z

00001594 <_EXIT_SLP_TIME32>:
    1594:	81 30       	cpi	r24, 0x01	; 1
    1596:	19 f0       	breq	.+6      	; 0x159e <_KER_CALC_PRIO31>
    1598:	84 30       	cpi	r24, 0x04	; 4
    159a:	09 f0       	breq	.+2      	; 0x159e <_KER_CALC_PRIO31>
    159c:	12 c0       	rjmp	.+36     	; 0x15c2 <_KER_SCH_NEXT31>

0000159e <_KER_CALC_PRIO31>:
    159e:	ef e6       	ldi	r30, 0x6F	; 111
    15a0:	f1 e0       	ldi	r31, 0x01	; 1
    15a2:	20 e0       	ldi	r18, 0x00	; 0
    15a4:	80 91 3a 01 	lds	r24, 0x013A
    15a8:	e8 0f       	add	r30, r24
    15aa:	f2 1f       	adc	r31, r18
    15ac:	80 81       	ld	r24, Z
    15ae:	20 91 3c 01 	lds	r18, 0x013C
    15b2:	82 17       	cp	r24, r18
    15b4:	30 f4       	brcc	.+12     	; 0x15c2 <_KER_SCH_NEXT31>
    15b6:	80 93 3c 01 	sts	0x013C, r24
    15ba:	20 91 3a 01 	lds	r18, 0x013A
    15be:	20 93 3d 01 	sts	0x013D, r18

000015c2 <_KER_SCH_NEXT31>:
    15c2:	20 91 3a 01 	lds	r18, 0x013A
    15c6:	23 95       	inc	r18
    15c8:	30 91 3b 01 	lds	r19, 0x013B
    15cc:	23 17       	cp	r18, r19
    15ce:	08 f4       	brcc	.+2      	; 0x15d2 <_KER_SCH_EXIT31>
    15d0:	b4 cf       	rjmp	.-152    	; 0x153a <_KER_SCH_LOOP31>

000015d2 <_KER_SCH_EXIT31>:
    15d2:	20 91 3d 01 	lds	r18, 0x013D
    15d6:	20 93 3a 01 	sts	0x013A, r18
    15da:	20 91 3a 01 	lds	r18, 0x013A
    15de:	22 23       	and	r18, r18
    15e0:	29 f0       	breq	.+10     	; 0x15ec <_KER_USG_TICK37>
    15e2:	20 91 3f 01 	lds	r18, 0x013F
    15e6:	23 95       	inc	r18
    15e8:	20 93 3f 01 	sts	0x013F, r18

000015ec <_KER_USG_TICK37>:
    15ec:	20 91 3e 01 	lds	r18, 0x013E
    15f0:	23 95       	inc	r18
    15f2:	24 36       	cpi	r18, 0x64	; 100
    15f4:	40 f0       	brcs	.+16     	; 0x1606 <_KER_USG_UTC_SV37>
    15f6:	20 e0       	ldi	r18, 0x00	; 0
    15f8:	30 91 3f 01 	lds	r19, 0x013F
    15fc:	30 93 40 01 	sts	0x0140, r19
    1600:	30 e0       	ldi	r19, 0x00	; 0
    1602:	30 93 3f 01 	sts	0x013F, r19

00001606 <_KER_USG_UTC_SV37>:
    1606:	20 93 3e 01 	sts	0x013E, r18
    160a:	e3 e4       	ldi	r30, 0x43	; 67
    160c:	f1 e0       	ldi	r31, 0x01	; 1
    160e:	20 91 3a 01 	lds	r18, 0x013A
    1612:	22 0f       	add	r18, r18
    1614:	e2 0f       	add	r30, r18
    1616:	20 e0       	ldi	r18, 0x00	; 0
    1618:	f2 1f       	adc	r31, r18
    161a:	20 81       	ld	r18, Z
    161c:	31 81       	ldd	r19, Z+1	; 0x01
    161e:	2d bf       	out	0x3d, r18	; 61
    1620:	3e bf       	out	0x3e, r19	; 62
    1622:	ff 91       	pop	r31
    1624:	ef 91       	pop	r30
    1626:	df 91       	pop	r29
    1628:	cf 91       	pop	r28
    162a:	bf 91       	pop	r27
    162c:	af 91       	pop	r26
    162e:	9f 91       	pop	r25
    1630:	8f 91       	pop	r24
    1632:	7f 91       	pop	r23
    1634:	6f 91       	pop	r22
    1636:	5f 91       	pop	r21
    1638:	4f 91       	pop	r20
    163a:	3f 91       	pop	r19
    163c:	2f 91       	pop	r18
    163e:	1f 91       	pop	r17
    1640:	0f 91       	pop	r16
    1642:	ff 90       	pop	r15
    1644:	ef 90       	pop	r14
    1646:	df 90       	pop	r13
    1648:	cf 90       	pop	r12
    164a:	bf 90       	pop	r11
    164c:	af 90       	pop	r10
    164e:	9f 90       	pop	r9
    1650:	8f 90       	pop	r8
    1652:	7f 90       	pop	r7
    1654:	6f 90       	pop	r6
    1656:	5f 90       	pop	r5
    1658:	4f 90       	pop	r4
    165a:	3f 90       	pop	r3
    165c:	2f 90       	pop	r2
    165e:	1f 90       	pop	r1
    1660:	0f 90       	pop	r0
    1662:	0f be       	out	0x3f, r0	; 63
    1664:	0f 90       	pop	r0
    1666:	18 95       	reti

00001668 <Kernel_Tick_Init>:
    1668:	f8 94       	cli
    166a:	a0 91 57 01 	lds	r26, 0x0157
    166e:	b0 91 58 01 	lds	r27, 0x0158
    1672:	2d b7       	in	r18, 0x3d	; 61
    1674:	3e b7       	in	r19, 0x3e	; 62
    1676:	2d 93       	st	X+, r18
    1678:	3d 93       	st	X+, r19
    167a:	ed 93       	st	X+, r30
    167c:	fd 93       	st	X+, r31
    167e:	a0 93 57 01 	sts	0x0157, r26
    1682:	b0 93 58 01 	sts	0x0158, r27
    1686:	20 e0       	ldi	r18, 0x00	; 0
    1688:	20 93 33 01 	sts	0x0133, r18
    168c:	20 93 34 01 	sts	0x0134, r18
    1690:	20 93 35 01 	sts	0x0135, r18
    1694:	20 93 36 01 	sts	0x0136, r18
    1698:	20 93 37 01 	sts	0x0137, r18
    169c:	20 93 38 01 	sts	0x0138, r18
    16a0:	20 93 39 01 	sts	0x0139, r18
    16a4:	20 93 3a 01 	sts	0x013A, r18
    16a8:	20 93 3b 01 	sts	0x013B, r18
    16ac:	20 93 3c 01 	sts	0x013C, r18
    16b0:	20 93 3d 01 	sts	0x013D, r18
    16b4:	20 93 3e 01 	sts	0x013E, r18
    16b8:	20 93 3f 01 	sts	0x013F, r18
    16bc:	20 93 40 01 	sts	0x0140, r18
    16c0:	20 e0       	ldi	r18, 0x00	; 0
    16c2:	20 93 70 00 	sts	0x0070, r18
    16c6:	20 e0       	ldi	r18, 0x00	; 0
    16c8:	20 93 b1 00 	sts	0x00B1, r18
    16cc:	20 e0       	ldi	r18, 0x00	; 0
    16ce:	20 93 b6 00 	sts	0x00B6, r18
    16d2:	80 93 38 01 	sts	0x0138, r24
    16d6:	60 93 39 01 	sts	0x0139, r22
    16da:	a0 91 57 01 	lds	r26, 0x0157
    16de:	b0 91 58 01 	lds	r27, 0x0158
    16e2:	fe 91       	ld	r31, -X
    16e4:	ee 91       	ld	r30, -X
    16e6:	3e 91       	ld	r19, -X
    16e8:	2e 91       	ld	r18, -X
    16ea:	2d bf       	out	0x3d, r18	; 61
    16ec:	3e bf       	out	0x3e, r19	; 62
    16ee:	a0 93 57 01 	sts	0x0157, r26
    16f2:	b0 93 58 01 	sts	0x0158, r27
    16f6:	08 95       	ret

000016f8 <Kernel_Task_Create>:
    16f8:	a0 91 57 01 	lds	r26, 0x0157
    16fc:	b0 91 58 01 	lds	r27, 0x0158
    1700:	2d b7       	in	r18, 0x3d	; 61
    1702:	3e b7       	in	r19, 0x3e	; 62
    1704:	2d 93       	st	X+, r18
    1706:	3d 93       	st	X+, r19
    1708:	ed 93       	st	X+, r30
    170a:	fd 93       	st	X+, r31
    170c:	a0 93 57 01 	sts	0x0157, r26
    1710:	b0 93 58 01 	sts	0x0158, r27
    1714:	ef e6       	ldi	r30, 0x6F	; 111
    1716:	f1 e0       	ldi	r31, 0x01	; 1
    1718:	20 91 3a 01 	lds	r18, 0x013A
    171c:	e2 0f       	add	r30, r18
    171e:	20 e0       	ldi	r18, 0x00	; 0
    1720:	f2 1f       	adc	r31, r18
    1722:	60 83       	st	Z, r22
    1724:	e5 e6       	ldi	r30, 0x65	; 101
    1726:	f1 e0       	ldi	r31, 0x01	; 1
    1728:	20 91 3a 01 	lds	r18, 0x013A
    172c:	e2 0f       	add	r30, r18
    172e:	20 e0       	ldi	r18, 0x00	; 0
    1730:	f2 1f       	adc	r31, r18
    1732:	21 e0       	ldi	r18, 0x01	; 1
    1734:	20 83       	st	Z, r18
    1736:	20 91 3a 01 	lds	r18, 0x013A
    173a:	23 95       	inc	r18
    173c:	30 e8       	ldi	r19, 0x80	; 128
    173e:	23 9f       	mul	r18, r19
    1740:	e0 2d       	mov	r30, r0
    1742:	f1 2d       	mov	r31, r1
    1744:	31 97       	sbiw	r30, 0x01	; 1
    1746:	11 24       	eor	r1, r1
    1748:	2d e8       	ldi	r18, 0x8D	; 141
    174a:	31 e0       	ldi	r19, 0x01	; 1
    174c:	e2 0f       	add	r30, r18
    174e:	f3 1f       	adc	r31, r19
    1750:	ed bf       	out	0x3d, r30	; 61
    1752:	fe bf       	out	0x3e, r31	; 62
    1754:	8f 93       	push	r24
    1756:	9f 93       	push	r25
    1758:	0f 92       	push	r0
    175a:	0f b6       	in	r0, 0x3f	; 63
    175c:	0f 92       	push	r0
    175e:	1f 92       	push	r1
    1760:	11 24       	eor	r1, r1
    1762:	2f 92       	push	r2
    1764:	3f 92       	push	r3
    1766:	4f 92       	push	r4
    1768:	5f 92       	push	r5
    176a:	6f 92       	push	r6
    176c:	7f 92       	push	r7
    176e:	8f 92       	push	r8
    1770:	9f 92       	push	r9
    1772:	af 92       	push	r10
    1774:	bf 92       	push	r11
    1776:	cf 92       	push	r12
    1778:	df 92       	push	r13
    177a:	ef 92       	push	r14
    177c:	ff 92       	push	r15
    177e:	0f 93       	push	r16
    1780:	1f 93       	push	r17
    1782:	2f 93       	push	r18
    1784:	3f 93       	push	r19
    1786:	4f 93       	push	r20
    1788:	5f 93       	push	r21
    178a:	6f 93       	push	r22
    178c:	7f 93       	push	r23
    178e:	8f 93       	push	r24
    1790:	9f 93       	push	r25
    1792:	af 93       	push	r26
    1794:	bf 93       	push	r27
    1796:	cf 93       	push	r28
    1798:	df 93       	push	r29
    179a:	ef 93       	push	r30
    179c:	ff 93       	push	r31
    179e:	2d b7       	in	r18, 0x3d	; 61
    17a0:	3e b7       	in	r19, 0x3e	; 62
    17a2:	40 91 3a 01 	lds	r20, 0x013A
    17a6:	44 0f       	add	r20, r20
    17a8:	e3 e4       	ldi	r30, 0x43	; 67
    17aa:	f1 e0       	ldi	r31, 0x01	; 1
    17ac:	e4 0f       	add	r30, r20
    17ae:	40 e0       	ldi	r20, 0x00	; 0
    17b0:	f4 1f       	adc	r31, r20
    17b2:	21 93       	st	Z+, r18
    17b4:	30 83       	st	Z, r19
    17b6:	20 91 3a 01 	lds	r18, 0x013A
    17ba:	23 95       	inc	r18
    17bc:	20 93 3a 01 	sts	0x013A, r18
    17c0:	20 91 3b 01 	lds	r18, 0x013B
    17c4:	23 95       	inc	r18
    17c6:	20 93 3b 01 	sts	0x013B, r18
    17ca:	a0 91 57 01 	lds	r26, 0x0157
    17ce:	b0 91 58 01 	lds	r27, 0x0158
    17d2:	fe 91       	ld	r31, -X
    17d4:	ee 91       	ld	r30, -X
    17d6:	3e 91       	ld	r19, -X
    17d8:	2e 91       	ld	r18, -X
    17da:	2d bf       	out	0x3d, r18	; 61
    17dc:	3e bf       	out	0x3e, r19	; 62
    17de:	a0 93 57 01 	sts	0x0157, r26
    17e2:	b0 93 58 01 	sts	0x0158, r27
    17e6:	08 95       	ret

000017e8 <Kernel_Start_Tasks>:
    17e8:	81 e0       	ldi	r24, 0x01	; 1
    17ea:	2f ef       	ldi	r18, 0xFF	; 255
    17ec:	20 93 3c 01 	sts	0x013C, r18
    17f0:	20 e0       	ldi	r18, 0x00	; 0
    17f2:	20 93 3d 01 	sts	0x013D, r18
    17f6:	58 2f       	mov	r21, r24

000017f8 <_KER_SCH_LOOP54>:
    17f8:	20 93 3a 01 	sts	0x013A, r18
    17fc:	85 2f       	mov	r24, r21
    17fe:	e9 e7       	ldi	r30, 0x79	; 121
    1800:	f1 e0       	ldi	r31, 0x01	; 1
    1802:	20 91 3a 01 	lds	r18, 0x013A
    1806:	22 0f       	add	r18, r18
    1808:	e2 0f       	add	r30, r18
    180a:	20 e0       	ldi	r18, 0x00	; 0
    180c:	f2 1f       	adc	r31, r18
    180e:	20 81       	ld	r18, Z
    1810:	31 81       	ldd	r19, Z+1	; 0x01
    1812:	42 2f       	mov	r20, r18
    1814:	43 2b       	or	r20, r19
    1816:	59 f0       	breq	.+22     	; 0x182e <_VAL_NULL55>
    1818:	81 30       	cpi	r24, 0x01	; 1
    181a:	99 f0       	breq	.+38     	; 0x1842 <_VAL_NOT_NULL55>
    181c:	41 e0       	ldi	r20, 0x01	; 1
    181e:	24 1b       	sub	r18, r20
    1820:	40 e0       	ldi	r20, 0x00	; 0
    1822:	34 0b       	sbc	r19, r20
    1824:	20 83       	st	Z, r18
    1826:	31 83       	std	Z+1, r19	; 0x01
    1828:	42 2f       	mov	r20, r18
    182a:	43 2b       	or	r20, r19
    182c:	51 f4       	brne	.+20     	; 0x1842 <_VAL_NOT_NULL55>

0000182e <_VAL_NULL55>:
    182e:	e5 e6       	ldi	r30, 0x65	; 101
    1830:	f1 e0       	ldi	r31, 0x01	; 1
    1832:	20 91 3a 01 	lds	r18, 0x013A
    1836:	e2 0f       	add	r30, r18
    1838:	20 e0       	ldi	r18, 0x00	; 0
    183a:	f2 1f       	adc	r31, r18
    183c:	81 e0       	ldi	r24, 0x01	; 1
    183e:	80 83       	st	Z, r24
    1840:	08 c0       	rjmp	.+16     	; 0x1852 <_EXIT_SLP_TIME55>

00001842 <_VAL_NOT_NULL55>:
    1842:	e5 e6       	ldi	r30, 0x65	; 101
    1844:	f1 e0       	ldi	r31, 0x01	; 1
    1846:	20 91 3a 01 	lds	r18, 0x013A
    184a:	e2 0f       	add	r30, r18
    184c:	20 e0       	ldi	r18, 0x00	; 0
    184e:	f2 1f       	adc	r31, r18
    1850:	80 81       	ld	r24, Z

00001852 <_EXIT_SLP_TIME55>:
    1852:	81 30       	cpi	r24, 0x01	; 1
    1854:	19 f0       	breq	.+6      	; 0x185c <_KER_CALC_PRIO54>
    1856:	84 30       	cpi	r24, 0x04	; 4
    1858:	09 f0       	breq	.+2      	; 0x185c <_KER_CALC_PRIO54>
    185a:	12 c0       	rjmp	.+36     	; 0x1880 <_KER_SCH_NEXT54>

0000185c <_KER_CALC_PRIO54>:
    185c:	ef e6       	ldi	r30, 0x6F	; 111
    185e:	f1 e0       	ldi	r31, 0x01	; 1
    1860:	20 e0       	ldi	r18, 0x00	; 0
    1862:	80 91 3a 01 	lds	r24, 0x013A
    1866:	e8 0f       	add	r30, r24
    1868:	f2 1f       	adc	r31, r18
    186a:	80 81       	ld	r24, Z
    186c:	20 91 3c 01 	lds	r18, 0x013C
    1870:	82 17       	cp	r24, r18
    1872:	30 f4       	brcc	.+12     	; 0x1880 <_KER_SCH_NEXT54>
    1874:	80 93 3c 01 	sts	0x013C, r24
    1878:	20 91 3a 01 	lds	r18, 0x013A
    187c:	20 93 3d 01 	sts	0x013D, r18

00001880 <_KER_SCH_NEXT54>:
    1880:	20 91 3a 01 	lds	r18, 0x013A
    1884:	23 95       	inc	r18
    1886:	30 91 3b 01 	lds	r19, 0x013B
    188a:	23 17       	cp	r18, r19
    188c:	08 f4       	brcc	.+2      	; 0x1890 <_KER_SCH_EXIT54>
    188e:	b4 cf       	rjmp	.-152    	; 0x17f8 <_KER_SCH_LOOP54>

00001890 <_KER_SCH_EXIT54>:
    1890:	20 91 3d 01 	lds	r18, 0x013D
    1894:	20 93 3a 01 	sts	0x013A, r18
    1898:	e3 e4       	ldi	r30, 0x43	; 67
    189a:	f1 e0       	ldi	r31, 0x01	; 1
    189c:	20 91 3a 01 	lds	r18, 0x013A
    18a0:	22 0f       	add	r18, r18
    18a2:	e2 0f       	add	r30, r18
    18a4:	20 e0       	ldi	r18, 0x00	; 0
    18a6:	f2 1f       	adc	r31, r18
    18a8:	20 81       	ld	r18, Z
    18aa:	31 81       	ldd	r19, Z+1	; 0x01
    18ac:	2d bf       	out	0x3d, r18	; 61
    18ae:	3e bf       	out	0x3e, r19	; 62
    18b0:	ff 91       	pop	r31
    18b2:	ef 91       	pop	r30
    18b4:	df 91       	pop	r29
    18b6:	cf 91       	pop	r28
    18b8:	bf 91       	pop	r27
    18ba:	af 91       	pop	r26
    18bc:	9f 91       	pop	r25
    18be:	8f 91       	pop	r24
    18c0:	7f 91       	pop	r23
    18c2:	6f 91       	pop	r22
    18c4:	5f 91       	pop	r21
    18c6:	4f 91       	pop	r20
    18c8:	3f 91       	pop	r19
    18ca:	2f 91       	pop	r18
    18cc:	1f 91       	pop	r17
    18ce:	0f 91       	pop	r16
    18d0:	ff 90       	pop	r15
    18d2:	ef 90       	pop	r14
    18d4:	df 90       	pop	r13
    18d6:	cf 90       	pop	r12
    18d8:	bf 90       	pop	r11
    18da:	af 90       	pop	r10
    18dc:	9f 90       	pop	r9
    18de:	8f 90       	pop	r8
    18e0:	7f 90       	pop	r7
    18e2:	6f 90       	pop	r6
    18e4:	5f 90       	pop	r5
    18e6:	4f 90       	pop	r4
    18e8:	3f 90       	pop	r3
    18ea:	2f 90       	pop	r2
    18ec:	1f 90       	pop	r1
    18ee:	0f 90       	pop	r0
    18f0:	0f be       	out	0x3f, r0	; 63
    18f2:	0f 90       	pop	r0
    18f4:	78 94       	sei
    18f6:	20 e0       	ldi	r18, 0x00	; 0
    18f8:	20 93 70 00 	sts	0x0070, r18
    18fc:	20 e2       	ldi	r18, 0x20	; 32
    18fe:	20 93 b6 00 	sts	0x00B6, r18
    1902:	20 e8       	ldi	r18, 0x80	; 128
    1904:	20 93 b3 00 	sts	0x00B3, r18
    1908:	20 e0       	ldi	r18, 0x00	; 0
    190a:	20 93 b4 00 	sts	0x00B4, r18
    190e:	22 e0       	ldi	r18, 0x02	; 2
    1910:	20 93 b0 00 	sts	0x00B0, r18
    1914:	26 e0       	ldi	r18, 0x06	; 6
    1916:	20 93 b1 00 	sts	0x00B1, r18
    191a:	20 e0       	ldi	r18, 0x00	; 0
    191c:	20 93 b2 00 	sts	0x00B2, r18

00001920 <_KER_TC2_AUB65>:
    1920:	20 91 b6 00 	lds	r18, 0x00B6
    1924:	22 70       	andi	r18, 0x02	; 2
    1926:	e1 f7       	brne	.-8      	; 0x1920 <_KER_TC2_AUB65>

00001928 <_KER_TC2_BUB65>:
    1928:	20 91 b6 00 	lds	r18, 0x00B6
    192c:	21 70       	andi	r18, 0x01	; 1
    192e:	e1 f7       	brne	.-8      	; 0x1928 <_KER_TC2_BUB65>

00001930 <_KER_OC2_AUB65>:
    1930:	20 91 b6 00 	lds	r18, 0x00B6
    1934:	28 70       	andi	r18, 0x08	; 8
    1936:	e1 f7       	brne	.-8      	; 0x1930 <_KER_OC2_AUB65>

00001938 <_KER_OC2_BUB65>:
    1938:	20 91 b6 00 	lds	r18, 0x00B6
    193c:	24 70       	andi	r18, 0x04	; 4
    193e:	e1 f7       	brne	.-8      	; 0x1938 <_KER_OC2_BUB65>

00001940 <_KER_TC2_UB65>:
    1940:	20 91 b6 00 	lds	r18, 0x00B6
    1944:	20 71       	andi	r18, 0x10	; 16
    1946:	e1 f7       	brne	.-8      	; 0x1940 <_KER_TC2_UB65>

00001948 <_KER_TC2_TOV265>:
    1948:	20 91 37 00 	lds	r18, 0x0037
    194c:	21 70       	andi	r18, 0x01	; 1
    194e:	19 f0       	breq	.+6      	; 0x1956 <_KER_TC2_OCF2A65>
    1950:	21 e0       	ldi	r18, 0x01	; 1
    1952:	20 93 37 00 	sts	0x0037, r18

00001956 <_KER_TC2_OCF2A65>:
    1956:	20 91 37 00 	lds	r18, 0x0037
    195a:	22 70       	andi	r18, 0x02	; 2
    195c:	19 f0       	breq	.+6      	; 0x1964 <_KER_TC2_OCF2B65>
    195e:	22 e0       	ldi	r18, 0x02	; 2
    1960:	20 93 37 00 	sts	0x0037, r18

00001964 <_KER_TC2_OCF2B65>:
    1964:	20 91 37 00 	lds	r18, 0x0037
    1968:	24 70       	andi	r18, 0x04	; 4
    196a:	19 f0       	breq	.+6      	; 0x1972 <_KER_TC2_INTEN65>
    196c:	24 e0       	ldi	r18, 0x04	; 4
    196e:	20 93 37 00 	sts	0x0037, r18

00001972 <_KER_TC2_INTEN65>:
    1972:	22 e0       	ldi	r18, 0x02	; 2
    1974:	20 93 70 00 	sts	0x0070, r18
    1978:	78 94       	sei
    197a:	08 95       	ret

0000197c <Kernel_Init>:
    197c:	11 24       	eor	r1, r1
    197e:	29 e5       	ldi	r18, 0x59	; 89
    1980:	31 e0       	ldi	r19, 0x01	; 1
    1982:	20 93 57 01 	sts	0x0157, r18
    1986:	30 93 58 01 	sts	0x0158, r19
    198a:	a0 91 57 01 	lds	r26, 0x0157
    198e:	b0 91 58 01 	lds	r27, 0x0158
    1992:	2d b7       	in	r18, 0x3d	; 61
    1994:	3e b7       	in	r19, 0x3e	; 62
    1996:	2d 93       	st	X+, r18
    1998:	3d 93       	st	X+, r19
    199a:	ed 93       	st	X+, r30
    199c:	fd 93       	st	X+, r31
    199e:	a0 93 57 01 	sts	0x0157, r26
    19a2:	b0 93 58 01 	sts	0x0158, r27
    19a6:	83 e0       	ldi	r24, 0x03	; 3
    19a8:	62 e8       	ldi	r22, 0x82	; 130
    19aa:	0e 94 34 0b 	call	0x1668	; 0x1668 <Kernel_Tick_Init>
    19ae:	8a ed       	ldi	r24, 0xDA	; 218
    19b0:	99 e1       	ldi	r25, 0x19	; 25
    19b2:	96 95       	lsr	r25
    19b4:	87 95       	ror	r24
    19b6:	6f ef       	ldi	r22, 0xFF	; 255
    19b8:	0e 94 7c 0b 	call	0x16f8	; 0x16f8 <Kernel_Task_Create>
    19bc:	a0 91 57 01 	lds	r26, 0x0157
    19c0:	b0 91 58 01 	lds	r27, 0x0158
    19c4:	fe 91       	ld	r31, -X
    19c6:	ee 91       	ld	r30, -X
    19c8:	3e 91       	ld	r19, -X
    19ca:	2e 91       	ld	r18, -X
    19cc:	2d bf       	out	0x3d, r18	; 61
    19ce:	3e bf       	out	0x3e, r19	; 62
    19d0:	a0 93 57 01 	sts	0x0157, r26
    19d4:	b0 93 58 01 	sts	0x0158, r27
    19d8:	08 95       	ret

000019da <Kernel_Task_Idle>:
    19da:	26 e0       	ldi	r18, 0x06	; 6
    19dc:	20 93 53 00 	sts	0x0053, r18
    19e0:	20 93 41 01 	sts	0x0141, r18

000019e4 <_IDLE_LOOP>:
    19e4:	20 91 7a 00 	lds	r18, 0x007A
    19e8:	2f 77       	andi	r18, 0x7F	; 127
    19ea:	20 93 7a 00 	sts	0x007A, r18
    19ee:	20 91 50 00 	lds	r18, 0x0050
    19f2:	20 68       	ori	r18, 0x80	; 128
    19f4:	20 93 50 00 	sts	0x0050, r18
    19f8:	20 91 53 00 	lds	r18, 0x0053
    19fc:	21 60       	ori	r18, 0x01	; 1
    19fe:	20 93 53 00 	sts	0x0053, r18
    1a02:	88 95       	sleep
    1a04:	0c 94 f2 0c 	jmp	0x19e4	; 0x19e4 <_IDLE_LOOP>

00001a08 <Kernel_Task_Sleep>:
    1a08:	0f 92       	push	r0
    1a0a:	0f b6       	in	r0, 0x3f	; 63
    1a0c:	f8 94       	cli
    1a0e:	0f 92       	push	r0
    1a10:	1f 92       	push	r1
    1a12:	11 24       	eor	r1, r1
    1a14:	2f 92       	push	r2
    1a16:	3f 92       	push	r3
    1a18:	4f 92       	push	r4
    1a1a:	5f 92       	push	r5
    1a1c:	6f 92       	push	r6
    1a1e:	7f 92       	push	r7
    1a20:	8f 92       	push	r8
    1a22:	9f 92       	push	r9
    1a24:	af 92       	push	r10
    1a26:	bf 92       	push	r11
    1a28:	cf 92       	push	r12
    1a2a:	df 92       	push	r13
    1a2c:	ef 92       	push	r14
    1a2e:	ff 92       	push	r15
    1a30:	0f 93       	push	r16
    1a32:	1f 93       	push	r17
    1a34:	2f 93       	push	r18
    1a36:	3f 93       	push	r19
    1a38:	4f 93       	push	r20
    1a3a:	5f 93       	push	r21
    1a3c:	6f 93       	push	r22
    1a3e:	7f 93       	push	r23
    1a40:	8f 93       	push	r24
    1a42:	9f 93       	push	r25
    1a44:	af 93       	push	r26
    1a46:	bf 93       	push	r27
    1a48:	cf 93       	push	r28
    1a4a:	df 93       	push	r29
    1a4c:	ef 93       	push	r30
    1a4e:	ff 93       	push	r31
    1a50:	e3 e4       	ldi	r30, 0x43	; 67
    1a52:	f1 e0       	ldi	r31, 0x01	; 1
    1a54:	20 91 3a 01 	lds	r18, 0x013A
    1a58:	22 0f       	add	r18, r18
    1a5a:	e2 0f       	add	r30, r18
    1a5c:	20 e0       	ldi	r18, 0x00	; 0
    1a5e:	f2 1f       	adc	r31, r18
    1a60:	2d b7       	in	r18, 0x3d	; 61
    1a62:	3e b7       	in	r19, 0x3e	; 62
    1a64:	20 83       	st	Z, r18
    1a66:	31 83       	std	Z+1, r19	; 0x01
    1a68:	e9 e7       	ldi	r30, 0x79	; 121
    1a6a:	f1 e0       	ldi	r31, 0x01	; 1
    1a6c:	20 91 3a 01 	lds	r18, 0x013A
    1a70:	22 0f       	add	r18, r18
    1a72:	e2 0f       	add	r30, r18
    1a74:	20 e0       	ldi	r18, 0x00	; 0
    1a76:	f2 1f       	adc	r31, r18
    1a78:	80 83       	st	Z, r24
    1a7a:	91 83       	std	Z+1, r25	; 0x01
    1a7c:	e5 e6       	ldi	r30, 0x65	; 101
    1a7e:	f1 e0       	ldi	r31, 0x01	; 1
    1a80:	20 91 3a 01 	lds	r18, 0x013A
    1a84:	e2 0f       	add	r30, r18
    1a86:	20 e0       	ldi	r18, 0x00	; 0
    1a88:	f2 1f       	adc	r31, r18
    1a8a:	20 e0       	ldi	r18, 0x00	; 0
    1a8c:	20 83       	st	Z, r18
    1a8e:	81 e0       	ldi	r24, 0x01	; 1
    1a90:	2f ef       	ldi	r18, 0xFF	; 255
    1a92:	20 93 3c 01 	sts	0x013C, r18
    1a96:	20 e0       	ldi	r18, 0x00	; 0
    1a98:	20 93 3d 01 	sts	0x013D, r18
    1a9c:	58 2f       	mov	r21, r24

00001a9e <_KER_SCH_LOOP78>:
    1a9e:	20 93 3a 01 	sts	0x013A, r18
    1aa2:	85 2f       	mov	r24, r21
    1aa4:	e9 e7       	ldi	r30, 0x79	; 121
    1aa6:	f1 e0       	ldi	r31, 0x01	; 1
    1aa8:	20 91 3a 01 	lds	r18, 0x013A
    1aac:	22 0f       	add	r18, r18
    1aae:	e2 0f       	add	r30, r18
    1ab0:	20 e0       	ldi	r18, 0x00	; 0
    1ab2:	f2 1f       	adc	r31, r18
    1ab4:	20 81       	ld	r18, Z
    1ab6:	31 81       	ldd	r19, Z+1	; 0x01
    1ab8:	42 2f       	mov	r20, r18
    1aba:	43 2b       	or	r20, r19
    1abc:	59 f0       	breq	.+22     	; 0x1ad4 <_VAL_NULL79>
    1abe:	81 30       	cpi	r24, 0x01	; 1
    1ac0:	99 f0       	breq	.+38     	; 0x1ae8 <_VAL_NOT_NULL79>
    1ac2:	41 e0       	ldi	r20, 0x01	; 1
    1ac4:	24 1b       	sub	r18, r20
    1ac6:	40 e0       	ldi	r20, 0x00	; 0
    1ac8:	34 0b       	sbc	r19, r20
    1aca:	20 83       	st	Z, r18
    1acc:	31 83       	std	Z+1, r19	; 0x01
    1ace:	42 2f       	mov	r20, r18
    1ad0:	43 2b       	or	r20, r19
    1ad2:	51 f4       	brne	.+20     	; 0x1ae8 <_VAL_NOT_NULL79>

00001ad4 <_VAL_NULL79>:
    1ad4:	e5 e6       	ldi	r30, 0x65	; 101
    1ad6:	f1 e0       	ldi	r31, 0x01	; 1
    1ad8:	20 91 3a 01 	lds	r18, 0x013A
    1adc:	e2 0f       	add	r30, r18
    1ade:	20 e0       	ldi	r18, 0x00	; 0
    1ae0:	f2 1f       	adc	r31, r18
    1ae2:	81 e0       	ldi	r24, 0x01	; 1
    1ae4:	80 83       	st	Z, r24
    1ae6:	08 c0       	rjmp	.+16     	; 0x1af8 <_EXIT_SLP_TIME79>

00001ae8 <_VAL_NOT_NULL79>:
    1ae8:	e5 e6       	ldi	r30, 0x65	; 101
    1aea:	f1 e0       	ldi	r31, 0x01	; 1
    1aec:	20 91 3a 01 	lds	r18, 0x013A
    1af0:	e2 0f       	add	r30, r18
    1af2:	20 e0       	ldi	r18, 0x00	; 0
    1af4:	f2 1f       	adc	r31, r18
    1af6:	80 81       	ld	r24, Z

00001af8 <_EXIT_SLP_TIME79>:
    1af8:	81 30       	cpi	r24, 0x01	; 1
    1afa:	19 f0       	breq	.+6      	; 0x1b02 <_KER_CALC_PRIO78>
    1afc:	84 30       	cpi	r24, 0x04	; 4
    1afe:	09 f0       	breq	.+2      	; 0x1b02 <_KER_CALC_PRIO78>
    1b00:	12 c0       	rjmp	.+36     	; 0x1b26 <_KER_SCH_NEXT78>

00001b02 <_KER_CALC_PRIO78>:
    1b02:	ef e6       	ldi	r30, 0x6F	; 111
    1b04:	f1 e0       	ldi	r31, 0x01	; 1
    1b06:	20 e0       	ldi	r18, 0x00	; 0
    1b08:	80 91 3a 01 	lds	r24, 0x013A
    1b0c:	e8 0f       	add	r30, r24
    1b0e:	f2 1f       	adc	r31, r18
    1b10:	80 81       	ld	r24, Z
    1b12:	20 91 3c 01 	lds	r18, 0x013C
    1b16:	82 17       	cp	r24, r18
    1b18:	30 f4       	brcc	.+12     	; 0x1b26 <_KER_SCH_NEXT78>
    1b1a:	80 93 3c 01 	sts	0x013C, r24
    1b1e:	20 91 3a 01 	lds	r18, 0x013A
    1b22:	20 93 3d 01 	sts	0x013D, r18

00001b26 <_KER_SCH_NEXT78>:
    1b26:	20 91 3a 01 	lds	r18, 0x013A
    1b2a:	23 95       	inc	r18
    1b2c:	30 91 3b 01 	lds	r19, 0x013B
    1b30:	23 17       	cp	r18, r19
    1b32:	08 f4       	brcc	.+2      	; 0x1b36 <_KER_SCH_EXIT78>
    1b34:	b4 cf       	rjmp	.-152    	; 0x1a9e <_KER_SCH_LOOP78>

00001b36 <_KER_SCH_EXIT78>:
    1b36:	20 91 3d 01 	lds	r18, 0x013D
    1b3a:	20 93 3a 01 	sts	0x013A, r18
    1b3e:	e3 e4       	ldi	r30, 0x43	; 67
    1b40:	f1 e0       	ldi	r31, 0x01	; 1
    1b42:	20 91 3a 01 	lds	r18, 0x013A
    1b46:	22 0f       	add	r18, r18
    1b48:	e2 0f       	add	r30, r18
    1b4a:	20 e0       	ldi	r18, 0x00	; 0
    1b4c:	f2 1f       	adc	r31, r18
    1b4e:	20 81       	ld	r18, Z
    1b50:	31 81       	ldd	r19, Z+1	; 0x01
    1b52:	2d bf       	out	0x3d, r18	; 61
    1b54:	3e bf       	out	0x3e, r19	; 62
    1b56:	ff 91       	pop	r31
    1b58:	ef 91       	pop	r30
    1b5a:	df 91       	pop	r29
    1b5c:	cf 91       	pop	r28
    1b5e:	bf 91       	pop	r27
    1b60:	af 91       	pop	r26
    1b62:	9f 91       	pop	r25
    1b64:	8f 91       	pop	r24
    1b66:	7f 91       	pop	r23
    1b68:	6f 91       	pop	r22
    1b6a:	5f 91       	pop	r21
    1b6c:	4f 91       	pop	r20
    1b6e:	3f 91       	pop	r19
    1b70:	2f 91       	pop	r18
    1b72:	1f 91       	pop	r17
    1b74:	0f 91       	pop	r16
    1b76:	ff 90       	pop	r15
    1b78:	ef 90       	pop	r14
    1b7a:	df 90       	pop	r13
    1b7c:	cf 90       	pop	r12
    1b7e:	bf 90       	pop	r11
    1b80:	af 90       	pop	r10
    1b82:	9f 90       	pop	r9
    1b84:	8f 90       	pop	r8
    1b86:	7f 90       	pop	r7
    1b88:	6f 90       	pop	r6
    1b8a:	5f 90       	pop	r5
    1b8c:	4f 90       	pop	r4
    1b8e:	3f 90       	pop	r3
    1b90:	2f 90       	pop	r2
    1b92:	1f 90       	pop	r1
    1b94:	0f 90       	pop	r0
    1b96:	0f be       	out	0x3f, r0	; 63
    1b98:	0f 90       	pop	r0
    1b9a:	78 94       	sei
    1b9c:	08 95       	ret

00001b9e <Kernel_Task_Constant_Latency>:
    1b9e:	f8 94       	cli
    1ba0:	e9 e7       	ldi	r30, 0x79	; 121
    1ba2:	f1 e0       	ldi	r31, 0x01	; 1
    1ba4:	20 91 3a 01 	lds	r18, 0x013A
    1ba8:	22 0f       	add	r18, r18
    1baa:	e2 0f       	add	r30, r18
    1bac:	20 e0       	ldi	r18, 0x00	; 0
    1bae:	f2 1f       	adc	r31, r18
    1bb0:	80 83       	st	Z, r24
    1bb2:	91 83       	std	Z+1, r25	; 0x01
    1bb4:	e5 e6       	ldi	r30, 0x65	; 101
    1bb6:	f1 e0       	ldi	r31, 0x01	; 1
    1bb8:	20 91 3a 01 	lds	r18, 0x013A
    1bbc:	e2 0f       	add	r30, r18
    1bbe:	20 e0       	ldi	r18, 0x00	; 0
    1bc0:	f2 1f       	adc	r31, r18
    1bc2:	24 e0       	ldi	r18, 0x04	; 4
    1bc4:	20 83       	st	Z, r18
    1bc6:	78 94       	sei
    1bc8:	08 95       	ret

00001bca <Kernel_Task_Constant_Latency_Sleep>:
    1bca:	0f 92       	push	r0
    1bcc:	0f b6       	in	r0, 0x3f	; 63
    1bce:	f8 94       	cli
    1bd0:	0f 92       	push	r0
    1bd2:	1f 92       	push	r1
    1bd4:	11 24       	eor	r1, r1
    1bd6:	2f 92       	push	r2
    1bd8:	3f 92       	push	r3
    1bda:	4f 92       	push	r4
    1bdc:	5f 92       	push	r5
    1bde:	6f 92       	push	r6
    1be0:	7f 92       	push	r7
    1be2:	8f 92       	push	r8
    1be4:	9f 92       	push	r9
    1be6:	af 92       	push	r10
    1be8:	bf 92       	push	r11
    1bea:	cf 92       	push	r12
    1bec:	df 92       	push	r13
    1bee:	ef 92       	push	r14
    1bf0:	ff 92       	push	r15
    1bf2:	0f 93       	push	r16
    1bf4:	1f 93       	push	r17
    1bf6:	2f 93       	push	r18
    1bf8:	3f 93       	push	r19
    1bfa:	4f 93       	push	r20
    1bfc:	5f 93       	push	r21
    1bfe:	6f 93       	push	r22
    1c00:	7f 93       	push	r23
    1c02:	8f 93       	push	r24
    1c04:	9f 93       	push	r25
    1c06:	af 93       	push	r26
    1c08:	bf 93       	push	r27
    1c0a:	cf 93       	push	r28
    1c0c:	df 93       	push	r29
    1c0e:	ef 93       	push	r30
    1c10:	ff 93       	push	r31
    1c12:	e3 e4       	ldi	r30, 0x43	; 67
    1c14:	f1 e0       	ldi	r31, 0x01	; 1
    1c16:	20 91 3a 01 	lds	r18, 0x013A
    1c1a:	22 0f       	add	r18, r18
    1c1c:	e2 0f       	add	r30, r18
    1c1e:	20 e0       	ldi	r18, 0x00	; 0
    1c20:	f2 1f       	adc	r31, r18
    1c22:	2d b7       	in	r18, 0x3d	; 61
    1c24:	3e b7       	in	r19, 0x3e	; 62
    1c26:	20 83       	st	Z, r18
    1c28:	31 83       	std	Z+1, r19	; 0x01
    1c2a:	e5 e6       	ldi	r30, 0x65	; 101
    1c2c:	f1 e0       	ldi	r31, 0x01	; 1
    1c2e:	20 91 3a 01 	lds	r18, 0x013A
    1c32:	e2 0f       	add	r30, r18
    1c34:	20 e0       	ldi	r18, 0x00	; 0
    1c36:	f2 1f       	adc	r31, r18
    1c38:	20 e0       	ldi	r18, 0x00	; 0
    1c3a:	20 83       	st	Z, r18
    1c3c:	81 e0       	ldi	r24, 0x01	; 1
    1c3e:	2f ef       	ldi	r18, 0xFF	; 255
    1c40:	20 93 3c 01 	sts	0x013C, r18
    1c44:	20 e0       	ldi	r18, 0x00	; 0
    1c46:	20 93 3d 01 	sts	0x013D, r18
    1c4a:	58 2f       	mov	r21, r24

00001c4c <_KER_SCH_LOOP97>:
    1c4c:	20 93 3a 01 	sts	0x013A, r18
    1c50:	85 2f       	mov	r24, r21
    1c52:	e9 e7       	ldi	r30, 0x79	; 121
    1c54:	f1 e0       	ldi	r31, 0x01	; 1
    1c56:	20 91 3a 01 	lds	r18, 0x013A
    1c5a:	22 0f       	add	r18, r18
    1c5c:	e2 0f       	add	r30, r18
    1c5e:	20 e0       	ldi	r18, 0x00	; 0
    1c60:	f2 1f       	adc	r31, r18
    1c62:	20 81       	ld	r18, Z
    1c64:	31 81       	ldd	r19, Z+1	; 0x01
    1c66:	42 2f       	mov	r20, r18
    1c68:	43 2b       	or	r20, r19
    1c6a:	59 f0       	breq	.+22     	; 0x1c82 <_VAL_NULL98>
    1c6c:	81 30       	cpi	r24, 0x01	; 1
    1c6e:	99 f0       	breq	.+38     	; 0x1c96 <_VAL_NOT_NULL98>
    1c70:	41 e0       	ldi	r20, 0x01	; 1
    1c72:	24 1b       	sub	r18, r20
    1c74:	40 e0       	ldi	r20, 0x00	; 0
    1c76:	34 0b       	sbc	r19, r20
    1c78:	20 83       	st	Z, r18
    1c7a:	31 83       	std	Z+1, r19	; 0x01
    1c7c:	42 2f       	mov	r20, r18
    1c7e:	43 2b       	or	r20, r19
    1c80:	51 f4       	brne	.+20     	; 0x1c96 <_VAL_NOT_NULL98>

00001c82 <_VAL_NULL98>:
    1c82:	e5 e6       	ldi	r30, 0x65	; 101
    1c84:	f1 e0       	ldi	r31, 0x01	; 1
    1c86:	20 91 3a 01 	lds	r18, 0x013A
    1c8a:	e2 0f       	add	r30, r18
    1c8c:	20 e0       	ldi	r18, 0x00	; 0
    1c8e:	f2 1f       	adc	r31, r18
    1c90:	81 e0       	ldi	r24, 0x01	; 1
    1c92:	80 83       	st	Z, r24
    1c94:	08 c0       	rjmp	.+16     	; 0x1ca6 <_EXIT_SLP_TIME98>

00001c96 <_VAL_NOT_NULL98>:
    1c96:	e5 e6       	ldi	r30, 0x65	; 101
    1c98:	f1 e0       	ldi	r31, 0x01	; 1
    1c9a:	20 91 3a 01 	lds	r18, 0x013A
    1c9e:	e2 0f       	add	r30, r18
    1ca0:	20 e0       	ldi	r18, 0x00	; 0
    1ca2:	f2 1f       	adc	r31, r18
    1ca4:	80 81       	ld	r24, Z

00001ca6 <_EXIT_SLP_TIME98>:
    1ca6:	81 30       	cpi	r24, 0x01	; 1
    1ca8:	19 f0       	breq	.+6      	; 0x1cb0 <_KER_CALC_PRIO97>
    1caa:	84 30       	cpi	r24, 0x04	; 4
    1cac:	09 f0       	breq	.+2      	; 0x1cb0 <_KER_CALC_PRIO97>
    1cae:	12 c0       	rjmp	.+36     	; 0x1cd4 <_KER_SCH_NEXT97>

00001cb0 <_KER_CALC_PRIO97>:
    1cb0:	ef e6       	ldi	r30, 0x6F	; 111
    1cb2:	f1 e0       	ldi	r31, 0x01	; 1
    1cb4:	20 e0       	ldi	r18, 0x00	; 0
    1cb6:	80 91 3a 01 	lds	r24, 0x013A
    1cba:	e8 0f       	add	r30, r24
    1cbc:	f2 1f       	adc	r31, r18
    1cbe:	80 81       	ld	r24, Z
    1cc0:	20 91 3c 01 	lds	r18, 0x013C
    1cc4:	82 17       	cp	r24, r18
    1cc6:	30 f4       	brcc	.+12     	; 0x1cd4 <_KER_SCH_NEXT97>
    1cc8:	80 93 3c 01 	sts	0x013C, r24
    1ccc:	20 91 3a 01 	lds	r18, 0x013A
    1cd0:	20 93 3d 01 	sts	0x013D, r18

00001cd4 <_KER_SCH_NEXT97>:
    1cd4:	20 91 3a 01 	lds	r18, 0x013A
    1cd8:	23 95       	inc	r18
    1cda:	30 91 3b 01 	lds	r19, 0x013B
    1cde:	23 17       	cp	r18, r19
    1ce0:	08 f4       	brcc	.+2      	; 0x1ce4 <_KER_SCH_EXIT97>
    1ce2:	b4 cf       	rjmp	.-152    	; 0x1c4c <_KER_SCH_LOOP97>

00001ce4 <_KER_SCH_EXIT97>:
    1ce4:	20 91 3d 01 	lds	r18, 0x013D
    1ce8:	20 93 3a 01 	sts	0x013A, r18
    1cec:	e3 e4       	ldi	r30, 0x43	; 67
    1cee:	f1 e0       	ldi	r31, 0x01	; 1
    1cf0:	20 91 3a 01 	lds	r18, 0x013A
    1cf4:	22 0f       	add	r18, r18
    1cf6:	e2 0f       	add	r30, r18
    1cf8:	20 e0       	ldi	r18, 0x00	; 0
    1cfa:	f2 1f       	adc	r31, r18
    1cfc:	20 81       	ld	r18, Z
    1cfe:	31 81       	ldd	r19, Z+1	; 0x01
    1d00:	2d bf       	out	0x3d, r18	; 61
    1d02:	3e bf       	out	0x3e, r19	; 62
    1d04:	ff 91       	pop	r31
    1d06:	ef 91       	pop	r30
    1d08:	df 91       	pop	r29
    1d0a:	cf 91       	pop	r28
    1d0c:	bf 91       	pop	r27
    1d0e:	af 91       	pop	r26
    1d10:	9f 91       	pop	r25
    1d12:	8f 91       	pop	r24
    1d14:	7f 91       	pop	r23
    1d16:	6f 91       	pop	r22
    1d18:	5f 91       	pop	r21
    1d1a:	4f 91       	pop	r20
    1d1c:	3f 91       	pop	r19
    1d1e:	2f 91       	pop	r18
    1d20:	1f 91       	pop	r17
    1d22:	0f 91       	pop	r16
    1d24:	ff 90       	pop	r15
    1d26:	ef 90       	pop	r14
    1d28:	df 90       	pop	r13
    1d2a:	cf 90       	pop	r12
    1d2c:	bf 90       	pop	r11
    1d2e:	af 90       	pop	r10
    1d30:	9f 90       	pop	r9
    1d32:	8f 90       	pop	r8
    1d34:	7f 90       	pop	r7
    1d36:	6f 90       	pop	r6
    1d38:	5f 90       	pop	r5
    1d3a:	4f 90       	pop	r4
    1d3c:	3f 90       	pop	r3
    1d3e:	2f 90       	pop	r2
    1d40:	1f 90       	pop	r1
    1d42:	0f 90       	pop	r0
    1d44:	0f be       	out	0x3f, r0	; 63
    1d46:	0f 90       	pop	r0
    1d48:	78 94       	sei
    1d4a:	08 95       	ret

00001d4c <Kernel_PreSleep_Hook>:
    1d4c:	fc 01       	movw	r30, r24
    1d4e:	09 95       	icall
    1d50:	08 95       	ret

00001d52 <Kernel_Clock_Prescale>:
    1d52:	20 91 5f 00 	lds	r18, 0x005F
    1d56:	f8 94       	cli
    1d58:	30 e8       	ldi	r19, 0x80	; 128
    1d5a:	30 93 61 00 	sts	0x0061, r19
    1d5e:	80 93 61 00 	sts	0x0061, r24
    1d62:	20 93 5f 00 	sts	0x005F, r18
    1d66:	08 95       	ret

00001d68 <Kernel_Task_Sleep_Time_Get>:
    1d68:	28 2f       	mov	r18, r24
    1d6a:	22 0f       	add	r18, r18
    1d6c:	e9 e7       	ldi	r30, 0x79	; 121
    1d6e:	f1 e0       	ldi	r31, 0x01	; 1
    1d70:	e2 0f       	add	r30, r18
    1d72:	20 e0       	ldi	r18, 0x00	; 0
    1d74:	f2 1f       	adc	r31, r18
    1d76:	80 81       	ld	r24, Z
    1d78:	91 81       	ldd	r25, Z+1	; 0x01
    1d7a:	08 95       	ret

00001d7c <Kernel_Task_Status_Get>:
    1d7c:	28 2f       	mov	r18, r24
    1d7e:	e5 e6       	ldi	r30, 0x65	; 101
    1d80:	f1 e0       	ldi	r31, 0x01	; 1
    1d82:	e2 0f       	add	r30, r18
    1d84:	20 e0       	ldi	r18, 0x00	; 0
    1d86:	f2 1f       	adc	r31, r18
    1d88:	80 81       	ld	r24, Z
    1d8a:	08 95       	ret

00001d8c <Kernel_NTask_Get>:
    1d8c:	80 91 3b 01 	lds	r24, 0x013B
    1d90:	08 95       	ret

00001d92 <Kernel_Task_Prio_Get>:
    1d92:	28 2f       	mov	r18, r24
    1d94:	ef e6       	ldi	r30, 0x6F	; 111
    1d96:	f1 e0       	ldi	r31, 0x01	; 1
    1d98:	e2 0f       	add	r30, r18
    1d9a:	20 e0       	ldi	r18, 0x00	; 0
    1d9c:	f2 1f       	adc	r31, r18
    1d9e:	80 81       	ld	r24, Z
    1da0:	08 95       	ret

00001da2 <Kernel_Lowest_Prio_Get>:
    1da2:	80 91 3c 01 	lds	r24, 0x013C
    1da6:	08 95       	ret

00001da8 <Kernel_High_Prio_Task_ID_Get>:
    1da8:	80 91 3d 01 	lds	r24, 0x013D
    1dac:	8a 95       	dec	r24
    1dae:	08 95       	ret

00001db0 <Kernel_Abs_High_Prio_Task_ID_Get>:
    1db0:	80 91 3d 01 	lds	r24, 0x013D
    1db4:	08 95       	ret

00001db6 <Kernel_CPU_Usage_Get>:
    1db6:	80 91 40 01 	lds	r24, 0x0140
    1dba:	08 95       	ret

00001dbc <Kernel_Tick_Val_Get>:
    1dbc:	2f b7       	in	r18, 0x3f	; 63
    1dbe:	f8 94       	cli
    1dc0:	60 91 33 01 	lds	r22, 0x0133
    1dc4:	70 91 34 01 	lds	r23, 0x0134
    1dc8:	80 91 35 01 	lds	r24, 0x0135
    1dcc:	90 91 36 01 	lds	r25, 0x0136
    1dd0:	2f bf       	out	0x3f, r18	; 63
    1dd2:	08 95       	ret

00001dd4 <Debug_Init>:
    1dd4:	22 e0       	ldi	r18, 0x02	; 2
    1dd6:	20 93 c0 00 	sts	0x00C0, r18
    1dda:	29 2f       	mov	r18, r25
    1ddc:	20 93 c5 00 	sts	0x00C5, r18
    1de0:	28 2f       	mov	r18, r24
    1de2:	20 93 c4 00 	sts	0x00C4, r18
    1de6:	26 e0       	ldi	r18, 0x06	; 6
    1de8:	20 93 c2 00 	sts	0x00C2, r18
    1dec:	28 e0       	ldi	r18, 0x08	; 8
    1dee:	20 93 c1 00 	sts	0x00C1, r18
    1df2:	08 95       	ret

00001df4 <Debug_Tx_Byte>:
    1df4:	2f 93       	push	r18
    1df6:	80 93 c6 00 	sts	0x00C6, r24

00001dfa <__UDRE0_CLEARED>:
    1dfa:	20 91 c0 00 	lds	r18, 0x00C0
    1dfe:	25 ff       	sbrs	r18, 5
    1e00:	fc cf       	rjmp	.-8      	; 0x1dfa <__UDRE0_CLEARED>
    1e02:	2f 91       	pop	r18
    1e04:	08 95       	ret

00001e06 <Debug_Tx_Word>:
    1e06:	8f 93       	push	r24
    1e08:	89 2f       	mov	r24, r25
    1e0a:	0e 94 fa 0e 	call	0x1df4	; 0x1df4 <Debug_Tx_Byte>
    1e0e:	8f 91       	pop	r24
    1e10:	0e 94 fa 0e 	call	0x1df4	; 0x1df4 <Debug_Tx_Byte>
    1e14:	08 95       	ret

00001e16 <Debug_Tx_Byte_Conf>:
    1e16:	2f 93       	push	r18
    1e18:	80 93 c6 00 	sts	0x00C6, r24

00001e1c <__TXC0_CLEARED>:
    1e1c:	20 91 c0 00 	lds	r18, 0x00C0
    1e20:	26 ff       	sbrs	r18, 6
    1e22:	fc cf       	rjmp	.-8      	; 0x1e1c <__TXC0_CLEARED>
    1e24:	20 91 c0 00 	lds	r18, 0x00C0
    1e28:	20 64       	ori	r18, 0x40	; 64
    1e2a:	20 93 c0 00 	sts	0x00C0, r18
    1e2e:	2f 91       	pop	r18
    1e30:	08 95       	ret

00001e32 <Debug_Tx_Word_Conf>:
    1e32:	0e 94 0b 0f 	call	0x1e16	; 0x1e16 <Debug_Tx_Byte_Conf>
    1e36:	8f 93       	push	r24
    1e38:	89 2f       	mov	r24, r25
    1e3a:	0e 94 0b 0f 	call	0x1e16	; 0x1e16 <Debug_Tx_Byte_Conf>
    1e3e:	8f 91       	pop	r24
    1e40:	08 95       	ret

00001e42 <Debug_Tx_DWord_Conf>:
    1e42:	80 93 4a 00 	sts	0x004A, r24
    1e46:	86 2f       	mov	r24, r22
    1e48:	0e 94 0b 0f 	call	0x1e16	; 0x1e16 <Debug_Tx_Byte_Conf>
    1e4c:	87 2f       	mov	r24, r23
    1e4e:	0e 94 0b 0f 	call	0x1e16	; 0x1e16 <Debug_Tx_Byte_Conf>
    1e52:	80 91 4a 00 	lds	r24, 0x004A
    1e56:	0e 94 0b 0f 	call	0x1e16	; 0x1e16 <Debug_Tx_Byte_Conf>
    1e5a:	80 93 4a 00 	sts	0x004A, r24
    1e5e:	89 2f       	mov	r24, r25
    1e60:	0e 94 0b 0f 	call	0x1e16	; 0x1e16 <Debug_Tx_Byte_Conf>
    1e64:	80 91 4a 00 	lds	r24, 0x004A
    1e68:	08 95       	ret

00001e6a <Debug_Tx_From_RAM>:
    1e6a:	0e 2f       	mov	r16, r30
    1e6c:	1f 2f       	mov	r17, r31
    1e6e:	28 2f       	mov	r18, r24
    1e70:	e8 2f       	mov	r30, r24
    1e72:	f9 2f       	mov	r31, r25
    1e74:	80 81       	ld	r24, Z
    1e76:	0e 94 0b 0f 	call	0x1e16	; 0x1e16 <Debug_Tx_Byte_Conf>
    1e7a:	e0 2f       	mov	r30, r16
    1e7c:	f1 2f       	mov	r31, r17
    1e7e:	82 2f       	mov	r24, r18
    1e80:	08 95       	ret

00001e82 <Debug_Tx_RAM_Area>:
    1e82:	0e 94 35 0f 	call	0x1e6a	; 0x1e6a <Debug_Tx_From_RAM>
    1e86:	81 50       	subi	r24, 0x01	; 1
    1e88:	90 40       	sbci	r25, 0x00	; 0
    1e8a:	61 50       	subi	r22, 0x01	; 1
    1e8c:	d1 f7       	brne	.-12     	; 0x1e82 <Debug_Tx_RAM_Area>
    1e8e:	08 95       	ret

00001e90 <__mulsi3>:
    1e90:	62 9f       	mul	r22, r18
    1e92:	d0 01       	movw	r26, r0
    1e94:	73 9f       	mul	r23, r19
    1e96:	f0 01       	movw	r30, r0
    1e98:	82 9f       	mul	r24, r18
    1e9a:	e0 0d       	add	r30, r0
    1e9c:	f1 1d       	adc	r31, r1
    1e9e:	64 9f       	mul	r22, r20
    1ea0:	e0 0d       	add	r30, r0
    1ea2:	f1 1d       	adc	r31, r1
    1ea4:	92 9f       	mul	r25, r18
    1ea6:	f0 0d       	add	r31, r0
    1ea8:	83 9f       	mul	r24, r19
    1eaa:	f0 0d       	add	r31, r0
    1eac:	74 9f       	mul	r23, r20
    1eae:	f0 0d       	add	r31, r0
    1eb0:	65 9f       	mul	r22, r21
    1eb2:	f0 0d       	add	r31, r0
    1eb4:	99 27       	eor	r25, r25
    1eb6:	72 9f       	mul	r23, r18
    1eb8:	b0 0d       	add	r27, r0
    1eba:	e1 1d       	adc	r30, r1
    1ebc:	f9 1f       	adc	r31, r25
    1ebe:	63 9f       	mul	r22, r19
    1ec0:	b0 0d       	add	r27, r0
    1ec2:	e1 1d       	adc	r30, r1
    1ec4:	f9 1f       	adc	r31, r25
    1ec6:	bd 01       	movw	r22, r26
    1ec8:	cf 01       	movw	r24, r30
    1eca:	11 24       	eor	r1, r1
    1ecc:	08 95       	ret

00001ece <__udivmodsi4>:
    1ece:	a1 e2       	ldi	r26, 0x21	; 33
    1ed0:	1a 2e       	mov	r1, r26
    1ed2:	aa 1b       	sub	r26, r26
    1ed4:	bb 1b       	sub	r27, r27
    1ed6:	fd 01       	movw	r30, r26
    1ed8:	0d c0       	rjmp	.+26     	; 0x1ef4 <__udivmodsi4_ep>

00001eda <__udivmodsi4_loop>:
    1eda:	aa 1f       	adc	r26, r26
    1edc:	bb 1f       	adc	r27, r27
    1ede:	ee 1f       	adc	r30, r30
    1ee0:	ff 1f       	adc	r31, r31
    1ee2:	a2 17       	cp	r26, r18
    1ee4:	b3 07       	cpc	r27, r19
    1ee6:	e4 07       	cpc	r30, r20
    1ee8:	f5 07       	cpc	r31, r21
    1eea:	20 f0       	brcs	.+8      	; 0x1ef4 <__udivmodsi4_ep>
    1eec:	a2 1b       	sub	r26, r18
    1eee:	b3 0b       	sbc	r27, r19
    1ef0:	e4 0b       	sbc	r30, r20
    1ef2:	f5 0b       	sbc	r31, r21

00001ef4 <__udivmodsi4_ep>:
    1ef4:	66 1f       	adc	r22, r22
    1ef6:	77 1f       	adc	r23, r23
    1ef8:	88 1f       	adc	r24, r24
    1efa:	99 1f       	adc	r25, r25
    1efc:	1a 94       	dec	r1
    1efe:	69 f7       	brne	.-38     	; 0x1eda <__udivmodsi4_loop>
    1f00:	60 95       	com	r22
    1f02:	70 95       	com	r23
    1f04:	80 95       	com	r24
    1f06:	90 95       	com	r25
    1f08:	9b 01       	movw	r18, r22
    1f0a:	ac 01       	movw	r20, r24
    1f0c:	bd 01       	movw	r22, r26
    1f0e:	cf 01       	movw	r24, r30
    1f10:	08 95       	ret

00001f12 <_exit>:
    1f12:	f8 94       	cli

00001f14 <__stop_program>:
    1f14:	ff cf       	rjmp	.-2      	; 0x1f14 <__stop_program>
