
main.elf:     file format elf32-avr

Sections:
Idx Name          Size      VMA       LMA       File off  Algn
  0 .data         00000024  00800100  00001cda  00001d6e  2**0
                  CONTENTS, ALLOC, LOAD, DATA
  1 .text         00001cda  00000000  00000000  00000094  2**1
                  CONTENTS, ALLOC, LOAD, READONLY, CODE
  2 .bss          00000586  00800124  00800124  00001d92  2**0
                  ALLOC
  3 .stab         00000dc8  00000000  00000000  00001d94  2**2
                  CONTENTS, READONLY, DEBUGGING
  4 .stabstr      0000006c  00000000  00000000  00002b5c  2**0
                  CONTENTS, READONLY, DEBUGGING
  5 .debug_aranges 000000c0  00000000  00000000  00002bc8  2**0
                  CONTENTS, READONLY, DEBUGGING
  6 .debug_pubnames 000009a3  00000000  00000000  00002c88  2**0
                  CONTENTS, READONLY, DEBUGGING
  7 .debug_info   00001efc  00000000  00000000  0000362b  2**0
                  CONTENTS, READONLY, DEBUGGING
  8 .debug_abbrev 0000084d  00000000  00000000  00005527  2**0
                  CONTENTS, READONLY, DEBUGGING
  9 .debug_line   00001952  00000000  00000000  00005d74  2**0
                  CONTENTS, READONLY, DEBUGGING
 10 .debug_frame  00000580  00000000  00000000  000076c8  2**2
                  CONTENTS, READONLY, DEBUGGING
 11 .debug_str    00000a73  00000000  00000000  00007c48  2**0
                  CONTENTS, READONLY, DEBUGGING
 12 .debug_loc    000009cd  00000000  00000000  000086bb  2**0
                  CONTENTS, READONLY, DEBUGGING
 13 .debug_ranges 00000120  00000000  00000000  00009088  2**0
                  CONTENTS, READONLY, DEBUGGING

Disassembly of section .text:

00000000 <__vectors>:
       0:	0c 94 34 00 	jmp	0x68	; 0x68 <__ctors_end>
       4:	0c 94 51 00 	jmp	0xa2	; 0xa2 <__bad_interrupt>
       8:	0c 94 51 00 	jmp	0xa2	; 0xa2 <__bad_interrupt>
       c:	0c 94 51 00 	jmp	0xa2	; 0xa2 <__bad_interrupt>
      10:	0c 94 51 00 	jmp	0xa2	; 0xa2 <__bad_interrupt>
      14:	0c 94 51 00 	jmp	0xa2	; 0xa2 <__bad_interrupt>
      18:	0c 94 51 00 	jmp	0xa2	; 0xa2 <__bad_interrupt>
      1c:	0c 94 40 08 	jmp	0x1080	; 0x1080 <__vector_7>
      20:	0c 94 51 00 	jmp	0xa2	; 0xa2 <__bad_interrupt>
      24:	0c 94 31 09 	jmp	0x1262	; 0x1262 <__vector_9>
      28:	0c 94 51 00 	jmp	0xa2	; 0xa2 <__bad_interrupt>
      2c:	0c 94 51 00 	jmp	0xa2	; 0xa2 <__bad_interrupt>
      30:	0c 94 51 00 	jmp	0xa2	; 0xa2 <__bad_interrupt>
      34:	0c 94 51 00 	jmp	0xa2	; 0xa2 <__bad_interrupt>
      38:	0c 94 51 00 	jmp	0xa2	; 0xa2 <__bad_interrupt>
      3c:	0c 94 51 00 	jmp	0xa2	; 0xa2 <__bad_interrupt>
      40:	0c 94 51 00 	jmp	0xa2	; 0xa2 <__bad_interrupt>
      44:	0c 94 51 00 	jmp	0xa2	; 0xa2 <__bad_interrupt>
      48:	0c 94 51 00 	jmp	0xa2	; 0xa2 <__bad_interrupt>
      4c:	0c 94 51 00 	jmp	0xa2	; 0xa2 <__bad_interrupt>
      50:	0c 94 51 00 	jmp	0xa2	; 0xa2 <__bad_interrupt>
      54:	0c 94 51 00 	jmp	0xa2	; 0xa2 <__bad_interrupt>
      58:	0c 94 51 00 	jmp	0xa2	; 0xa2 <__bad_interrupt>
      5c:	0c 94 51 00 	jmp	0xa2	; 0xa2 <__bad_interrupt>
      60:	0c 94 51 00 	jmp	0xa2	; 0xa2 <__bad_interrupt>
      64:	0c 94 51 00 	jmp	0xa2	; 0xa2 <__bad_interrupt>

00000068 <__ctors_end>:
      68:	11 24       	eor	r1, r1
      6a:	1f be       	out	0x3f, r1	; 63
      6c:	cf ef       	ldi	r28, 0xFF	; 255
      6e:	d8 e0       	ldi	r29, 0x08	; 8
      70:	de bf       	out	0x3e, r29	; 62
      72:	cd bf       	out	0x3d, r28	; 61

00000074 <__do_copy_data>:
      74:	11 e0       	ldi	r17, 0x01	; 1
      76:	a0 e0       	ldi	r26, 0x00	; 0
      78:	b1 e0       	ldi	r27, 0x01	; 1
      7a:	ea ed       	ldi	r30, 0xDA	; 218
      7c:	fc e1       	ldi	r31, 0x1C	; 28
      7e:	02 c0       	rjmp	.+4      	; 0x84 <.do_copy_data_start>

00000080 <.do_copy_data_loop>:
      80:	05 90       	lpm	r0, Z+
      82:	0d 92       	st	X+, r0

00000084 <.do_copy_data_start>:
      84:	a4 32       	cpi	r26, 0x24	; 36
      86:	b1 07       	cpc	r27, r17
      88:	d9 f7       	brne	.-10     	; 0x80 <.do_copy_data_loop>

0000008a <__do_clear_bss>:
      8a:	16 e0       	ldi	r17, 0x06	; 6
      8c:	a4 e2       	ldi	r26, 0x24	; 36
      8e:	b1 e0       	ldi	r27, 0x01	; 1
      90:	01 c0       	rjmp	.+2      	; 0x94 <.do_clear_bss_start>

00000092 <.do_clear_bss_loop>:
      92:	1d 92       	st	X+, r1

00000094 <.do_clear_bss_start>:
      94:	aa 3a       	cpi	r26, 0xAA	; 170
      96:	b1 07       	cpc	r27, r17
      98:	e1 f7       	brne	.-8      	; 0x92 <.do_clear_bss_loop>
      9a:	0e 94 53 00 	call	0xa6	; 0xa6 <main>
      9e:	0c 94 6b 0e 	jmp	0x1cd6	; 0x1cd6 <_exit>

000000a2 <__bad_interrupt>:
      a2:	0c 94 00 00 	jmp	0	; 0x0 <__vectors>

000000a6 <main>:



int main(void) {
    
	Kernel_Clock_Prescale(1);
      a6:	81 e0       	ldi	r24, 0x01	; 1
      a8:	0e 94 97 0d 	call	0x1b2e	; 0x1b2e <Kernel_Clock_Prescale>
	
	Debug_Init(0);
      ac:	80 e0       	ldi	r24, 0x00	; 0
      ae:	90 e0       	ldi	r25, 0x00	; 0
      b0:	0e 94 cc 0d 	call	0x1b98	; 0x1b98 <Debug_Init>
	Kernel_Init();
      b4:	0e 94 ac 0b 	call	0x1758	; 0x1758 <Kernel_Init>
	Kernel_Task_Create(Task_RGB_LED,  0);
      b8:	88 ed       	ldi	r24, 0xD8	; 216
      ba:	90 e0       	ldi	r25, 0x00	; 0
      bc:	60 e0       	ldi	r22, 0x00	; 0
      be:	0e 94 6a 0a 	call	0x14d4	; 0x14d4 <Kernel_Task_Create>
	Kernel_Task_Create(Task_Vin_Sense,  1);
      c2:	8f ec       	ldi	r24, 0xCF	; 207
      c4:	90 e0       	ldi	r25, 0x00	; 0
      c6:	61 e0       	ldi	r22, 0x01	; 1
      c8:	0e 94 6a 0a 	call	0x14d4	; 0x14d4 <Kernel_Task_Create>
	Kernel_Task_Create(Task_Radio,  2);
      cc:	81 e8       	ldi	r24, 0x81	; 129
      ce:	90 e0       	ldi	r25, 0x00	; 0
      d0:	62 e0       	ldi	r22, 0x02	; 2
      d2:	0e 94 6a 0a 	call	0x14d4	; 0x14d4 <Kernel_Task_Create>
	Kernel_Task_Create(Task_Sensor,  3);
      d6:	88 e7       	ldi	r24, 0x78	; 120
      d8:	90 e0       	ldi	r25, 0x00	; 0
      da:	63 e0       	ldi	r22, 0x03	; 3
      dc:	0e 94 6a 0a 	call	0x14d4	; 0x14d4 <Kernel_Task_Create>
	Kernel_PreSleep_Hook(Tasks_Disable_Peripherals);
      e0:	87 e7       	ldi	r24, 0x77	; 119
      e2:	90 e0       	ldi	r25, 0x00	; 0
      e4:	0e 94 94 0d 	call	0x1b28	; 0x1b28 <Kernel_PreSleep_Hook>
	Kernel_Start_Tasks();
      e8:	0e 94 e2 0a 	call	0x15c4	; 0x15c4 <Kernel_Start_Tasks>
      ec:	ff cf       	rjmp	.-2      	; 0xec <SRUDR0+0x26>

000000ee <Tasks_Disable_Peripherals>:
#include "rgb.h"

void Tasks_Disable_Peripherals(void){
  //ADC and Analog comparator will be
  //turned off automatically by the kernel
}
      ee:	08 95       	ret

000000f0 <Task_Sensor>:
  }
}

void Task_Sensor(void){
  
  Sensors_Init();
      f0:	0e 94 67 06 	call	0xcce	; 0xcce <Sensors_Init>
  
  while(1){

    Sensors_Sample();
      f4:	0e 94 a5 07 	call	0xf4a	; 0xf4a <Sensors_Sample>
    Kernel_Task_Sleep(120000/KER_TICK_TIME);
      f8:	88 e7       	ldi	r24, 0x78	; 120
      fa:	90 e0       	ldi	r25, 0x00	; 0
      fc:	0e 94 f2 0b 	call	0x17e4	; 0x17e4 <Kernel_Task_Sleep>
     100:	f9 cf       	rjmp	.-14     	; 0xf4 <Task_Sensor+0x4>

00000102 <Task_Radio>:
    Kernel_Task_Sleep(30000/KER_TICK_TIME);
	
  }
}

void Task_Radio(void){
     102:	0f 93       	push	r16
     104:	1f 93       	push	r17
     106:	df 93       	push	r29
     108:	cf 93       	push	r28
     10a:	cd b7       	in	r28, 0x3d	; 61
     10c:	de b7       	in	r29, 0x3e	; 62
     10e:	a0 97       	sbiw	r28, 0x20	; 32
     110:	0f b6       	in	r0, 0x3f	; 63
     112:	f8 94       	cli
     114:	de bf       	out	0x3e, r29	; 62
     116:	0f be       	out	0x3f, r0	; 63
     118:	cd bf       	out	0x3d, r28	; 61
  int16_t  DTemp;
  uint16_t DRH;
  uint8_t  buf[32];

  //Radio init with deep sleep
  nRF24L01P_Init();
     11a:	0e 94 34 04 	call	0x868	; 0x868 <nRF24L01P_Init>
    Debug_Tx_Byte(buf[5]);
    Debug_Tx_Byte(buf[6]);
    Debug_Tx_Byte(buf[7]);

    nRF24L01P_WakeUp();
    nRF24L01P_Transmit_Basic(buf, 8);
     11e:	8e 01       	movw	r16, r28
     120:	0f 5f       	subi	r16, 0xFF	; 255
     122:	1f 4f       	sbci	r17, 0xFF	; 255
  nRF24L01P_Init();

  while(1){
    
    //Process Vin Data
    Vin = Peripherals_Vin_RawADC_Get();
     124:	0e 94 2b 06 	call	0xc56	; 0xc56 <Peripherals_Vin_RawADC_Get>
    buf[0] = Vin >> 8;
     128:	99 83       	std	Y+1, r25	; 0x01
    buf[1] = Vin & 0xFF;
     12a:	8a 83       	std	Y+2, r24	; 0x02

    //Process Analog Temp Data
    ATemp = Peripherals_Analog_Temp_Get();
     12c:	0e 94 30 06 	call	0xc60	; 0xc60 <Peripherals_Analog_Temp_Get>
    buf[2] = ATemp >> 8;
     130:	29 2f       	mov	r18, r25
     132:	33 27       	eor	r19, r19
     134:	27 fd       	sbrc	r18, 7
     136:	3a 95       	dec	r19
     138:	2b 83       	std	Y+3, r18	; 0x03
    buf[3] = ATemp & 0xFF;
     13a:	8c 83       	std	Y+4, r24	; 0x04
    
    //Process Digital Temp Data
    DTemp = Peripherals_Digital_Temp_Get();
     13c:	0e 94 33 06 	call	0xc66	; 0xc66 <Peripherals_Digital_Temp_Get>
    buf[4] = DTemp >> 8;
     140:	29 2f       	mov	r18, r25
     142:	33 27       	eor	r19, r19
     144:	27 fd       	sbrc	r18, 7
     146:	3a 95       	dec	r19
     148:	2d 83       	std	Y+5, r18	; 0x05
    buf[5] = DTemp & 0xFF;
     14a:	8e 83       	std	Y+6, r24	; 0x06

    //Process Digital RH Data
    DRH = Peripherals_Digital_RH_Get();
     14c:	0e 94 36 06 	call	0xc6c	; 0xc6c <Peripherals_Digital_RH_Get>
    buf[6] = DRH >> 8;
     150:	9f 83       	std	Y+7, r25	; 0x07
    buf[7] = DRH & 0xFF;
     152:	88 87       	std	Y+8, r24	; 0x08
    
    Debug_Tx_Byte(buf[0]);
     154:	89 81       	ldd	r24, Y+1	; 0x01
     156:	0e 94 dc 0d 	call	0x1bb8	; 0x1bb8 <Debug_Tx_Byte>
    Debug_Tx_Byte(buf[1]);
     15a:	8a 81       	ldd	r24, Y+2	; 0x02
     15c:	0e 94 dc 0d 	call	0x1bb8	; 0x1bb8 <Debug_Tx_Byte>
    Debug_Tx_Byte(buf[2]);
     160:	8b 81       	ldd	r24, Y+3	; 0x03
     162:	0e 94 dc 0d 	call	0x1bb8	; 0x1bb8 <Debug_Tx_Byte>
    Debug_Tx_Byte(buf[3]);
     166:	8c 81       	ldd	r24, Y+4	; 0x04
     168:	0e 94 dc 0d 	call	0x1bb8	; 0x1bb8 <Debug_Tx_Byte>
    Debug_Tx_Byte(buf[4]);
     16c:	8d 81       	ldd	r24, Y+5	; 0x05
     16e:	0e 94 dc 0d 	call	0x1bb8	; 0x1bb8 <Debug_Tx_Byte>
    Debug_Tx_Byte(buf[5]);
     172:	8e 81       	ldd	r24, Y+6	; 0x06
     174:	0e 94 dc 0d 	call	0x1bb8	; 0x1bb8 <Debug_Tx_Byte>
    Debug_Tx_Byte(buf[6]);
     178:	8f 81       	ldd	r24, Y+7	; 0x07
     17a:	0e 94 dc 0d 	call	0x1bb8	; 0x1bb8 <Debug_Tx_Byte>
    Debug_Tx_Byte(buf[7]);
     17e:	88 85       	ldd	r24, Y+8	; 0x08
     180:	0e 94 dc 0d 	call	0x1bb8	; 0x1bb8 <Debug_Tx_Byte>

    nRF24L01P_WakeUp();
     184:	0e 94 28 04 	call	0x850	; 0x850 <nRF24L01P_WakeUp>
    nRF24L01P_Transmit_Basic(buf, 8);
     188:	c8 01       	movw	r24, r16
     18a:	68 e0       	ldi	r22, 0x08	; 8
     18c:	0e 94 0e 05 	call	0xa1c	; 0xa1c <nRF24L01P_Transmit_Basic>
    nRF24L01P_Deep_Sleep();
     190:	0e 94 1c 04 	call	0x838	; 0x838 <nRF24L01P_Deep_Sleep>
    Kernel_Task_Sleep(60000/KER_TICK_TIME);
     194:	8c e3       	ldi	r24, 0x3C	; 60
     196:	90 e0       	ldi	r25, 0x00	; 0
     198:	0e 94 f2 0b 	call	0x17e4	; 0x17e4 <Kernel_Task_Sleep>
     19c:	c3 cf       	rjmp	.-122    	; 0x124 <Task_Radio+0x22>

0000019e <Task_Vin_Sense>:
}

void Task_Vin_Sense(void){
  
  //Init VinSense
  DDRD  |= (1<<2);
     19e:	52 9a       	sbi	0x0a, 2	; 10

  //Disable VinSense
  PORTD &=~(1<<2);
     1a0:	5a 98       	cbi	0x0b, 2	; 11

  while(1){

    //Vin Sample
    Peripherals_Vin_Sense_Sample();
     1a2:	0e 94 16 06 	call	0xc2c	; 0xc2c <Peripherals_Vin_Sense_Sample>
    
    //Delay 5000ms
    Kernel_Task_Sleep(30000/KER_TICK_TIME);
     1a6:	8e e1       	ldi	r24, 0x1E	; 30
     1a8:	90 e0       	ldi	r25, 0x00	; 0
     1aa:	0e 94 f2 0b 	call	0x17e4	; 0x17e4 <Kernel_Task_Sleep>
     1ae:	f9 cf       	rjmp	.-14     	; 0x1a2 <Task_Vin_Sense+0x4>

000001b0 <Task_RGB_LED>:
void Tasks_Disable_Peripherals(void){
  //ADC and Analog comparator will be
  //turned off automatically by the kernel
}

void Task_RGB_LED(void){
     1b0:	1f 93       	push	r17

  RGB_Init();
     1b2:	0e 94 39 06 	call	0xc72	; 0xc72 <RGB_Init>
    can be achieved.
*/
void
_delay_loop_1(uint8_t __count)
{
	__asm__ volatile (
     1b6:	15 e8       	ldi	r17, 0x85	; 133
  
  while(1){

    //Red LED on
    RGB_Set_State(1,0,0);
     1b8:	81 e0       	ldi	r24, 0x01	; 1
     1ba:	60 e0       	ldi	r22, 0x00	; 0
     1bc:	40 e0       	ldi	r20, 0x00	; 0
     1be:	0e 94 40 06 	call	0xc80	; 0xc80 <RGB_Set_State>
     1c2:	81 2f       	mov	r24, r17
     1c4:	8a 95       	dec	r24
     1c6:	f1 f7       	brne	.-4      	; 0x1c4 <Task_RGB_LED+0x14>

    //Blocking delay
    _delay_us(100);

    //Red LED off
    RGB_Set_State(0,0,0);
     1c8:	80 e0       	ldi	r24, 0x00	; 0
     1ca:	60 e0       	ldi	r22, 0x00	; 0
     1cc:	40 e0       	ldi	r20, 0x00	; 0
     1ce:	0e 94 40 06 	call	0xc80	; 0xc80 <RGB_Set_State>

    //Delay 5000 ms
    Kernel_Task_Sleep(5000/KER_TICK_TIME);
     1d2:	85 e0       	ldi	r24, 0x05	; 5
     1d4:	90 e0       	ldi	r25, 0x00	; 0
     1d6:	0e 94 f2 0b 	call	0x17e4	; 0x17e4 <Kernel_Task_Sleep>
     1da:	ee cf       	rjmp	.-36     	; 0x1b8 <Task_RGB_LED+0x8>

000001dc <nRF24L01P_Struct_Init>:

nrf24l01p_t nRF24L01P_type;
nrf24l01p_t *nRF24L01P;

void nRF24L01P_Struct_Init(void){
  nRF24L01P=&nRF24L01P_type;
     1dc:	87 e8       	ldi	r24, 0x87	; 135
     1de:	96 e0       	ldi	r25, 0x06	; 6
     1e0:	90 93 9b 06 	sts	0x069B, r25
     1e4:	80 93 9a 06 	sts	0x069A, r24
  nRF24L01P->Mode=0x04;
     1e8:	84 e0       	ldi	r24, 0x04	; 4
     1ea:	80 93 87 06 	sts	0x0687, r24
  nRF24L01P->TempBuf[0]=0x00;
     1ee:	10 92 88 06 	sts	0x0688, r1
  nRF24L01P->TempBuf[1]=0x00;
     1f2:	10 92 89 06 	sts	0x0689, r1
  nRF24L01P->Address.Own=0x00;
     1f6:	10 92 8a 06 	sts	0x068A, r1
  nRF24L01P->Address.Dest=0x01;
     1fa:	21 e0       	ldi	r18, 0x01	; 1
     1fc:	20 93 8b 06 	sts	0x068B, r18
  nRF24L01P->Config.RxTimeout=10;
     200:	8a e0       	ldi	r24, 0x0A	; 10
     202:	90 e0       	ldi	r25, 0x00	; 0
     204:	90 93 8d 06 	sts	0x068D, r25
     208:	80 93 8c 06 	sts	0x068C, r24
  nRF24L01P->Config.RxTicks=0;
     20c:	10 92 8f 06 	sts	0x068F, r1
     210:	10 92 8e 06 	sts	0x068E, r1
  nRF24L01P->Config.MaxDataLength=0;
     214:	10 92 90 06 	sts	0x0690, r1
  nRF24L01P->Config.MaxRetry=0;
     218:	10 92 92 06 	sts	0x0692, r1
     21c:	10 92 91 06 	sts	0x0691, r1
  nRF24L01P->Config.RetryOccured=0;
     220:	10 92 94 06 	sts	0x0694, r1
     224:	10 92 93 06 	sts	0x0693, r1
  nRF24L01P->Packet.PID=0;
     228:	10 92 95 06 	sts	0x0695, r1
  nRF24L01P->Packet.ACKReq=1;
     22c:	20 93 96 06 	sts	0x0696, r18
  nRF24L01P->ErrorTicks=0;
     230:	10 92 98 06 	sts	0x0698, r1
     234:	10 92 97 06 	sts	0x0697, r1
  nRF24L01P->Error=0;
     238:	10 92 99 06 	sts	0x0699, r1
}
     23c:	08 95       	ret

0000023e <nRF24L01P_CSN_High>:

void nRF24L01P_CSN_High(void){
  nRF24L01P_CSN_PORT|= (1<<nRF24L01P_CSN_bp);
     23e:	2a 9a       	sbi	0x05, 2	; 5
}
     240:	08 95       	ret

00000242 <nRF24L01P_CSN_Low>:

void nRF24L01P_CSN_Low(void){
  nRF24L01P_CSN_PORT&=~(1<<nRF24L01P_CSN_bp);
     242:	2a 98       	cbi	0x05, 2	; 5
}
     244:	08 95       	ret

00000246 <nRF24L01P_CE_High>:

void nRF24L01P_CE_High(void){
  nRF24L01P_CE_PORT|= (1<<nRF24L01P_CE_bp);
     246:	29 9a       	sbi	0x05, 1	; 5
}
     248:	08 95       	ret

0000024a <nRF24L01P_CE_Low>:

void nRF24L01P_CE_Low(void){
  nRF24L01P_CE_PORT&=~(1<<nRF24L01P_CE_bp);
     24a:	29 98       	cbi	0x05, 1	; 5
}
     24c:	08 95       	ret

0000024e <nRF24L01P_Enable_GPIO>:

void nRF24L01P_Enable_GPIO(void){
  DDRB |= (1<<5)|(1<<3)|(1<<2);
     24e:	84 b1       	in	r24, 0x04	; 4
     250:	8c 62       	ori	r24, 0x2C	; 44
     252:	84 b9       	out	0x04, r24	; 4
  DDRB &=~(1<<4);
     254:	24 98       	cbi	0x04, 4	; 4
  nRF24L01P_CSN_DDR |= (1<<nRF24L01P_CSN_bp);
     256:	22 9a       	sbi	0x04, 2	; 4
  nRF24L01P_CE_DDR  |= (1<<nRF24L01P_CE_bp) ;
     258:	21 9a       	sbi	0x04, 1	; 4
  nRF24L01P->ErrorTicks=0;
  nRF24L01P->Error=0;
}

void nRF24L01P_CSN_High(void){
  nRF24L01P_CSN_PORT|= (1<<nRF24L01P_CSN_bp);
     25a:	2a 9a       	sbi	0x05, 2	; 5
void nRF24L01P_CE_High(void){
  nRF24L01P_CE_PORT|= (1<<nRF24L01P_CE_bp);
}

void nRF24L01P_CE_Low(void){
  nRF24L01P_CE_PORT&=~(1<<nRF24L01P_CE_bp);
     25c:	29 98       	cbi	0x05, 1	; 5
  DDRB &=~(1<<4);
  nRF24L01P_CSN_DDR |= (1<<nRF24L01P_CSN_bp);
  nRF24L01P_CE_DDR  |= (1<<nRF24L01P_CE_bp) ;
  nRF24L01P_CSN_High();
  nRF24L01P_CE_Low()  ;
}
     25e:	08 95       	ret

00000260 <nRF24L01P_Disable_GPIO>:

void nRF24L01P_Disable_GPIO(void){
  DDRB |= (1<<4);                              
     260:	24 9a       	sbi	0x04, 4	; 4
  PORTB&=~((1<<5)|(1<<4)|(1<<3)|(1<<2));
     262:	85 b1       	in	r24, 0x05	; 5
     264:	83 7c       	andi	r24, 0xC3	; 195
     266:	85 b9       	out	0x05, r24	; 5
  nRF24L01P->ErrorTicks=0;
  nRF24L01P->Error=0;
}

void nRF24L01P_CSN_High(void){
  nRF24L01P_CSN_PORT|= (1<<nRF24L01P_CSN_bp);
     268:	2a 9a       	sbi	0x05, 2	; 5
void nRF24L01P_CE_High(void){
  nRF24L01P_CE_PORT|= (1<<nRF24L01P_CE_bp);
}

void nRF24L01P_CE_Low(void){
  nRF24L01P_CE_PORT&=~(1<<nRF24L01P_CE_bp);
     26a:	29 98       	cbi	0x05, 1	; 5
void nRF24L01P_Disable_GPIO(void){
  DDRB |= (1<<4);                              
  PORTB&=~((1<<5)|(1<<4)|(1<<3)|(1<<2));
  nRF24L01P_CSN_High(); 
  nRF24L01P_CE_Low() ;  
}
     26c:	08 95       	ret

0000026e <nRF24L01P_Enable_SPI>:

void nRF24L01P_Enable_SPI(void){
  SPCR=(1<<SPE)|(1<<MSTR);                     
     26e:	80 e5       	ldi	r24, 0x50	; 80
     270:	8c bd       	out	0x2c, r24	; 44
  SPSR=(1<<SPI2X);                             
     272:	81 e0       	ldi	r24, 0x01	; 1
     274:	8d bd       	out	0x2d, r24	; 45
}
     276:	08 95       	ret

00000278 <nRF24L01P_Disable_SPI>:

void nRF24L01P_Disable_SPI(void){                 
  SPCR=0x00;
     278:	1c bc       	out	0x2c, r1	; 44
  SPSR=0x00;
     27a:	1d bc       	out	0x2d, r1	; 45
}
     27c:	08 95       	ret

0000027e <nRF24L01P_Enable>:

void nRF24L01P_Enable(void){
  nRF24L01P_Enable_GPIO();
     27e:	0e 94 27 01 	call	0x24e	; 0x24e <nRF24L01P_Enable_GPIO>
  nRF24L01P_CSN_High(); 
  nRF24L01P_CE_Low() ;  
}

void nRF24L01P_Enable_SPI(void){
  SPCR=(1<<SPE)|(1<<MSTR);                     
     282:	80 e5       	ldi	r24, 0x50	; 80
     284:	8c bd       	out	0x2c, r24	; 44
  SPSR=(1<<SPI2X);                             
     286:	81 e0       	ldi	r24, 0x01	; 1
     288:	8d bd       	out	0x2d, r24	; 45
}

void nRF24L01P_Enable(void){
  nRF24L01P_Enable_GPIO();
  nRF24L01P_Enable_SPI();
}
     28a:	08 95       	ret

0000028c <nRF24L01P_Disable>:
  SPCR=(1<<SPE)|(1<<MSTR);                     
  SPSR=(1<<SPI2X);                             
}

void nRF24L01P_Disable_SPI(void){                 
  SPCR=0x00;
     28c:	1c bc       	out	0x2c, r1	; 44
  SPSR=0x00;
     28e:	1d bc       	out	0x2d, r1	; 45
  nRF24L01P_Enable_SPI();
}

void nRF24L01P_Disable(void){
  nRF24L01P_Disable_SPI();
  nRF24L01P_Disable_GPIO();
     290:	0e 94 30 01 	call	0x260	; 0x260 <nRF24L01P_Disable_GPIO>
}
     294:	08 95       	ret

00000296 <nRF24L01P_Error_Clear>:

void nRF24L01P_Error_Clear(void){
  nRF24L01P->ErrorTicks=0;
     296:	e0 91 9a 06 	lds	r30, 0x069A
     29a:	f0 91 9b 06 	lds	r31, 0x069B
     29e:	11 8a       	std	Z+17, r1	; 0x11
     2a0:	10 8a       	std	Z+16, r1	; 0x10
  nRF24L01P->Error=0;
     2a2:	12 8a       	std	Z+18, r1	; 0x12
}
     2a4:	08 95       	ret

000002a6 <nRF24L01P_Get_Error>:

uint8_t nRF24L01P_Get_Error(void){
     2a6:	e0 91 9a 06 	lds	r30, 0x069A
     2aa:	f0 91 9b 06 	lds	r31, 0x069B
  return nRF24L01P->Error;
}
     2ae:	82 89       	ldd	r24, Z+18	; 0x12
     2b0:	08 95       	ret

000002b2 <nRF24L01P_No_Error>:

uint8_t nRF24L01P_No_Error(void){
     2b2:	90 e0       	ldi	r25, 0x00	; 0
     2b4:	e0 91 9a 06 	lds	r30, 0x069A
     2b8:	f0 91 9b 06 	lds	r31, 0x069B
     2bc:	82 89       	ldd	r24, Z+18	; 0x12
     2be:	88 23       	and	r24, r24
     2c0:	09 f4       	brne	.+2      	; 0x2c4 <nRF24L01P_No_Error+0x12>
     2c2:	91 e0       	ldi	r25, 0x01	; 1
  if(nRF24L01P_Get_Error()==0){
    return 1;
  }else{
    return 0;
  }
}
     2c4:	89 2f       	mov	r24, r25
     2c6:	08 95       	ret

000002c8 <nRF24L01P_Error_Timeout>:
     2c8:	81 e0       	ldi	r24, 0x01	; 1
     2ca:	8a 95       	dec	r24
     2cc:	f1 f7       	brne	.-4      	; 0x2ca <nRF24L01P_Error_Timeout+0x2>

uint8_t nRF24L01P_Error_Timeout(void){
  _delay_us(1);
  nRF24L01P->ErrorTicks++;
     2ce:	e0 91 9a 06 	lds	r30, 0x069A
     2d2:	f0 91 9b 06 	lds	r31, 0x069B
     2d6:	80 89       	ldd	r24, Z+16	; 0x10
     2d8:	91 89       	ldd	r25, Z+17	; 0x11
     2da:	01 96       	adiw	r24, 0x01	; 1
     2dc:	91 8b       	std	Z+17, r25	; 0x11
     2de:	80 8b       	std	Z+16, r24	; 0x10
  if(nRF24L01P->ErrorTicks>1000){
     2e0:	89 5e       	subi	r24, 0xE9	; 233
     2e2:	93 40       	sbci	r25, 0x03	; 3
     2e4:	20 f0       	brcs	.+8      	; 0x2ee <nRF24L01P_Error_Timeout+0x26>
    nRF24L01P->ErrorTicks=0;
     2e6:	11 8a       	std	Z+17, r1	; 0x11
     2e8:	10 8a       	std	Z+16, r1	; 0x10
    nRF24L01P->Error=0x10;
     2ea:	80 e1       	ldi	r24, 0x10	; 16
     2ec:	82 8b       	std	Z+18, r24	; 0x12
  }
  return nRF24L01P->Error;
}
     2ee:	82 89       	ldd	r24, Z+18	; 0x12
     2f0:	08 95       	ret

000002f2 <nRF24L01P_SPI_Transfer>:

uint8_t nRF24L01P_SPI_Transfer(uint8_t data){
     2f2:	98 2f       	mov	r25, r24
  nRF24L01P->ErrorTicks=0;
  nRF24L01P->Error=0;
}

uint8_t nRF24L01P_Get_Error(void){
  return nRF24L01P->Error;
     2f4:	e0 91 9a 06 	lds	r30, 0x069A
     2f8:	f0 91 9b 06 	lds	r31, 0x069B
}

uint8_t nRF24L01P_No_Error(void){
  if(nRF24L01P_Get_Error()==0){
     2fc:	82 89       	ldd	r24, Z+18	; 0x12
     2fe:	88 23       	and	r24, r24
     300:	a9 f4       	brne	.+42     	; 0x32c <nRF24L01P_SPI_Transfer+0x3a>
}

uint8_t nRF24L01P_SPI_Transfer(uint8_t data){
  uint8_t sts=0;
  if(nRF24L01P_No_Error()){
    SPDR = data;
     302:	9e bd       	out	0x2e, r25	; 46
  nRF24L01P_Disable_SPI();
  nRF24L01P_Disable_GPIO();
}

void nRF24L01P_Error_Clear(void){
  nRF24L01P->ErrorTicks=0;
     304:	11 8a       	std	Z+17, r1	; 0x11
     306:	10 8a       	std	Z+16, r1	; 0x10
  nRF24L01P->Error=0;
     308:	12 8a       	std	Z+18, r1	; 0x12
     30a:	04 c0       	rjmp	.+8      	; 0x314 <nRF24L01P_SPI_Transfer+0x22>
  uint8_t sts=0;
  if(nRF24L01P_No_Error()){
    SPDR = data;
    nRF24L01P_Error_Clear();
    while(!(SPSR & (1 << SPIF))){
      if(nRF24L01P_Error_Timeout()){
     30c:	0e 94 64 01 	call	0x2c8	; 0x2c8 <nRF24L01P_Error_Timeout>
     310:	88 23       	and	r24, r24
     312:	19 f4       	brne	.+6      	; 0x31a <nRF24L01P_SPI_Transfer+0x28>
uint8_t nRF24L01P_SPI_Transfer(uint8_t data){
  uint8_t sts=0;
  if(nRF24L01P_No_Error()){
    SPDR = data;
    nRF24L01P_Error_Clear();
    while(!(SPSR & (1 << SPIF))){
     314:	0d b4       	in	r0, 0x2d	; 45
     316:	07 fe       	sbrs	r0, 7
     318:	f9 cf       	rjmp	.-14     	; 0x30c <nRF24L01P_SPI_Transfer+0x1a>
uint8_t nRF24L01P_Get_Error(void){
  return nRF24L01P->Error;
}

uint8_t nRF24L01P_No_Error(void){
  if(nRF24L01P_Get_Error()==0){
     31a:	e0 91 9a 06 	lds	r30, 0x069A
     31e:	f0 91 9b 06 	lds	r31, 0x069B
     322:	82 89       	ldd	r24, Z+18	; 0x12
     324:	88 23       	and	r24, r24
     326:	11 f4       	brne	.+4      	; 0x32c <nRF24L01P_SPI_Transfer+0x3a>
	    sts=0;
	    break;
	  }
    }
    if(nRF24L01P_No_Error()){
      sts=SPDR;
     328:	8e b5       	in	r24, 0x2e	; 46
     32a:	08 95       	ret
     32c:	80 e0       	ldi	r24, 0x00	; 0
    }
  }else{
    sts=0;
  }
  return sts;
}
     32e:	08 95       	ret

00000330 <nRF24L01P_Calcuate_CRC>:

uint16_t nRF24L01P_Calcuate_CRC(uint16_t crc, uint8_t data){
  crc=crc^((uint16_t)data<<8);
     330:	36 2f       	mov	r19, r22
     332:	20 e0       	ldi	r18, 0x00	; 0
     334:	28 27       	eor	r18, r24
     336:	39 27       	eor	r19, r25
     338:	40 e0       	ldi	r20, 0x00	; 0
  for(uint8_t i=0;i<8;i++){
    if(crc & 0x8000){
	  crc=(crc<<1)^0x1021;
     33a:	61 e2       	ldi	r22, 0x21	; 33
     33c:	70 e1       	ldi	r23, 0x10	; 16
     33e:	c9 01       	movw	r24, r18
     340:	88 0f       	add	r24, r24
     342:	99 1f       	adc	r25, r25
}

uint16_t nRF24L01P_Calcuate_CRC(uint16_t crc, uint8_t data){
  crc=crc^((uint16_t)data<<8);
  for(uint8_t i=0;i<8;i++){
    if(crc & 0x8000){
     344:	37 ff       	sbrs	r19, 7
     346:	04 c0       	rjmp	.+8      	; 0x350 <nRF24L01P_Calcuate_CRC+0x20>
	  crc=(crc<<1)^0x1021;
     348:	9c 01       	movw	r18, r24
     34a:	26 27       	eor	r18, r22
     34c:	37 27       	eor	r19, r23
     34e:	01 c0       	rjmp	.+2      	; 0x352 <nRF24L01P_Calcuate_CRC+0x22>
	}
    else{
	  crc<<=1;
     350:	9c 01       	movw	r18, r24
  return sts;
}

uint16_t nRF24L01P_Calcuate_CRC(uint16_t crc, uint8_t data){
  crc=crc^((uint16_t)data<<8);
  for(uint8_t i=0;i<8;i++){
     352:	4f 5f       	subi	r20, 0xFF	; 255
     354:	48 30       	cpi	r20, 0x08	; 8
     356:	99 f7       	brne	.-26     	; 0x33e <nRF24L01P_Calcuate_CRC+0xe>
    else{
	  crc<<=1;
	}
  }
  return crc;
}
     358:	c9 01       	movw	r24, r18
     35a:	08 95       	ret

0000035c <nRF24L01P_Calcuate_CRC_Block>:

uint16_t nRF24L01P_Calcuate_CRC_Block(uint8_t *buf, uint8_t len){
     35c:	0f 93       	push	r16
     35e:	1f 93       	push	r17
     360:	cf 93       	push	r28
     362:	df 93       	push	r29
     364:	06 2f       	mov	r16, r22
     366:	ec 01       	movw	r28, r24
     368:	20 e0       	ldi	r18, 0x00	; 0
     36a:	30 e0       	ldi	r19, 0x00	; 0
     36c:	10 e0       	ldi	r17, 0x00	; 0
     36e:	06 c0       	rjmp	.+12     	; 0x37c <nRF24L01P_Calcuate_CRC_Block+0x20>
  uint16_t crc=0;
  for(uint8_t i=0;i<len;i++){
    crc=nRF24L01P_Calcuate_CRC(crc,buf[i]);
     370:	c9 01       	movw	r24, r18
     372:	69 91       	ld	r22, Y+
     374:	0e 94 98 01 	call	0x330	; 0x330 <nRF24L01P_Calcuate_CRC>
     378:	9c 01       	movw	r18, r24
  return crc;
}

uint16_t nRF24L01P_Calcuate_CRC_Block(uint8_t *buf, uint8_t len){
  uint16_t crc=0;
  for(uint8_t i=0;i<len;i++){
     37a:	1f 5f       	subi	r17, 0xFF	; 255
     37c:	10 17       	cp	r17, r16
     37e:	c0 f3       	brcs	.-16     	; 0x370 <nRF24L01P_Calcuate_CRC_Block+0x14>
    crc=nRF24L01P_Calcuate_CRC(crc,buf[i]);
  }
  return crc;
}
     380:	c9 01       	movw	r24, r18
     382:	df 91       	pop	r29
     384:	cf 91       	pop	r28
     386:	1f 91       	pop	r17
     388:	0f 91       	pop	r16
     38a:	08 95       	ret

0000038c <nRF24L01P_ReadWrite_Register>:


void nRF24L01P_ReadWrite_Register(uint8_t reg, uint8_t rw, uint8_t *data, uint8_t len){
     38c:	ff 92       	push	r15
     38e:	0f 93       	push	r16
     390:	1f 93       	push	r17
     392:	cf 93       	push	r28
     394:	df 93       	push	r29
     396:	98 2f       	mov	r25, r24
     398:	14 2f       	mov	r17, r20
     39a:	05 2f       	mov	r16, r21
     39c:	f2 2e       	mov	r15, r18
uint8_t nRF24L01P_Get_Error(void){
  return nRF24L01P->Error;
}

uint8_t nRF24L01P_No_Error(void){
  if(nRF24L01P_Get_Error()==0){
     39e:	e0 91 9a 06 	lds	r30, 0x069A
     3a2:	f0 91 9b 06 	lds	r31, 0x069B
     3a6:	82 89       	ldd	r24, Z+18	; 0x12
     3a8:	88 23       	and	r24, r24
     3aa:	29 f5       	brne	.+74     	; 0x3f6 <KER_TR+0xe>
void nRF24L01P_CSN_High(void){
  nRF24L01P_CSN_PORT|= (1<<nRF24L01P_CSN_bp);
}

void nRF24L01P_CSN_Low(void){
  nRF24L01P_CSN_PORT&=~(1<<nRF24L01P_CSN_bp);
     3ac:	2a 98       	cbi	0x05, 2	; 5


void nRF24L01P_ReadWrite_Register(uint8_t reg, uint8_t rw, uint8_t *data, uint8_t len){
  if(nRF24L01P_No_Error()){
    nRF24L01P_CSN_Low();
    if(rw==0){
     3ae:	66 23       	and	r22, r22
     3b0:	89 f4       	brne	.+34     	; 0x3d4 <nRF24L01P_ReadWrite_Register+0x48>
      reg|=0x20;
	  nRF24L01P_SPI_Transfer(reg);
     3b2:	89 2f       	mov	r24, r25
     3b4:	80 62       	ori	r24, 0x20	; 32
     3b6:	0e 94 79 01 	call	0x2f2	; 0x2f2 <nRF24L01P_SPI_Transfer>
     3ba:	81 2f       	mov	r24, r17
     3bc:	90 2f       	mov	r25, r16
     3be:	9c 01       	movw	r18, r24
     3c0:	e9 01       	movw	r28, r18
     3c2:	10 e0       	ldi	r17, 0x00	; 0
     3c4:	04 c0       	rjmp	.+8      	; 0x3ce <nRF24L01P_ReadWrite_Register+0x42>
	  for(uint8_t i=0;i<len;i++){
	    nRF24L01P_SPI_Transfer(data[i]);
     3c6:	89 91       	ld	r24, Y+
     3c8:	0e 94 79 01 	call	0x2f2	; 0x2f2 <nRF24L01P_SPI_Transfer>
  if(nRF24L01P_No_Error()){
    nRF24L01P_CSN_Low();
    if(rw==0){
      reg|=0x20;
	  nRF24L01P_SPI_Transfer(reg);
	  for(uint8_t i=0;i<len;i++){
     3cc:	1f 5f       	subi	r17, 0xFF	; 255
     3ce:	1f 15       	cp	r17, r15
     3d0:	d0 f3       	brcs	.-12     	; 0x3c6 <nRF24L01P_ReadWrite_Register+0x3a>
     3d2:	10 c0       	rjmp	.+32     	; 0x3f4 <KER_TR+0xc>
	    nRF24L01P_SPI_Transfer(data[i]);
	  }
    }else{
      nRF24L01P_SPI_Transfer(reg);
     3d4:	89 2f       	mov	r24, r25
     3d6:	0e 94 79 01 	call	0x2f2	; 0x2f2 <nRF24L01P_SPI_Transfer>
     3da:	81 2f       	mov	r24, r17
     3dc:	90 2f       	mov	r25, r16
     3de:	9c 01       	movw	r18, r24
     3e0:	e9 01       	movw	r28, r18
     3e2:	10 e0       	ldi	r17, 0x00	; 0
     3e4:	05 c0       	rjmp	.+10     	; 0x3f0 <KER_TR+0x8>
      for(uint8_t i=0;i<len;i++){
        data[i]=nRF24L01P_SPI_Transfer(0xFF);
     3e6:	8f ef       	ldi	r24, 0xFF	; 255
     3e8:	0e 94 79 01 	call	0x2f2	; 0x2f2 <nRF24L01P_SPI_Transfer>
     3ec:	89 93       	st	Y+, r24
	  for(uint8_t i=0;i<len;i++){
	    nRF24L01P_SPI_Transfer(data[i]);
	  }
    }else{
      nRF24L01P_SPI_Transfer(reg);
      for(uint8_t i=0;i<len;i++){
     3ee:	1f 5f       	subi	r17, 0xFF	; 255
     3f0:	1f 15       	cp	r17, r15
     3f2:	c8 f3       	brcs	.-14     	; 0x3e6 <nRF24L01P_ReadWrite_Register+0x5a>
  nRF24L01P->ErrorTicks=0;
  nRF24L01P->Error=0;
}

void nRF24L01P_CSN_High(void){
  nRF24L01P_CSN_PORT|= (1<<nRF24L01P_CSN_bp);
     3f4:	2a 9a       	sbi	0x05, 2	; 5
        data[i]=nRF24L01P_SPI_Transfer(0xFF);
      }
    }
    nRF24L01P_CSN_High();
  }
}
     3f6:	df 91       	pop	r29
     3f8:	cf 91       	pop	r28
     3fa:	1f 91       	pop	r17
     3fc:	0f 91       	pop	r16
     3fe:	ff 90       	pop	r15
     400:	08 95       	ret

00000402 <nRF24L01P_Flush_Transmit_Buffer>:
  nRF24L01P->ErrorTicks=0;
  nRF24L01P->Error=0;
}

uint8_t nRF24L01P_Get_Error(void){
  return nRF24L01P->Error;
     402:	e0 91 9a 06 	lds	r30, 0x069A
     406:	f0 91 9b 06 	lds	r31, 0x069B
}

uint8_t nRF24L01P_No_Error(void){
  if(nRF24L01P_Get_Error()==0){
     40a:	82 89       	ldd	r24, Z+18	; 0x12
     40c:	88 23       	and	r24, r24
     40e:	39 f4       	brne	.+14     	; 0x41e <nRF24L01P_Flush_Transmit_Buffer+0x1c>
  }
}

void nRF24L01P_Flush_Transmit_Buffer(void){
  if(nRF24L01P_No_Error()){
    nRF24L01P_ReadWrite_Register(0xE1,0,nRF24L01P->TempBuf,0);
     410:	31 96       	adiw	r30, 0x01	; 1
     412:	81 ee       	ldi	r24, 0xE1	; 225
     414:	60 e0       	ldi	r22, 0x00	; 0
     416:	af 01       	movw	r20, r30
     418:	20 e0       	ldi	r18, 0x00	; 0
     41a:	0e 94 c6 01 	call	0x38c	; 0x38c <nRF24L01P_ReadWrite_Register>
     41e:	08 95       	ret

00000420 <nRF24L01P_Write_Data_To_Transmit_Buffer>:
  }
}

void nRF24L01P_Write_Data_To_Transmit_Buffer(uint8_t *data){
     420:	ac 01       	movw	r20, r24
uint8_t nRF24L01P_Get_Error(void){
  return nRF24L01P->Error;
}

uint8_t nRF24L01P_No_Error(void){
  if(nRF24L01P_Get_Error()==0){
     422:	e0 91 9a 06 	lds	r30, 0x069A
     426:	f0 91 9b 06 	lds	r31, 0x069B
     42a:	82 89       	ldd	r24, Z+18	; 0x12
     42c:	88 23       	and	r24, r24
     42e:	29 f4       	brne	.+10     	; 0x43a <nRF24L01P_Write_Data_To_Transmit_Buffer+0x1a>
  }
}

void nRF24L01P_Write_Data_To_Transmit_Buffer(uint8_t *data){
  if(nRF24L01P_No_Error()){
    nRF24L01P_ReadWrite_Register(0xA0,0,data,32);
     430:	80 ea       	ldi	r24, 0xA0	; 160
     432:	60 e0       	ldi	r22, 0x00	; 0
     434:	20 e2       	ldi	r18, 0x20	; 32
     436:	0e 94 c6 01 	call	0x38c	; 0x38c <nRF24L01P_ReadWrite_Register>
     43a:	08 95       	ret

0000043c <nRF24L01P_Transmit_Buffer_Empty>:
  nRF24L01P->ErrorTicks=0;
  nRF24L01P->Error=0;
}

uint8_t nRF24L01P_Get_Error(void){
  return nRF24L01P->Error;
     43c:	e0 91 9a 06 	lds	r30, 0x069A
     440:	f0 91 9b 06 	lds	r31, 0x069B
}

uint8_t nRF24L01P_No_Error(void){
  if(nRF24L01P_Get_Error()==0){
     444:	82 89       	ldd	r24, Z+18	; 0x12
     446:	88 23       	and	r24, r24
     448:	11 f0       	breq	.+4      	; 0x44e <nRF24L01P_Transmit_Buffer_Empty+0x12>
     44a:	80 e0       	ldi	r24, 0x00	; 0
     44c:	08 95       	ret
  }
}

uint8_t nRF24L01P_Transmit_Buffer_Empty(void){
  if(nRF24L01P_No_Error()){
    nRF24L01P->TempBuf[0]=0;
     44e:	11 82       	std	Z+1, r1	; 0x01
    nRF24L01P_ReadWrite_Register(0x17,1,nRF24L01P->TempBuf,1);
     450:	31 96       	adiw	r30, 0x01	; 1
     452:	87 e1       	ldi	r24, 0x17	; 23
     454:	61 e0       	ldi	r22, 0x01	; 1
     456:	af 01       	movw	r20, r30
     458:	21 e0       	ldi	r18, 0x01	; 1
     45a:	0e 94 c6 01 	call	0x38c	; 0x38c <nRF24L01P_ReadWrite_Register>
     45e:	e0 91 9a 06 	lds	r30, 0x069A
     462:	f0 91 9b 06 	lds	r31, 0x069B
     466:	81 81       	ldd	r24, Z+1	; 0x01
     468:	90 e0       	ldi	r25, 0x00	; 0
     46a:	64 e0       	ldi	r22, 0x04	; 4
     46c:	96 95       	lsr	r25
     46e:	87 95       	ror	r24
     470:	6a 95       	dec	r22
     472:	e1 f7       	brne	.-8      	; 0x46c <nRF24L01P_Transmit_Buffer_Empty+0x30>
     474:	81 70       	andi	r24, 0x01	; 1
      return 0;
    }
  }else{
    return 0;
  }
}
     476:	08 95       	ret

00000478 <nRF24L01P_Wait_Till_Transmission_Completes>:

void nRF24L01P_Wait_Till_Transmission_Completes(void){
     478:	1f 93       	push	r17
uint8_t nRF24L01P_Get_Error(void){
  return nRF24L01P->Error;
}

uint8_t nRF24L01P_No_Error(void){
  if(nRF24L01P_Get_Error()==0){
     47a:	e0 91 9a 06 	lds	r30, 0x069A
     47e:	f0 91 9b 06 	lds	r31, 0x069B
     482:	82 89       	ldd	r24, Z+18	; 0x12
     484:	88 23       	and	r24, r24
     486:	29 f0       	breq	.+10     	; 0x492 <nRF24L01P_Wait_Till_Transmission_Completes+0x1a>
     488:	09 c0       	rjmp	.+18     	; 0x49c <nRF24L01P_Wait_Till_Transmission_Completes+0x24>
     48a:	81 2f       	mov	r24, r17
     48c:	8a 95       	dec	r24
     48e:	f1 f7       	brne	.-4      	; 0x48c <nRF24L01P_Wait_Till_Transmission_Completes+0x14>
     490:	01 c0       	rjmp	.+2      	; 0x494 <nRF24L01P_Wait_Till_Transmission_Completes+0x1c>
     492:	15 e8       	ldi	r17, 0x85	; 133
  }
}

void nRF24L01P_Wait_Till_Transmission_Completes(void){
  if(nRF24L01P_No_Error()){
    while(!nRF24L01P_Transmit_Buffer_Empty()){
     494:	0e 94 1e 02 	call	0x43c	; 0x43c <nRF24L01P_Transmit_Buffer_Empty>
     498:	88 23       	and	r24, r24
     49a:	b9 f3       	breq	.-18     	; 0x48a <nRF24L01P_Wait_Till_Transmission_Completes+0x12>
      _delay_us(100);
    }
  }
}
     49c:	1f 91       	pop	r17
     49e:	08 95       	ret

000004a0 <nRF24L01P_Flush_Receive_Buffer>:
  nRF24L01P->ErrorTicks=0;
  nRF24L01P->Error=0;
}

uint8_t nRF24L01P_Get_Error(void){
  return nRF24L01P->Error;
     4a0:	e0 91 9a 06 	lds	r30, 0x069A
     4a4:	f0 91 9b 06 	lds	r31, 0x069B
}

uint8_t nRF24L01P_No_Error(void){
  if(nRF24L01P_Get_Error()==0){
     4a8:	82 89       	ldd	r24, Z+18	; 0x12
     4aa:	88 23       	and	r24, r24
     4ac:	39 f4       	brne	.+14     	; 0x4bc <nRF24L01P_Flush_Receive_Buffer+0x1c>
  }
}

void nRF24L01P_Flush_Receive_Buffer(void){
  if(nRF24L01P_No_Error()){
    nRF24L01P_ReadWrite_Register(0xE2,0,nRF24L01P->TempBuf,0);
     4ae:	31 96       	adiw	r30, 0x01	; 1
     4b0:	82 ee       	ldi	r24, 0xE2	; 226
     4b2:	60 e0       	ldi	r22, 0x00	; 0
     4b4:	af 01       	movw	r20, r30
     4b6:	20 e0       	ldi	r18, 0x00	; 0
     4b8:	0e 94 c6 01 	call	0x38c	; 0x38c <nRF24L01P_ReadWrite_Register>
     4bc:	08 95       	ret

000004be <nRF24L01P_Read_Data_From_Receive_Buffer>:
  }
}

void nRF24L01P_Read_Data_From_Receive_Buffer(uint8_t *data){
     4be:	ac 01       	movw	r20, r24
uint8_t nRF24L01P_Get_Error(void){
  return nRF24L01P->Error;
}

uint8_t nRF24L01P_No_Error(void){
  if(nRF24L01P_Get_Error()==0){
     4c0:	e0 91 9a 06 	lds	r30, 0x069A
     4c4:	f0 91 9b 06 	lds	r31, 0x069B
     4c8:	82 89       	ldd	r24, Z+18	; 0x12
     4ca:	88 23       	and	r24, r24
     4cc:	29 f4       	brne	.+10     	; 0x4d8 <nRF24L01P_Read_Data_From_Receive_Buffer+0x1a>
  }
}

void nRF24L01P_Read_Data_From_Receive_Buffer(uint8_t *data){
  if(nRF24L01P_No_Error()){
    nRF24L01P_ReadWrite_Register(0x61,1,data,32);
     4ce:	81 e6       	ldi	r24, 0x61	; 97
     4d0:	61 e0       	ldi	r22, 0x01	; 1
     4d2:	20 e2       	ldi	r18, 0x20	; 32
     4d4:	0e 94 c6 01 	call	0x38c	; 0x38c <nRF24L01P_ReadWrite_Register>
     4d8:	08 95       	ret

000004da <nRF24L01P_Receive_Buffer_Not_Empty>:
  nRF24L01P->ErrorTicks=0;
  nRF24L01P->Error=0;
}

uint8_t nRF24L01P_Get_Error(void){
  return nRF24L01P->Error;
     4da:	e0 91 9a 06 	lds	r30, 0x069A
     4de:	f0 91 9b 06 	lds	r31, 0x069B
}

uint8_t nRF24L01P_No_Error(void){
  if(nRF24L01P_Get_Error()==0){
     4e2:	82 89       	ldd	r24, Z+18	; 0x12
     4e4:	88 23       	and	r24, r24
     4e6:	11 f0       	breq	.+4      	; 0x4ec <nRF24L01P_Receive_Buffer_Not_Empty+0x12>
     4e8:	80 e0       	ldi	r24, 0x00	; 0
     4ea:	08 95       	ret
  }
}

uint8_t nRF24L01P_Receive_Buffer_Not_Empty(void){
  if(nRF24L01P_No_Error()){
    nRF24L01P->TempBuf[0]=0;
     4ec:	11 82       	std	Z+1, r1	; 0x01
    nRF24L01P_ReadWrite_Register(0x17,1,nRF24L01P->TempBuf,1);
     4ee:	31 96       	adiw	r30, 0x01	; 1
     4f0:	87 e1       	ldi	r24, 0x17	; 23
     4f2:	61 e0       	ldi	r22, 0x01	; 1
     4f4:	af 01       	movw	r20, r30
     4f6:	21 e0       	ldi	r18, 0x01	; 1
     4f8:	0e 94 c6 01 	call	0x38c	; 0x38c <nRF24L01P_ReadWrite_Register>
     4fc:	e0 91 9a 06 	lds	r30, 0x069A
     500:	f0 91 9b 06 	lds	r31, 0x069B
     504:	81 81       	ldd	r24, Z+1	; 0x01
     506:	80 95       	com	r24
     508:	81 70       	andi	r24, 0x01	; 1
      return 0;
    }
  }else{
    return 0;
  }
}
     50a:	08 95       	ret

0000050c <nRF24L01P_Get_Mode>:
  nRF24L01P->ErrorTicks=0;
  nRF24L01P->Error=0;
}

uint8_t nRF24L01P_Get_Error(void){
  return nRF24L01P->Error;
     50c:	e0 91 9a 06 	lds	r30, 0x069A
     510:	f0 91 9b 06 	lds	r31, 0x069B
}

uint8_t nRF24L01P_No_Error(void){
  if(nRF24L01P_Get_Error()==0){
     514:	82 89       	ldd	r24, Z+18	; 0x12
     516:	88 23       	and	r24, r24
     518:	11 f0       	breq	.+4      	; 0x51e <nRF24L01P_Get_Mode+0x12>
     51a:	80 e0       	ldi	r24, 0x00	; 0
     51c:	08 95       	ret
  }
}

uint8_t nRF24L01P_Get_Mode(void){
  if(nRF24L01P_No_Error()){
    nRF24L01P_ReadWrite_Register(0x00,1,nRF24L01P->TempBuf,1);
     51e:	31 96       	adiw	r30, 0x01	; 1
     520:	80 e0       	ldi	r24, 0x00	; 0
     522:	61 e0       	ldi	r22, 0x01	; 1
     524:	af 01       	movw	r20, r30
     526:	21 e0       	ldi	r18, 0x01	; 1
     528:	0e 94 c6 01 	call	0x38c	; 0x38c <nRF24L01P_ReadWrite_Register>
    if(nRF24L01P->TempBuf[0] & (1<<1)){
     52c:	e0 91 9a 06 	lds	r30, 0x069A
     530:	f0 91 9b 06 	lds	r31, 0x069B
     534:	81 81       	ldd	r24, Z+1	; 0x01
     536:	81 ff       	sbrs	r24, 1
     538:	07 c0       	rjmp	.+14     	; 0x548 <nRF24L01P_Get_Mode+0x3c>
      if(nRF24L01P->TempBuf[0] & (1<<0)){
     53a:	80 ff       	sbrs	r24, 0
     53c:	02 c0       	rjmp	.+4      	; 0x542 <nRF24L01P_Get_Mode+0x36>
	    nRF24L01P->Mode=0x01;
     53e:	81 e0       	ldi	r24, 0x01	; 1
     540:	01 c0       	rjmp	.+2      	; 0x544 <nRF24L01P_Get_Mode+0x38>
	    return 1; //rx mode
	  }else{
	    nRF24L01P->Mode=0x02;
     542:	82 e0       	ldi	r24, 0x02	; 2
     544:	80 83       	st	Z, r24
     546:	08 95       	ret
	    return 2; //tx mode
	  }
    }else{
      nRF24L01P->Mode=0x00;
     548:	10 82       	st	Z, r1
     54a:	80 e0       	ldi	r24, 0x00	; 0
      return 0; //pwr down
    }
  }else{
    return 0;
  }
}
     54c:	08 95       	ret

0000054e <nRF24L01P_Set_Mode_Sleep>:
  nRF24L01P->ErrorTicks=0;
  nRF24L01P->Error=0;
}

uint8_t nRF24L01P_Get_Error(void){
  return nRF24L01P->Error;
     54e:	e0 91 9a 06 	lds	r30, 0x069A
     552:	f0 91 9b 06 	lds	r31, 0x069B
}

uint8_t nRF24L01P_No_Error(void){
  if(nRF24L01P_Get_Error()==0){
     556:	82 89       	ldd	r24, Z+18	; 0x12
     558:	88 23       	and	r24, r24
     55a:	61 f4       	brne	.+24     	; 0x574 <nRF24L01P_Set_Mode_Sleep+0x26>
  }
}
  
void nRF24L01P_Set_Mode_Sleep(void){
  if(nRF24L01P_No_Error()){
    nRF24L01P->TempBuf[0]=0x00;
     55c:	11 82       	std	Z+1, r1	; 0x01
    nRF24L01P_ReadWrite_Register(0x00,0,nRF24L01P->TempBuf,1);
     55e:	31 96       	adiw	r30, 0x01	; 1
     560:	60 e0       	ldi	r22, 0x00	; 0
     562:	af 01       	movw	r20, r30
     564:	21 e0       	ldi	r18, 0x01	; 1
     566:	0e 94 c6 01 	call	0x38c	; 0x38c <nRF24L01P_ReadWrite_Register>
    nRF24L01P->Mode=0x00;
     56a:	e0 91 9a 06 	lds	r30, 0x069A
     56e:	f0 91 9b 06 	lds	r31, 0x069B
     572:	10 82       	st	Z, r1
     574:	08 95       	ret

00000576 <nRF24L01P_Set_Mode_Tx>:
  nRF24L01P->ErrorTicks=0;
  nRF24L01P->Error=0;
}

uint8_t nRF24L01P_Get_Error(void){
  return nRF24L01P->Error;
     576:	e0 91 9a 06 	lds	r30, 0x069A
     57a:	f0 91 9b 06 	lds	r31, 0x069B
}

uint8_t nRF24L01P_No_Error(void){
  if(nRF24L01P_Get_Error()==0){
     57e:	82 89       	ldd	r24, Z+18	; 0x12
     580:	88 23       	and	r24, r24
     582:	91 f4       	brne	.+36     	; 0x5a8 <nRF24L01P_Set_Mode_Tx+0x32>
  }
}

void nRF24L01P_Set_Mode_Tx(void){
  if(nRF24L01P_No_Error()){
    nRF24L01P->TempBuf[0]=0x72;
     584:	82 e7       	ldi	r24, 0x72	; 114
     586:	81 83       	std	Z+1, r24	; 0x01
void nRF24L01P_CE_High(void){
  nRF24L01P_CE_PORT|= (1<<nRF24L01P_CE_bp);
}

void nRF24L01P_CE_Low(void){
  nRF24L01P_CE_PORT&=~(1<<nRF24L01P_CE_bp);
     588:	29 98       	cbi	0x05, 1	; 5

void nRF24L01P_Set_Mode_Tx(void){
  if(nRF24L01P_No_Error()){
    nRF24L01P->TempBuf[0]=0x72;
    nRF24L01P_CE_Low();
    nRF24L01P_ReadWrite_Register(0x00,0,nRF24L01P->TempBuf,1);
     58a:	31 96       	adiw	r30, 0x01	; 1
     58c:	80 e0       	ldi	r24, 0x00	; 0
     58e:	60 e0       	ldi	r22, 0x00	; 0
     590:	af 01       	movw	r20, r30
     592:	21 e0       	ldi	r18, 0x01	; 1
     594:	0e 94 c6 01 	call	0x38c	; 0x38c <nRF24L01P_ReadWrite_Register>
	  nRF24L01P_Flush_Transmit_Buffer();
     598:	0e 94 01 02 	call	0x402	; 0x402 <nRF24L01P_Flush_Transmit_Buffer>
	  nRF24L01P->Mode=0x02;
     59c:	e0 91 9a 06 	lds	r30, 0x069A
     5a0:	f0 91 9b 06 	lds	r31, 0x069B
     5a4:	82 e0       	ldi	r24, 0x02	; 2
     5a6:	80 83       	st	Z, r24
     5a8:	08 95       	ret

000005aa <nRF24L01P_Set_Mode_Rx>:
  nRF24L01P->ErrorTicks=0;
  nRF24L01P->Error=0;
}

uint8_t nRF24L01P_Get_Error(void){
  return nRF24L01P->Error;
     5aa:	e0 91 9a 06 	lds	r30, 0x069A
     5ae:	f0 91 9b 06 	lds	r31, 0x069B
}

uint8_t nRF24L01P_No_Error(void){
  if(nRF24L01P_Get_Error()==0){
     5b2:	82 89       	ldd	r24, Z+18	; 0x12
     5b4:	88 23       	and	r24, r24
     5b6:	81 f4       	brne	.+32     	; 0x5d8 <nRF24L01P_Set_Mode_Rx+0x2e>
  }
}

void nRF24L01P_Set_Mode_Rx(void){
  if(nRF24L01P_No_Error()){
    nRF24L01P->TempBuf[0]=0x73;
     5b8:	83 e7       	ldi	r24, 0x73	; 115
     5ba:	81 83       	std	Z+1, r24	; 0x01
void nRF24L01P_CSN_Low(void){
  nRF24L01P_CSN_PORT&=~(1<<nRF24L01P_CSN_bp);
}

void nRF24L01P_CE_High(void){
  nRF24L01P_CE_PORT|= (1<<nRF24L01P_CE_bp);
     5bc:	29 9a       	sbi	0x05, 1	; 5

void nRF24L01P_Set_Mode_Rx(void){
  if(nRF24L01P_No_Error()){
    nRF24L01P->TempBuf[0]=0x73;
    nRF24L01P_CE_High();
    nRF24L01P_ReadWrite_Register(0x00,0,nRF24L01P->TempBuf,1);
     5be:	31 96       	adiw	r30, 0x01	; 1
     5c0:	80 e0       	ldi	r24, 0x00	; 0
     5c2:	60 e0       	ldi	r22, 0x00	; 0
     5c4:	af 01       	movw	r20, r30
     5c6:	21 e0       	ldi	r18, 0x01	; 1
     5c8:	0e 94 c6 01 	call	0x38c	; 0x38c <nRF24L01P_ReadWrite_Register>
	  nRF24L01P->Mode=0x01;
     5cc:	e0 91 9a 06 	lds	r30, 0x069A
     5d0:	f0 91 9b 06 	lds	r31, 0x069B
     5d4:	81 e0       	ldi	r24, 0x01	; 1
     5d6:	80 83       	st	Z, r24
     5d8:	08 95       	ret

000005da <nRF24L01P_ReadModifyWrite>:
  }
}

void nRF24L01P_ReadModifyWrite(uint8_t reg, uint8_t bit_pos, uint8_t bit_val){
     5da:	ff 92       	push	r15
     5dc:	0f 93       	push	r16
     5de:	1f 93       	push	r17
     5e0:	f8 2e       	mov	r15, r24
     5e2:	16 2f       	mov	r17, r22
     5e4:	04 2f       	mov	r16, r20
  nRF24L01P->ErrorTicks=0;
  nRF24L01P->Error=0;
}

uint8_t nRF24L01P_Get_Error(void){
  return nRF24L01P->Error;
     5e6:	e0 91 9a 06 	lds	r30, 0x069A
     5ea:	f0 91 9b 06 	lds	r31, 0x069B
}

uint8_t nRF24L01P_No_Error(void){
  if(nRF24L01P_Get_Error()==0){
     5ee:	82 89       	ldd	r24, Z+18	; 0x12
     5f0:	88 23       	and	r24, r24
     5f2:	69 f5       	brne	.+90     	; 0x64e <nRF24L01P_ReadModifyWrite+0x74>
  }
}

void nRF24L01P_ReadModifyWrite(uint8_t reg, uint8_t bit_pos, uint8_t bit_val){
  if(nRF24L01P_No_Error()){
    nRF24L01P_ReadWrite_Register(reg,1,nRF24L01P->TempBuf,1);
     5f4:	31 96       	adiw	r30, 0x01	; 1
     5f6:	8f 2d       	mov	r24, r15
     5f8:	61 e0       	ldi	r22, 0x01	; 1
     5fa:	af 01       	movw	r20, r30
     5fc:	21 e0       	ldi	r18, 0x01	; 1
     5fe:	0e 94 c6 01 	call	0x38c	; 0x38c <nRF24L01P_ReadWrite_Register>
     602:	e0 91 9a 06 	lds	r30, 0x069A
     606:	f0 91 9b 06 	lds	r31, 0x069B
    if(bit_val){
     60a:	00 23       	and	r16, r16
     60c:	51 f0       	breq	.+20     	; 0x622 <nRF24L01P_ReadModifyWrite+0x48>
      nRF24L01P->TempBuf[0]|=(1<<bit_pos);
     60e:	81 e0       	ldi	r24, 0x01	; 1
     610:	90 e0       	ldi	r25, 0x00	; 0
     612:	02 c0       	rjmp	.+4      	; 0x618 <nRF24L01P_ReadModifyWrite+0x3e>
     614:	88 0f       	add	r24, r24
     616:	99 1f       	adc	r25, r25
     618:	1a 95       	dec	r17
     61a:	e2 f7       	brpl	.-8      	; 0x614 <nRF24L01P_ReadModifyWrite+0x3a>
     61c:	21 81       	ldd	r18, Z+1	; 0x01
     61e:	28 2b       	or	r18, r24
     620:	0a c0       	rjmp	.+20     	; 0x636 <nRF24L01P_ReadModifyWrite+0x5c>
    }else{
      nRF24L01P->TempBuf[0]&=~(1<<bit_pos);
     622:	81 e0       	ldi	r24, 0x01	; 1
     624:	90 e0       	ldi	r25, 0x00	; 0
     626:	02 c0       	rjmp	.+4      	; 0x62c <nRF24L01P_ReadModifyWrite+0x52>
     628:	88 0f       	add	r24, r24
     62a:	99 1f       	adc	r25, r25
     62c:	1a 95       	dec	r17
     62e:	e2 f7       	brpl	.-8      	; 0x628 <nRF24L01P_ReadModifyWrite+0x4e>
     630:	80 95       	com	r24
     632:	21 81       	ldd	r18, Z+1	; 0x01
     634:	28 23       	and	r18, r24
     636:	21 83       	std	Z+1, r18	; 0x01
    }
    nRF24L01P_ReadWrite_Register(reg,0,nRF24L01P->TempBuf,1);
     638:	40 91 9a 06 	lds	r20, 0x069A
     63c:	50 91 9b 06 	lds	r21, 0x069B
     640:	4f 5f       	subi	r20, 0xFF	; 255
     642:	5f 4f       	sbci	r21, 0xFF	; 255
     644:	8f 2d       	mov	r24, r15
     646:	60 e0       	ldi	r22, 0x00	; 0
     648:	21 e0       	ldi	r18, 0x01	; 1
     64a:	0e 94 c6 01 	call	0x38c	; 0x38c <nRF24L01P_ReadWrite_Register>
  }
}
     64e:	1f 91       	pop	r17
     650:	0f 91       	pop	r16
     652:	ff 90       	pop	r15
     654:	08 95       	ret

00000656 <nRF24L01P_Get_Channel>:
  nRF24L01P->ErrorTicks=0;
  nRF24L01P->Error=0;
}

uint8_t nRF24L01P_Get_Error(void){
  return nRF24L01P->Error;
     656:	e0 91 9a 06 	lds	r30, 0x069A
     65a:	f0 91 9b 06 	lds	r31, 0x069B
}

uint8_t nRF24L01P_No_Error(void){
  if(nRF24L01P_Get_Error()==0){
     65e:	82 89       	ldd	r24, Z+18	; 0x12
     660:	88 23       	and	r24, r24
     662:	11 f0       	breq	.+4      	; 0x668 <nRF24L01P_Get_Channel+0x12>
     664:	80 e0       	ldi	r24, 0x00	; 0
     666:	08 95       	ret
  }
}

uint8_t nRF24L01P_Get_Channel(void){
  if(nRF24L01P_No_Error()){
    nRF24L01P_ReadWrite_Register(0x05,1,nRF24L01P->TempBuf,1);
     668:	31 96       	adiw	r30, 0x01	; 1
     66a:	85 e0       	ldi	r24, 0x05	; 5
     66c:	61 e0       	ldi	r22, 0x01	; 1
     66e:	af 01       	movw	r20, r30
     670:	21 e0       	ldi	r18, 0x01	; 1
     672:	0e 94 c6 01 	call	0x38c	; 0x38c <nRF24L01P_ReadWrite_Register>
    return nRF24L01P->TempBuf[0];
     676:	e0 91 9a 06 	lds	r30, 0x069A
     67a:	f0 91 9b 06 	lds	r31, 0x069B
     67e:	81 81       	ldd	r24, Z+1	; 0x01
  }else{
    return 0;
  }
}
     680:	08 95       	ret

00000682 <nRF24L01P_Set_Channel>:

void nRF24L01P_Set_Channel(uint8_t channel){
     682:	98 2f       	mov	r25, r24
  nRF24L01P->ErrorTicks=0;
  nRF24L01P->Error=0;
}

uint8_t nRF24L01P_Get_Error(void){
  return nRF24L01P->Error;
     684:	e0 91 9a 06 	lds	r30, 0x069A
     688:	f0 91 9b 06 	lds	r31, 0x069B
}

uint8_t nRF24L01P_No_Error(void){
  if(nRF24L01P_Get_Error()==0){
     68c:	82 89       	ldd	r24, Z+18	; 0x12
     68e:	88 23       	and	r24, r24
     690:	61 f4       	brne	.+24     	; 0x6aa <nRF24L01P_Set_Channel+0x28>
void nRF24L01P_Set_Channel(uint8_t channel){
  if(nRF24L01P_No_Error()){
    if(channel>125){
      channel=125;
    }
    nRF24L01P->TempBuf[0]=channel;
     692:	89 2f       	mov	r24, r25
     694:	9e 37       	cpi	r25, 0x7E	; 126
     696:	08 f0       	brcs	.+2      	; 0x69a <nRF24L01P_Set_Channel+0x18>
     698:	8d e7       	ldi	r24, 0x7D	; 125
     69a:	81 83       	std	Z+1, r24	; 0x01
    nRF24L01P_ReadWrite_Register(0x05,0,nRF24L01P->TempBuf,1);
     69c:	31 96       	adiw	r30, 0x01	; 1
     69e:	85 e0       	ldi	r24, 0x05	; 5
     6a0:	60 e0       	ldi	r22, 0x00	; 0
     6a2:	af 01       	movw	r20, r30
     6a4:	21 e0       	ldi	r18, 0x01	; 1
     6a6:	0e 94 c6 01 	call	0x38c	; 0x38c <nRF24L01P_ReadWrite_Register>
     6aa:	08 95       	ret

000006ac <nRF24L01P_Get_Speed>:
  nRF24L01P->ErrorTicks=0;
  nRF24L01P->Error=0;
}

uint8_t nRF24L01P_Get_Error(void){
  return nRF24L01P->Error;
     6ac:	e0 91 9a 06 	lds	r30, 0x069A
     6b0:	f0 91 9b 06 	lds	r31, 0x069B
}

uint8_t nRF24L01P_No_Error(void){
  if(nRF24L01P_Get_Error()==0){
     6b4:	82 89       	ldd	r24, Z+18	; 0x12
     6b6:	88 23       	and	r24, r24
     6b8:	11 f0       	breq	.+4      	; 0x6be <nRF24L01P_Get_Speed+0x12>
     6ba:	80 e0       	ldi	r24, 0x00	; 0
     6bc:	08 95       	ret
  }
}

uint8_t nRF24L01P_Get_Speed(void){
  if(nRF24L01P_No_Error()){
    nRF24L01P_ReadWrite_Register(0x06,1,nRF24L01P->TempBuf,1);
     6be:	31 96       	adiw	r30, 0x01	; 1
     6c0:	86 e0       	ldi	r24, 0x06	; 6
     6c2:	61 e0       	ldi	r22, 0x01	; 1
     6c4:	af 01       	movw	r20, r30
     6c6:	21 e0       	ldi	r18, 0x01	; 1
     6c8:	0e 94 c6 01 	call	0x38c	; 0x38c <nRF24L01P_ReadWrite_Register>
    nRF24L01P->TempBuf[1]=(nRF24L01P->TempBuf[0] >> 3) & 0x01;
     6cc:	e0 91 9a 06 	lds	r30, 0x069A
     6d0:	f0 91 9b 06 	lds	r31, 0x069B
     6d4:	91 81       	ldd	r25, Z+1	; 0x01
     6d6:	96 95       	lsr	r25
     6d8:	96 95       	lsr	r25
     6da:	96 95       	lsr	r25
    nRF24L01P->TempBuf[0]>>=4;
    nRF24L01P->TempBuf[0]&=0x02;
     6dc:	89 2f       	mov	r24, r25
     6de:	86 95       	lsr	r24
     6e0:	82 70       	andi	r24, 0x02	; 2
     6e2:	81 83       	std	Z+1, r24	; 0x01
}

uint8_t nRF24L01P_Get_Speed(void){
  if(nRF24L01P_No_Error()){
    nRF24L01P_ReadWrite_Register(0x06,1,nRF24L01P->TempBuf,1);
    nRF24L01P->TempBuf[1]=(nRF24L01P->TempBuf[0] >> 3) & 0x01;
     6e4:	91 70       	andi	r25, 0x01	; 1
    nRF24L01P->TempBuf[0]>>=4;
    nRF24L01P->TempBuf[0]&=0x02;
    nRF24L01P->TempBuf[1]|=nRF24L01P->TempBuf[0];
     6e6:	89 2b       	or	r24, r25
     6e8:	82 83       	std	Z+2, r24	; 0x02
    if      (nRF24L01P->TempBuf[1]==0x02){
     6ea:	82 30       	cpi	r24, 0x02	; 2
     6ec:	11 f4       	brne	.+4      	; 0x6f2 <nRF24L01P_Get_Speed+0x46>
      nRF24L01P->TempBuf[0]=0;
     6ee:	11 82       	std	Z+1, r1	; 0x01
     6f0:	06 c0       	rjmp	.+12     	; 0x6fe <nRF24L01P_Get_Speed+0x52>
    }else if(nRF24L01P->TempBuf[1]==0x01){
     6f2:	81 30       	cpi	r24, 0x01	; 1
     6f4:	19 f0       	breq	.+6      	; 0x6fc <nRF24L01P_Get_Speed+0x50>
      nRF24L01P->TempBuf[0]=1;
    }else if(nRF24L01P->TempBuf[1]==0x00){
     6f6:	88 23       	and	r24, r24
     6f8:	11 f4       	brne	.+4      	; 0x6fe <nRF24L01P_Get_Speed+0x52>
      nRF24L01P->TempBuf[0]=2;
     6fa:	82 e0       	ldi	r24, 0x02	; 2
     6fc:	81 83       	std	Z+1, r24	; 0x01
    }
    return nRF24L01P->TempBuf[0];
     6fe:	81 81       	ldd	r24, Z+1	; 0x01
  }else{
    return 0;
  }
}  
     700:	08 95       	ret

00000702 <nRF24L01P_Set_Speed>:

void nRF24L01P_Set_Speed(uint8_t index){
     702:	98 2f       	mov	r25, r24
uint8_t nRF24L01P_Get_Error(void){
  return nRF24L01P->Error;
}

uint8_t nRF24L01P_No_Error(void){
  if(nRF24L01P_Get_Error()==0){
     704:	e0 91 9a 06 	lds	r30, 0x069A
     708:	f0 91 9b 06 	lds	r31, 0x069B
     70c:	82 89       	ldd	r24, Z+18	; 0x12
     70e:	88 23       	and	r24, r24
     710:	41 f5       	brne	.+80     	; 0x762 <nRF24L01P_Set_Speed+0x60>
  }
}  

void nRF24L01P_Set_Speed(uint8_t index){
  if(nRF24L01P_No_Error()){
    if(index==0){       //250kbps
     712:	99 23       	and	r25, r25
     714:	21 f4       	brne	.+8      	; 0x71e <nRF24L01P_Set_Speed+0x1c>
      nRF24L01P_ReadModifyWrite(0x06,5,1);
     716:	86 e0       	ldi	r24, 0x06	; 6
     718:	65 e0       	ldi	r22, 0x05	; 5
     71a:	41 e0       	ldi	r20, 0x01	; 1
     71c:	05 c0       	rjmp	.+10     	; 0x728 <nRF24L01P_Set_Speed+0x26>
      nRF24L01P_ReadModifyWrite(0x06,3,0);
    }
    else if(index==1){  //1Mbps
     71e:	91 30       	cpi	r25, 0x01	; 1
     720:	49 f4       	brne	.+18     	; 0x734 <nRF24L01P_Set_Speed+0x32>
      nRF24L01P_ReadModifyWrite(0x06,5,0);
     722:	86 e0       	ldi	r24, 0x06	; 6
     724:	65 e0       	ldi	r22, 0x05	; 5
     726:	40 e0       	ldi	r20, 0x00	; 0
     728:	0e 94 ed 02 	call	0x5da	; 0x5da <nRF24L01P_ReadModifyWrite>
      nRF24L01P_ReadModifyWrite(0x06,3,0);
     72c:	86 e0       	ldi	r24, 0x06	; 6
     72e:	63 e0       	ldi	r22, 0x03	; 3
     730:	40 e0       	ldi	r20, 0x00	; 0
     732:	0a c0       	rjmp	.+20     	; 0x748 <nRF24L01P_Set_Speed+0x46>
    }
    else if(index==2){  //2Mbps
     734:	92 30       	cpi	r25, 0x02	; 2
     736:	59 f4       	brne	.+22     	; 0x74e <nRF24L01P_Set_Speed+0x4c>
      nRF24L01P_ReadModifyWrite(0x06,5,0);
     738:	86 e0       	ldi	r24, 0x06	; 6
     73a:	65 e0       	ldi	r22, 0x05	; 5
     73c:	40 e0       	ldi	r20, 0x00	; 0
     73e:	0e 94 ed 02 	call	0x5da	; 0x5da <nRF24L01P_ReadModifyWrite>
      nRF24L01P_ReadModifyWrite(0x06,3,1);
     742:	86 e0       	ldi	r24, 0x06	; 6
     744:	63 e0       	ldi	r22, 0x03	; 3
     746:	41 e0       	ldi	r20, 0x01	; 1
     748:	0e 94 ed 02 	call	0x5da	; 0x5da <nRF24L01P_ReadModifyWrite>
     74c:	08 95       	ret
    }else{              //2Mbps
      nRF24L01P_ReadModifyWrite(0x06,5,0);
     74e:	86 e0       	ldi	r24, 0x06	; 6
     750:	65 e0       	ldi	r22, 0x05	; 5
     752:	40 e0       	ldi	r20, 0x00	; 0
     754:	0e 94 ed 02 	call	0x5da	; 0x5da <nRF24L01P_ReadModifyWrite>
      nRF24L01P_ReadModifyWrite(0x06,3,1);
     758:	86 e0       	ldi	r24, 0x06	; 6
     75a:	63 e0       	ldi	r22, 0x03	; 3
     75c:	41 e0       	ldi	r20, 0x01	; 1
     75e:	0e 94 ed 02 	call	0x5da	; 0x5da <nRF24L01P_ReadModifyWrite>
     762:	08 95       	ret

00000764 <nRF24L01P_Get_Tx_Power>:
  nRF24L01P->ErrorTicks=0;
  nRF24L01P->Error=0;
}

uint8_t nRF24L01P_Get_Error(void){
  return nRF24L01P->Error;
     764:	e0 91 9a 06 	lds	r30, 0x069A
     768:	f0 91 9b 06 	lds	r31, 0x069B
}

uint8_t nRF24L01P_No_Error(void){
  if(nRF24L01P_Get_Error()==0){
     76c:	82 89       	ldd	r24, Z+18	; 0x12
     76e:	88 23       	and	r24, r24
     770:	11 f0       	breq	.+4      	; 0x776 <nRF24L01P_Get_Tx_Power+0x12>
     772:	80 e0       	ldi	r24, 0x00	; 0
     774:	08 95       	ret
  }
}

uint8_t nRF24L01P_Get_Tx_Power(void){
  if(nRF24L01P_No_Error()){
    nRF24L01P_ReadWrite_Register(0x06,1,nRF24L01P->TempBuf,1);
     776:	31 96       	adiw	r30, 0x01	; 1
     778:	86 e0       	ldi	r24, 0x06	; 6
     77a:	61 e0       	ldi	r22, 0x01	; 1
     77c:	af 01       	movw	r20, r30
     77e:	21 e0       	ldi	r18, 0x01	; 1
     780:	0e 94 c6 01 	call	0x38c	; 0x38c <nRF24L01P_ReadWrite_Register>
    nRF24L01P->TempBuf[0]>>=1;
     784:	e0 91 9a 06 	lds	r30, 0x069A
     788:	f0 91 9b 06 	lds	r31, 0x069B
    nRF24L01P->TempBuf[0]&=0x03;
     78c:	81 81       	ldd	r24, Z+1	; 0x01
     78e:	86 95       	lsr	r24
     790:	83 70       	andi	r24, 0x03	; 3
     792:	81 83       	std	Z+1, r24	; 0x01
    return nRF24L01P->TempBuf[0];
  }else{
    return 0;
  }
}  
     794:	08 95       	ret

00000796 <nRF24L01P_Set_Tx_Power>:

void nRF24L01P_Set_Tx_Power(uint8_t index){
     796:	98 2f       	mov	r25, r24
uint8_t nRF24L01P_Get_Error(void){
  return nRF24L01P->Error;
}

uint8_t nRF24L01P_No_Error(void){
  if(nRF24L01P_Get_Error()==0){
     798:	e0 91 9a 06 	lds	r30, 0x069A
     79c:	f0 91 9b 06 	lds	r31, 0x069B
     7a0:	82 89       	ldd	r24, Z+18	; 0x12
     7a2:	88 23       	and	r24, r24
     7a4:	71 f5       	brne	.+92     	; 0x802 <nRF24L01P_Set_Tx_Power+0x6c>
  }
}  

void nRF24L01P_Set_Tx_Power(uint8_t index){
  if(nRF24L01P_No_Error()){
    if(index==0){
     7a6:	99 23       	and	r25, r25
     7a8:	21 f4       	brne	.+8      	; 0x7b2 <nRF24L01P_Set_Tx_Power+0x1c>
      nRF24L01P_ReadModifyWrite(0x06,2,0);
     7aa:	86 e0       	ldi	r24, 0x06	; 6
     7ac:	62 e0       	ldi	r22, 0x02	; 2
     7ae:	40 e0       	ldi	r20, 0x00	; 0
     7b0:	0b c0       	rjmp	.+22     	; 0x7c8 <nRF24L01P_Set_Tx_Power+0x32>
      nRF24L01P_ReadModifyWrite(0x06,1,0);
    }
    else if(index==1){
     7b2:	91 30       	cpi	r25, 0x01	; 1
     7b4:	21 f4       	brne	.+8      	; 0x7be <nRF24L01P_Set_Tx_Power+0x28>
      nRF24L01P_ReadModifyWrite(0x06,2,0);
     7b6:	86 e0       	ldi	r24, 0x06	; 6
     7b8:	62 e0       	ldi	r22, 0x02	; 2
     7ba:	40 e0       	ldi	r20, 0x00	; 0
     7bc:	10 c0       	rjmp	.+32     	; 0x7de <nRF24L01P_Set_Tx_Power+0x48>
      nRF24L01P_ReadModifyWrite(0x06,1,1);
    }
    else if(index==2){
     7be:	92 30       	cpi	r25, 0x02	; 2
     7c0:	49 f4       	brne	.+18     	; 0x7d4 <nRF24L01P_Set_Tx_Power+0x3e>
      nRF24L01P_ReadModifyWrite(0x06,2,1);
     7c2:	86 e0       	ldi	r24, 0x06	; 6
     7c4:	62 e0       	ldi	r22, 0x02	; 2
     7c6:	41 e0       	ldi	r20, 0x01	; 1
     7c8:	0e 94 ed 02 	call	0x5da	; 0x5da <nRF24L01P_ReadModifyWrite>
      nRF24L01P_ReadModifyWrite(0x06,1,0);
     7cc:	86 e0       	ldi	r24, 0x06	; 6
     7ce:	61 e0       	ldi	r22, 0x01	; 1
     7d0:	40 e0       	ldi	r20, 0x00	; 0
     7d2:	0a c0       	rjmp	.+20     	; 0x7e8 <nRF24L01P_Set_Tx_Power+0x52>
    }
    else if(index==3){
     7d4:	93 30       	cpi	r25, 0x03	; 3
     7d6:	59 f4       	brne	.+22     	; 0x7ee <nRF24L01P_Set_Tx_Power+0x58>
      nRF24L01P_ReadModifyWrite(0x06,2,1);
     7d8:	86 e0       	ldi	r24, 0x06	; 6
     7da:	62 e0       	ldi	r22, 0x02	; 2
     7dc:	41 e0       	ldi	r20, 0x01	; 1
     7de:	0e 94 ed 02 	call	0x5da	; 0x5da <nRF24L01P_ReadModifyWrite>
      nRF24L01P_ReadModifyWrite(0x06,1,1);
     7e2:	86 e0       	ldi	r24, 0x06	; 6
     7e4:	61 e0       	ldi	r22, 0x01	; 1
     7e6:	41 e0       	ldi	r20, 0x01	; 1
     7e8:	0e 94 ed 02 	call	0x5da	; 0x5da <nRF24L01P_ReadModifyWrite>
     7ec:	08 95       	ret
    }else{
      nRF24L01P_ReadModifyWrite(0x06,2,1);
     7ee:	86 e0       	ldi	r24, 0x06	; 6
     7f0:	62 e0       	ldi	r22, 0x02	; 2
     7f2:	41 e0       	ldi	r20, 0x01	; 1
     7f4:	0e 94 ed 02 	call	0x5da	; 0x5da <nRF24L01P_ReadModifyWrite>
      nRF24L01P_ReadModifyWrite(0x06,1,1);
     7f8:	86 e0       	ldi	r24, 0x06	; 6
     7fa:	61 e0       	ldi	r22, 0x01	; 1
     7fc:	41 e0       	ldi	r20, 0x01	; 1
     7fe:	0e 94 ed 02 	call	0x5da	; 0x5da <nRF24L01P_ReadModifyWrite>
     802:	08 95       	ret

00000804 <nRF24L01P_Set_Own_Address>:
    }
  }
}

void nRF24L01P_Set_Own_Address(uint8_t addr){
  nRF24L01P->Address.Own=addr;
     804:	e0 91 9a 06 	lds	r30, 0x069A
     808:	f0 91 9b 06 	lds	r31, 0x069B
     80c:	83 83       	std	Z+3, r24	; 0x03
}
     80e:	08 95       	ret

00000810 <nRF24L01P_Set_Destination_Address>:

void nRF24L01P_Set_Destination_Address(uint8_t addr){
  nRF24L01P->Address.Dest=addr;
     810:	e0 91 9a 06 	lds	r30, 0x069A
     814:	f0 91 9b 06 	lds	r31, 0x069B
     818:	84 83       	std	Z+4, r24	; 0x04
}
     81a:	08 95       	ret

0000081c <nRF24L01P_Set_Receive_Timeout>:

void nRF24L01P_Set_Receive_Timeout(uint16_t val){
  nRF24L01P->Config.RxTimeout=val;
     81c:	e0 91 9a 06 	lds	r30, 0x069A
     820:	f0 91 9b 06 	lds	r31, 0x069B
     824:	96 83       	std	Z+6, r25	; 0x06
     826:	85 83       	std	Z+5, r24	; 0x05
}
     828:	08 95       	ret

0000082a <nRF24L01P_Set_MaxRetransmission>:

void nRF24L01P_Set_MaxRetransmission(uint16_t val){
  nRF24L01P->Config.MaxRetry=val;
     82a:	e0 91 9a 06 	lds	r30, 0x069A
     82e:	f0 91 9b 06 	lds	r31, 0x069B
     832:	93 87       	std	Z+11, r25	; 0x0b
     834:	82 87       	std	Z+10, r24	; 0x0a
}
     836:	08 95       	ret

00000838 <nRF24L01P_Deep_Sleep>:

void nRF24L01P_Deep_Sleep(void){
  if(nRF24L01P->Mode != 0x00){
     838:	e0 91 9a 06 	lds	r30, 0x069A
     83c:	f0 91 9b 06 	lds	r31, 0x069B
     840:	80 81       	ld	r24, Z
     842:	88 23       	and	r24, r24
     844:	21 f0       	breq	.+8      	; 0x84e <nRF24L01P_Deep_Sleep+0x16>
    nRF24L01P_Set_Mode_Sleep();
     846:	0e 94 a7 02 	call	0x54e	; 0x54e <nRF24L01P_Set_Mode_Sleep>
    nRF24L01P_Disable();
     84a:	0e 94 46 01 	call	0x28c	; 0x28c <nRF24L01P_Disable>
     84e:	08 95       	ret

00000850 <nRF24L01P_WakeUp>:
  }
}


void nRF24L01P_WakeUp(void){
  if(nRF24L01P->Mode == 0x00){ 
     850:	e0 91 9a 06 	lds	r30, 0x069A
     854:	f0 91 9b 06 	lds	r31, 0x069B
     858:	80 81       	ld	r24, Z
     85a:	88 23       	and	r24, r24
     85c:	21 f4       	brne	.+8      	; 0x866 <nRF24L01P_WakeUp+0x16>
    nRF24L01P_Enable();
     85e:	0e 94 3f 01 	call	0x27e	; 0x27e <nRF24L01P_Enable>
    nRF24L01P_Set_Mode_Rx();
     862:	0e 94 d5 02 	call	0x5aa	; 0x5aa <nRF24L01P_Set_Mode_Rx>
     866:	08 95       	ret

00000868 <nRF24L01P_Init>:
  }
}

void nRF24L01P_Init(void){
     868:	0f 93       	push	r16
     86a:	1f 93       	push	r17
  nRF24L01P_Struct_Init();
     86c:	0e 94 ee 00 	call	0x1dc	; 0x1dc <nRF24L01P_Struct_Init>
  nRF24L01P_Enable();
     870:	0e 94 3f 01 	call	0x27e	; 0x27e <nRF24L01P_Enable>
  nRF24L01P->TempBuf[0]=0x00;  nRF24L01P_ReadWrite_Register(0x00,0,nRF24L01P->TempBuf,1);
     874:	e0 91 9a 06 	lds	r30, 0x069A
     878:	f0 91 9b 06 	lds	r31, 0x069B
     87c:	11 82       	std	Z+1, r1	; 0x01
     87e:	31 96       	adiw	r30, 0x01	; 1
     880:	80 e0       	ldi	r24, 0x00	; 0
     882:	60 e0       	ldi	r22, 0x00	; 0
     884:	af 01       	movw	r20, r30
     886:	21 e0       	ldi	r18, 0x01	; 1
     888:	0e 94 c6 01 	call	0x38c	; 0x38c <nRF24L01P_ReadWrite_Register>
  nRF24L01P->TempBuf[0]=0x00;  nRF24L01P_ReadWrite_Register(0x01,0,nRF24L01P->TempBuf,1);
     88c:	e0 91 9a 06 	lds	r30, 0x069A
     890:	f0 91 9b 06 	lds	r31, 0x069B
     894:	11 82       	std	Z+1, r1	; 0x01
     896:	31 96       	adiw	r30, 0x01	; 1
     898:	81 e0       	ldi	r24, 0x01	; 1
     89a:	60 e0       	ldi	r22, 0x00	; 0
     89c:	af 01       	movw	r20, r30
     89e:	21 e0       	ldi	r18, 0x01	; 1
     8a0:	0e 94 c6 01 	call	0x38c	; 0x38c <nRF24L01P_ReadWrite_Register>
  nRF24L01P->TempBuf[0]=0x03;  nRF24L01P_ReadWrite_Register(0x02,0,nRF24L01P->TempBuf,1);
     8a4:	e0 91 9a 06 	lds	r30, 0x069A
     8a8:	f0 91 9b 06 	lds	r31, 0x069B
     8ac:	83 e0       	ldi	r24, 0x03	; 3
     8ae:	81 83       	std	Z+1, r24	; 0x01
     8b0:	31 96       	adiw	r30, 0x01	; 1
     8b2:	82 e0       	ldi	r24, 0x02	; 2
     8b4:	60 e0       	ldi	r22, 0x00	; 0
     8b6:	af 01       	movw	r20, r30
     8b8:	21 e0       	ldi	r18, 0x01	; 1
     8ba:	0e 94 c6 01 	call	0x38c	; 0x38c <nRF24L01P_ReadWrite_Register>
  nRF24L01P->TempBuf[0]=0x01;  nRF24L01P_ReadWrite_Register(0x03,0,nRF24L01P->TempBuf,1);
     8be:	e0 91 9a 06 	lds	r30, 0x069A
     8c2:	f0 91 9b 06 	lds	r31, 0x069B
     8c6:	81 e0       	ldi	r24, 0x01	; 1
     8c8:	81 83       	std	Z+1, r24	; 0x01
     8ca:	31 96       	adiw	r30, 0x01	; 1
     8cc:	83 e0       	ldi	r24, 0x03	; 3
     8ce:	60 e0       	ldi	r22, 0x00	; 0
     8d0:	af 01       	movw	r20, r30
     8d2:	21 e0       	ldi	r18, 0x01	; 1
     8d4:	0e 94 c6 01 	call	0x38c	; 0x38c <nRF24L01P_ReadWrite_Register>
  nRF24L01P->TempBuf[0]=0x00;  nRF24L01P_ReadWrite_Register(0x04,0,nRF24L01P->TempBuf,1);
     8d8:	e0 91 9a 06 	lds	r30, 0x069A
     8dc:	f0 91 9b 06 	lds	r31, 0x069B
     8e0:	11 82       	std	Z+1, r1	; 0x01
     8e2:	31 96       	adiw	r30, 0x01	; 1
     8e4:	84 e0       	ldi	r24, 0x04	; 4
     8e6:	60 e0       	ldi	r22, 0x00	; 0
     8e8:	af 01       	movw	r20, r30
     8ea:	21 e0       	ldi	r18, 0x01	; 1
     8ec:	0e 94 c6 01 	call	0x38c	; 0x38c <nRF24L01P_ReadWrite_Register>
  nRF24L01P->TempBuf[0]=0x02;  nRF24L01P_ReadWrite_Register(0x05,0,nRF24L01P->TempBuf,1);
     8f0:	e0 91 9a 06 	lds	r30, 0x069A
     8f4:	f0 91 9b 06 	lds	r31, 0x069B
     8f8:	82 e0       	ldi	r24, 0x02	; 2
     8fa:	81 83       	std	Z+1, r24	; 0x01
     8fc:	31 96       	adiw	r30, 0x01	; 1
     8fe:	85 e0       	ldi	r24, 0x05	; 5
     900:	60 e0       	ldi	r22, 0x00	; 0
     902:	af 01       	movw	r20, r30
     904:	21 e0       	ldi	r18, 0x01	; 1
     906:	0e 94 c6 01 	call	0x38c	; 0x38c <nRF24L01P_ReadWrite_Register>
  nRF24L01P->TempBuf[0]=0x26;  nRF24L01P_ReadWrite_Register(0x06,0,nRF24L01P->TempBuf,1); 
     90a:	e0 91 9a 06 	lds	r30, 0x069A
     90e:	f0 91 9b 06 	lds	r31, 0x069B
     912:	86 e2       	ldi	r24, 0x26	; 38
     914:	81 83       	std	Z+1, r24	; 0x01
     916:	31 96       	adiw	r30, 0x01	; 1
     918:	86 e0       	ldi	r24, 0x06	; 6
     91a:	60 e0       	ldi	r22, 0x00	; 0
     91c:	af 01       	movw	r20, r30
     91e:	21 e0       	ldi	r18, 0x01	; 1
     920:	0e 94 c6 01 	call	0x38c	; 0x38c <nRF24L01P_ReadWrite_Register>
  nRF24L01P->TempBuf[0]=0x70;  nRF24L01P_ReadWrite_Register(0x07,0,nRF24L01P->TempBuf,1);
     924:	e0 91 9a 06 	lds	r30, 0x069A
     928:	f0 91 9b 06 	lds	r31, 0x069B
     92c:	80 e7       	ldi	r24, 0x70	; 112
     92e:	81 83       	std	Z+1, r24	; 0x01
     930:	31 96       	adiw	r30, 0x01	; 1
     932:	87 e0       	ldi	r24, 0x07	; 7
     934:	60 e0       	ldi	r22, 0x00	; 0
     936:	af 01       	movw	r20, r30
     938:	21 e0       	ldi	r18, 0x01	; 1
     93a:	0e 94 c6 01 	call	0x38c	; 0x38c <nRF24L01P_ReadWrite_Register>
  nRF24L01P->TempBuf[0]=nRF24L01P_PACKET_LEN;  
     93e:	e0 91 9a 06 	lds	r30, 0x069A
     942:	f0 91 9b 06 	lds	r31, 0x069B
     946:	10 e2       	ldi	r17, 0x20	; 32
     948:	11 83       	std	Z+1, r17	; 0x01
  nRF24L01P_ReadWrite_Register(0x11,0,nRF24L01P->TempBuf,1);
     94a:	31 96       	adiw	r30, 0x01	; 1
     94c:	81 e1       	ldi	r24, 0x11	; 17
     94e:	60 e0       	ldi	r22, 0x00	; 0
     950:	af 01       	movw	r20, r30
     952:	21 e0       	ldi	r18, 0x01	; 1
     954:	0e 94 c6 01 	call	0x38c	; 0x38c <nRF24L01P_ReadWrite_Register>
  nRF24L01P->TempBuf[0]=nRF24L01P_PACKET_LEN;  
     958:	e0 91 9a 06 	lds	r30, 0x069A
     95c:	f0 91 9b 06 	lds	r31, 0x069B
     960:	11 83       	std	Z+1, r17	; 0x01
  nRF24L01P_ReadWrite_Register(0x12,0,nRF24L01P->TempBuf,1);
     962:	31 96       	adiw	r30, 0x01	; 1
     964:	82 e1       	ldi	r24, 0x12	; 18
     966:	60 e0       	ldi	r22, 0x00	; 0
     968:	af 01       	movw	r20, r30
     96a:	21 e0       	ldi	r18, 0x01	; 1
     96c:	0e 94 c6 01 	call	0x38c	; 0x38c <nRF24L01P_ReadWrite_Register>
  nRF24L01P->TempBuf[0]=0x00;  nRF24L01P_ReadWrite_Register(0x1C,0,nRF24L01P->TempBuf,1);
     970:	e0 91 9a 06 	lds	r30, 0x069A
     974:	f0 91 9b 06 	lds	r31, 0x069B
     978:	11 82       	std	Z+1, r1	; 0x01
     97a:	31 96       	adiw	r30, 0x01	; 1
     97c:	8c e1       	ldi	r24, 0x1C	; 28
     97e:	60 e0       	ldi	r22, 0x00	; 0
     980:	af 01       	movw	r20, r30
     982:	21 e0       	ldi	r18, 0x01	; 1
     984:	0e 94 c6 01 	call	0x38c	; 0x38c <nRF24L01P_ReadWrite_Register>
  nRF24L01P->TempBuf[0]=0x00;  nRF24L01P_ReadWrite_Register(0x1D,0,nRF24L01P->TempBuf,1);
     988:	e0 91 9a 06 	lds	r30, 0x069A
     98c:	f0 91 9b 06 	lds	r31, 0x069B
     990:	11 82       	std	Z+1, r1	; 0x01
     992:	31 96       	adiw	r30, 0x01	; 1
     994:	8d e1       	ldi	r24, 0x1D	; 29
     996:	60 e0       	ldi	r22, 0x00	; 0
     998:	af 01       	movw	r20, r30
     99a:	21 e0       	ldi	r18, 0x01	; 1
     99c:	0e 94 c6 01 	call	0x38c	; 0x38c <nRF24L01P_ReadWrite_Register>
  nRF24L01P_ReadWrite_Register(0x10,0,(uint8_t*)"ACK00",5);
     9a0:	00 e0       	ldi	r16, 0x00	; 0
     9a2:	11 e0       	ldi	r17, 0x01	; 1
     9a4:	80 e1       	ldi	r24, 0x10	; 16
     9a6:	60 e0       	ldi	r22, 0x00	; 0
     9a8:	a8 01       	movw	r20, r16
     9aa:	25 e0       	ldi	r18, 0x05	; 5
     9ac:	0e 94 c6 01 	call	0x38c	; 0x38c <nRF24L01P_ReadWrite_Register>
  nRF24L01P_ReadWrite_Register(0x0A,0,(uint8_t*)"ACK00",5);
     9b0:	8a e0       	ldi	r24, 0x0A	; 10
     9b2:	60 e0       	ldi	r22, 0x00	; 0
     9b4:	a8 01       	movw	r20, r16
     9b6:	25 e0       	ldi	r18, 0x05	; 5
     9b8:	0e 94 c6 01 	call	0x38c	; 0x38c <nRF24L01P_ReadWrite_Register>
  nRF24L01P_ReadWrite_Register(0x0B,0,(uint8_t*)"PIPE1",5);
     9bc:	8b e0       	ldi	r24, 0x0B	; 11
     9be:	60 e0       	ldi	r22, 0x00	; 0
     9c0:	46 e0       	ldi	r20, 0x06	; 6
     9c2:	51 e0       	ldi	r21, 0x01	; 1
     9c4:	25 e0       	ldi	r18, 0x05	; 5
     9c6:	0e 94 c6 01 	call	0x38c	; 0x38c <nRF24L01P_ReadWrite_Register>
  nRF24L01P_ReadWrite_Register(0x0C,0,(uint8_t*)"PIPE2",5);
     9ca:	8c e0       	ldi	r24, 0x0C	; 12
     9cc:	60 e0       	ldi	r22, 0x00	; 0
     9ce:	4c e0       	ldi	r20, 0x0C	; 12
     9d0:	51 e0       	ldi	r21, 0x01	; 1
     9d2:	25 e0       	ldi	r18, 0x05	; 5
     9d4:	0e 94 c6 01 	call	0x38c	; 0x38c <nRF24L01P_ReadWrite_Register>
  nRF24L01P_ReadWrite_Register(0x0D,0,(uint8_t*)"PIPE3",5);
     9d8:	8d e0       	ldi	r24, 0x0D	; 13
     9da:	60 e0       	ldi	r22, 0x00	; 0
     9dc:	42 e1       	ldi	r20, 0x12	; 18
     9de:	51 e0       	ldi	r21, 0x01	; 1
     9e0:	25 e0       	ldi	r18, 0x05	; 5
     9e2:	0e 94 c6 01 	call	0x38c	; 0x38c <nRF24L01P_ReadWrite_Register>
  nRF24L01P_ReadWrite_Register(0x0E,0,(uint8_t*)"PIPE4",5);
     9e6:	8e e0       	ldi	r24, 0x0E	; 14
     9e8:	60 e0       	ldi	r22, 0x00	; 0
     9ea:	48 e1       	ldi	r20, 0x18	; 24
     9ec:	51 e0       	ldi	r21, 0x01	; 1
     9ee:	25 e0       	ldi	r18, 0x05	; 5
     9f0:	0e 94 c6 01 	call	0x38c	; 0x38c <nRF24L01P_ReadWrite_Register>
  nRF24L01P_ReadWrite_Register(0x0F,0,(uint8_t*)"PIPE5",5);
     9f4:	8f e0       	ldi	r24, 0x0F	; 15
     9f6:	60 e0       	ldi	r22, 0x00	; 0
     9f8:	4e e1       	ldi	r20, 0x1E	; 30
     9fa:	51 e0       	ldi	r21, 0x01	; 1
     9fc:	25 e0       	ldi	r18, 0x05	; 5
     9fe:	0e 94 c6 01 	call	0x38c	; 0x38c <nRF24L01P_ReadWrite_Register>
void nRF24L01P_Set_Destination_Address(uint8_t addr){
  nRF24L01P->Address.Dest=addr;
}

void nRF24L01P_Set_Receive_Timeout(uint16_t val){
  nRF24L01P->Config.RxTimeout=val;
     a02:	e0 91 9a 06 	lds	r30, 0x069A
     a06:	f0 91 9b 06 	lds	r31, 0x069B
     a0a:	80 e2       	ldi	r24, 0x20	; 32
     a0c:	90 e0       	ldi	r25, 0x00	; 0
     a0e:	96 83       	std	Z+6, r25	; 0x06
     a10:	85 83       	std	Z+5, r24	; 0x05
  nRF24L01P_ReadWrite_Register(0x0C,0,(uint8_t*)"PIPE2",5);
  nRF24L01P_ReadWrite_Register(0x0D,0,(uint8_t*)"PIPE3",5);
  nRF24L01P_ReadWrite_Register(0x0E,0,(uint8_t*)"PIPE4",5);
  nRF24L01P_ReadWrite_Register(0x0F,0,(uint8_t*)"PIPE5",5);
  nRF24L01P_Set_Receive_Timeout(32);
  nRF24L01P_Deep_Sleep();
     a12:	0e 94 1c 04 	call	0x838	; 0x838 <nRF24L01P_Deep_Sleep>
}
     a16:	1f 91       	pop	r17
     a18:	0f 91       	pop	r16
     a1a:	08 95       	ret

00000a1c <nRF24L01P_Transmit_Basic>:

void nRF24L01P_Transmit_Basic(uint8_t *buf, uint8_t len){
     a1c:	ff 92       	push	r15
     a1e:	0f 93       	push	r16
     a20:	1f 93       	push	r17
     a22:	8c 01       	movw	r16, r24
     a24:	f6 2e       	mov	r15, r22
  nRF24L01P_Disable_SPI();
  nRF24L01P_Disable_GPIO();
}

void nRF24L01P_Error_Clear(void){
  nRF24L01P->ErrorTicks=0;
     a26:	e0 91 9a 06 	lds	r30, 0x069A
     a2a:	f0 91 9b 06 	lds	r31, 0x069B
     a2e:	11 8a       	std	Z+17, r1	; 0x11
     a30:	10 8a       	std	Z+16, r1	; 0x10
  nRF24L01P->Error=0;
     a32:	12 8a       	std	Z+18, r1	; 0x12
  nRF24L01P_Deep_Sleep();
}

void nRF24L01P_Transmit_Basic(uint8_t *buf, uint8_t len){
  nRF24L01P_Error_Clear();
  nRF24L01P_Set_Mode_Tx();
     a34:	0e 94 bb 02 	call	0x576	; 0x576 <nRF24L01P_Set_Mode_Tx>
  buf[nRF24L01P_PACKET_LEN-5]=nRF24L01P->Address.Own;
     a38:	e0 91 9a 06 	lds	r30, 0x069A
     a3c:	f0 91 9b 06 	lds	r31, 0x069B
     a40:	83 81       	ldd	r24, Z+3	; 0x03
     a42:	f8 01       	movw	r30, r16
     a44:	83 8f       	std	Z+27, r24	; 0x1b
  buf[nRF24L01P_PACKET_LEN-4]=nRF24L01P->Address.Dest;
     a46:	e0 91 9a 06 	lds	r30, 0x069A
     a4a:	f0 91 9b 06 	lds	r31, 0x069B
     a4e:	84 81       	ldd	r24, Z+4	; 0x04
     a50:	f8 01       	movw	r30, r16
     a52:	84 8f       	std	Z+28, r24	; 0x1c
  buf[nRF24L01P_PACKET_LEN-3]=len;
     a54:	f5 8e       	std	Z+29, r15	; 0x1d
  uint16_t temp=nRF24L01P_Calcuate_CRC_Block(buf, 30);
     a56:	c8 01       	movw	r24, r16
     a58:	6e e1       	ldi	r22, 0x1E	; 30
     a5a:	0e 94 ae 01 	call	0x35c	; 0x35c <nRF24L01P_Calcuate_CRC_Block>
  buf[nRF24L01P_PACKET_LEN-2]=(temp & 0xFF00)>>8;
     a5e:	f8 01       	movw	r30, r16
     a60:	96 8f       	std	Z+30, r25	; 0x1e
  buf[nRF24L01P_PACKET_LEN-1]=(temp & 0x00FF);
     a62:	87 8f       	std	Z+31, r24	; 0x1f
  nRF24L01P_Write_Data_To_Transmit_Buffer(buf);
     a64:	c8 01       	movw	r24, r16
     a66:	0e 94 10 02 	call	0x420	; 0x420 <nRF24L01P_Write_Data_To_Transmit_Buffer>
void nRF24L01P_CSN_Low(void){
  nRF24L01P_CSN_PORT&=~(1<<nRF24L01P_CSN_bp);
}

void nRF24L01P_CE_High(void){
  nRF24L01P_CE_PORT|= (1<<nRF24L01P_CE_bp);
     a6a:	29 9a       	sbi	0x05, 1	; 5
  uint16_t temp=nRF24L01P_Calcuate_CRC_Block(buf, 30);
  buf[nRF24L01P_PACKET_LEN-2]=(temp & 0xFF00)>>8;
  buf[nRF24L01P_PACKET_LEN-1]=(temp & 0x00FF);
  nRF24L01P_Write_Data_To_Transmit_Buffer(buf);
  nRF24L01P_CE_High();
  nRF24L01P_Wait_Till_Transmission_Completes();
     a6c:	0e 94 3c 02 	call	0x478	; 0x478 <nRF24L01P_Wait_Till_Transmission_Completes>
void nRF24L01P_CE_High(void){
  nRF24L01P_CE_PORT|= (1<<nRF24L01P_CE_bp);
}

void nRF24L01P_CE_Low(void){
  nRF24L01P_CE_PORT&=~(1<<nRF24L01P_CE_bp);
     a70:	29 98       	cbi	0x05, 1	; 5
  buf[nRF24L01P_PACKET_LEN-1]=(temp & 0x00FF);
  nRF24L01P_Write_Data_To_Transmit_Buffer(buf);
  nRF24L01P_CE_High();
  nRF24L01P_Wait_Till_Transmission_Completes();
  nRF24L01P_CE_Low();
}
     a72:	1f 91       	pop	r17
     a74:	0f 91       	pop	r16
     a76:	ff 90       	pop	r15
     a78:	08 95       	ret

00000a7a <nRF24L01P_Recieve_Basic>:


uint8_t nRF24L01P_Recieve_Basic(uint8_t *buf){
     a7a:	df 92       	push	r13
     a7c:	ef 92       	push	r14
     a7e:	ff 92       	push	r15
     a80:	0f 93       	push	r16
     a82:	1f 93       	push	r17
     a84:	cf 93       	push	r28
     a86:	df 93       	push	r29
     a88:	7c 01       	movw	r14, r24
  nRF24L01P_Disable_SPI();
  nRF24L01P_Disable_GPIO();
}

void nRF24L01P_Error_Clear(void){
  nRF24L01P->ErrorTicks=0;
     a8a:	e0 91 9a 06 	lds	r30, 0x069A
     a8e:	f0 91 9b 06 	lds	r31, 0x069B
     a92:	11 8a       	std	Z+17, r1	; 0x11
     a94:	10 8a       	std	Z+16, r1	; 0x10
  nRF24L01P->Error=0;
     a96:	12 8a       	std	Z+18, r1	; 0x12


uint8_t nRF24L01P_Recieve_Basic(uint8_t *buf){
  uint8_t sts=0;
  nRF24L01P_Error_Clear();
  nRF24L01P->Config.RxTicks=0;
     a98:	10 86       	std	Z+8, r1	; 0x08
     a9a:	17 82       	std	Z+7, r1	; 0x07
  nRF24L01P_Set_Mode_Rx();
     a9c:	0e 94 d5 02 	call	0x5aa	; 0x5aa <nRF24L01P_Set_Mode_Rx>
     aa0:	75 e8       	ldi	r23, 0x85	; 133
     aa2:	d7 2e       	mov	r13, r23
     aa4:	23 c0       	rjmp	.+70     	; 0xaec <nRF24L01P_Recieve_Basic+0x72>
  while(nRF24L01P->Config.RxTicks < nRF24L01P->Config.RxTimeout){
    if(nRF24L01P_Receive_Buffer_Not_Empty()){
     aa6:	0e 94 6d 02 	call	0x4da	; 0x4da <nRF24L01P_Receive_Buffer_Not_Empty>
     aaa:	88 23       	and	r24, r24
     aac:	99 f0       	breq	.+38     	; 0xad4 <nRF24L01P_Recieve_Basic+0x5a>
      nRF24L01P_Read_Data_From_Receive_Buffer(buf);
     aae:	c7 01       	movw	r24, r14
     ab0:	0e 94 5f 02 	call	0x4be	; 0x4be <nRF24L01P_Read_Data_From_Receive_Buffer>
	  uint16_t rec_crc=buf[nRF24L01P_PACKET_LEN-2];
	  rec_crc<<=8;
     ab4:	f7 01       	movw	r30, r14
     ab6:	d6 8d       	ldd	r29, Z+30	; 0x1e
     ab8:	c0 e0       	ldi	r28, 0x00	; 0
	  rec_crc|=buf[nRF24L01P_PACKET_LEN-1];
     aba:	07 8d       	ldd	r16, Z+31	; 0x1f
     abc:	10 e0       	ldi	r17, 0x00	; 0
     abe:	0c 2b       	or	r16, r28
     ac0:	1d 2b       	or	r17, r29
      uint16_t calc_crc=nRF24L01P_Calcuate_CRC_Block(buf, nRF24L01P_PACKET_LEN-2);
     ac2:	c7 01       	movw	r24, r14
     ac4:	6e e1       	ldi	r22, 0x1E	; 30
     ac6:	0e 94 ae 01 	call	0x35c	; 0x35c <nRF24L01P_Calcuate_CRC_Block>
      if(rec_crc == calc_crc){
     aca:	08 17       	cp	r16, r24
     acc:	19 07       	cpc	r17, r25
     ace:	11 f4       	brne	.+4      	; 0xad4 <nRF24L01P_Recieve_Basic+0x5a>
     ad0:	81 e0       	ldi	r24, 0x01	; 1
     ad2:	18 c0       	rjmp	.+48     	; 0xb04 <nRF24L01P_Recieve_Basic+0x8a>
     ad4:	8d 2d       	mov	r24, r13
     ad6:	8a 95       	dec	r24
     ad8:	f1 f7       	brne	.-4      	; 0xad6 <nRF24L01P_Recieve_Basic+0x5c>
		sts=1;
		break;
	  }
    }
    _delay_us(100);
    nRF24L01P->Config.RxTicks++;
     ada:	e0 91 9a 06 	lds	r30, 0x069A
     ade:	f0 91 9b 06 	lds	r31, 0x069B
     ae2:	87 81       	ldd	r24, Z+7	; 0x07
     ae4:	90 85       	ldd	r25, Z+8	; 0x08
     ae6:	01 96       	adiw	r24, 0x01	; 1
     ae8:	90 87       	std	Z+8, r25	; 0x08
     aea:	87 83       	std	Z+7, r24	; 0x07
uint8_t nRF24L01P_Recieve_Basic(uint8_t *buf){
  uint8_t sts=0;
  nRF24L01P_Error_Clear();
  nRF24L01P->Config.RxTicks=0;
  nRF24L01P_Set_Mode_Rx();
  while(nRF24L01P->Config.RxTicks < nRF24L01P->Config.RxTimeout){
     aec:	e0 91 9a 06 	lds	r30, 0x069A
     af0:	f0 91 9b 06 	lds	r31, 0x069B
     af4:	27 81       	ldd	r18, Z+7	; 0x07
     af6:	30 85       	ldd	r19, Z+8	; 0x08
     af8:	85 81       	ldd	r24, Z+5	; 0x05
     afa:	96 81       	ldd	r25, Z+6	; 0x06
     afc:	28 17       	cp	r18, r24
     afe:	39 07       	cpc	r19, r25
     b00:	90 f2       	brcs	.-92     	; 0xaa6 <nRF24L01P_Recieve_Basic+0x2c>
     b02:	80 e0       	ldi	r24, 0x00	; 0
    }
    _delay_us(100);
    nRF24L01P->Config.RxTicks++;
  }
  return sts;
}
     b04:	df 91       	pop	r29
     b06:	cf 91       	pop	r28
     b08:	1f 91       	pop	r17
     b0a:	0f 91       	pop	r16
     b0c:	ff 90       	pop	r15
     b0e:	ef 90       	pop	r14
     b10:	df 90       	pop	r13
     b12:	08 95       	ret

00000b14 <nRF24L01P_Transmit_With_ACK>:

uint8_t nRF24L01P_Transmit_With_ACK(uint8_t *buf, uint8_t len){
     b14:	cf 93       	push	r28
     b16:	df 93       	push	r29
     b18:	ec 01       	movw	r28, r24
  uint8_t sts=0;
  if(nRF24L01P->Packet.ACKReq){
     b1a:	e0 91 9a 06 	lds	r30, 0x069A
     b1e:	f0 91 9b 06 	lds	r31, 0x069B
     b22:	87 85       	ldd	r24, Z+15	; 0x0f
     b24:	88 23       	and	r24, r24
     b26:	19 f0       	breq	.+6      	; 0xb2e <nRF24L01P_Transmit_With_ACK+0x1a>
    buf[nRF24L01P_PACKET_LEN-6]=1;
     b28:	81 e0       	ldi	r24, 0x01	; 1
     b2a:	8a 8f       	std	Y+26, r24	; 0x1a
     b2c:	01 c0       	rjmp	.+2      	; 0xb30 <nRF24L01P_Transmit_With_ACK+0x1c>
  }else{
    buf[nRF24L01P_PACKET_LEN-6]=0;
     b2e:	1a 8e       	std	Y+26, r1	; 0x1a
  }
  nRF24L01P_Transmit_Basic(buf, len);
     b30:	ce 01       	movw	r24, r28
     b32:	0e 94 0e 05 	call	0xa1c	; 0xa1c <nRF24L01P_Transmit_Basic>
  if(nRF24L01P_Recieve_Basic(buf)){
     b36:	ce 01       	movw	r24, r28
     b38:	0e 94 3d 05 	call	0xa7a	; 0xa7a <nRF24L01P_Recieve_Basic>
     b3c:	81 11       	cpse	r24, r1
     b3e:	81 e0       	ldi	r24, 0x01	; 1
    //if( (nRF24L01P->Address.Own == buf[28])){
      sts=1;
    //}
  }
  return sts;
}
     b40:	df 91       	pop	r29
     b42:	cf 91       	pop	r28
     b44:	08 95       	ret

00000b46 <nRF24L01P_Recieve_With_ACK>:


uint8_t nRF24L01P_Recieve_With_ACK(uint8_t *buf){
     b46:	cf 93       	push	r28
     b48:	df 93       	push	r29
     b4a:	ec 01       	movw	r28, r24
  uint8_t sts=0;
  if(nRF24L01P_Recieve_Basic(buf)){
     b4c:	0e 94 3d 05 	call	0xa7a	; 0xa7a <nRF24L01P_Recieve_Basic>
     b50:	88 23       	and	r24, r24
     b52:	b9 f0       	breq	.+46     	; 0xb82 <nRF24L01P_Recieve_With_ACK+0x3c>
    if((buf[nRF24L01P_PACKET_LEN-6]==1) && (nRF24L01P->Address.Own == buf[nRF24L01P_PACKET_LEN-4])){
     b54:	8a 8d       	ldd	r24, Y+26	; 0x1a
     b56:	81 30       	cpi	r24, 0x01	; 1
     b58:	a1 f4       	brne	.+40     	; 0xb82 <nRF24L01P_Recieve_With_ACK+0x3c>
     b5a:	e0 91 9a 06 	lds	r30, 0x069A
     b5e:	f0 91 9b 06 	lds	r31, 0x069B
     b62:	93 81       	ldd	r25, Z+3	; 0x03
     b64:	8c 8d       	ldd	r24, Y+28	; 0x1c
     b66:	98 17       	cp	r25, r24
     b68:	61 f4       	brne	.+24     	; 0xb82 <nRF24L01P_Recieve_With_ACK+0x3c>
    milliseconds can be achieved.
 */
void
_delay_loop_2(uint16_t __count)
{
	__asm__ volatile (
     b6a:	84 ef       	ldi	r24, 0xF4	; 244
     b6c:	91 e0       	ldi	r25, 0x01	; 1
     b6e:	01 97       	sbiw	r24, 0x01	; 1
     b70:	f1 f7       	brne	.-4      	; 0xb6e <nRF24L01P_Recieve_With_ACK+0x28>
void nRF24L01P_Set_Own_Address(uint8_t addr){
  nRF24L01P->Address.Own=addr;
}

void nRF24L01P_Set_Destination_Address(uint8_t addr){
  nRF24L01P->Address.Dest=addr;
     b72:	8b 8d       	ldd	r24, Y+27	; 0x1b
     b74:	84 83       	std	Z+4, r24	; 0x04
  uint8_t sts=0;
  if(nRF24L01P_Recieve_Basic(buf)){
    if((buf[nRF24L01P_PACKET_LEN-6]==1) && (nRF24L01P->Address.Own == buf[nRF24L01P_PACKET_LEN-4])){
      _delay_us(500);
	  nRF24L01P_Set_Destination_Address(buf[nRF24L01P_PACKET_LEN-5]);
      nRF24L01P_Transmit_Basic(buf, 2);
     b76:	ce 01       	movw	r24, r28
     b78:	62 e0       	ldi	r22, 0x02	; 2
     b7a:	0e 94 0e 05 	call	0xa1c	; 0xa1c <nRF24L01P_Transmit_Basic>
     b7e:	81 e0       	ldi	r24, 0x01	; 1
     b80:	01 c0       	rjmp	.+2      	; 0xb84 <nRF24L01P_Recieve_With_ACK+0x3e>
     b82:	80 e0       	ldi	r24, 0x00	; 0
      sts=1;
    }
  }
  return sts;
}
     b84:	df 91       	pop	r29
     b86:	cf 91       	pop	r28
     b88:	08 95       	ret

00000b8a <Peripherals_ADC_Init>:
  .V3V3Sense  = 0
};


void Peripherals_ADC_Init(void){
  if( !(ADCSRA & (1<<ADEN)) ){
     b8a:	80 91 7a 00 	lds	r24, 0x007A
     b8e:	87 fd       	sbrc	r24, 7
     b90:	0f c0       	rjmp	.+30     	; 0xbb0 <Peripherals_ADC_Init+0x26>
    ADMUX   = (1<<REFS1)|(1<<REFS0)|0x0F;
     b92:	8f ec       	ldi	r24, 0xCF	; 207
     b94:	80 93 7c 00 	sts	0x007C, r24
    ADCSRA  = (1<<ADPS1)|(1<<ADPS2);
     b98:	86 e0       	ldi	r24, 0x06	; 6
     b9a:	80 93 7a 00 	sts	0x007A, r24
    ADCSRA |= (1<<ADEN) |(1<<ADSC);
     b9e:	80 91 7a 00 	lds	r24, 0x007A
     ba2:	80 6c       	ori	r24, 0xC0	; 192
     ba4:	80 93 7a 00 	sts	0x007A, r24
    while (!(ADCSRA & (1<<ADIF))) {
     ba8:	80 91 7a 00 	lds	r24, 0x007A
     bac:	84 ff       	sbrs	r24, 4
     bae:	fc cf       	rjmp	.-8      	; 0xba8 <Peripherals_ADC_Init+0x1e>
     bb0:	08 95       	ret

00000bb2 <Peripherals_ADC_Sample>:
      //add timeout management
    }
  }
}

uint16_t Peripherals_ADC_Sample(uint8_t channel, uint8_t nsamples){
     bb2:	df 92       	push	r13
     bb4:	ef 92       	push	r14
     bb6:	ff 92       	push	r15
     bb8:	0f 93       	push	r16
     bba:	1f 93       	push	r17
     bbc:	18 2f       	mov	r17, r24
     bbe:	d6 2e       	mov	r13, r22
  uint8_t  temp;
  uint32_t val = 0;
  Peripherals_ADC_Init();
     bc0:	0e 94 c5 05 	call	0xb8a	; 0xb8a <Peripherals_ADC_Init>
  temp  = ADMUX;
     bc4:	80 91 7c 00 	lds	r24, 0x007C
  temp &= 0xF0;
     bc8:	80 7f       	andi	r24, 0xF0	; 240
  temp |= channel;
     bca:	81 2b       	or	r24, r17
  ADMUX = temp;
     bcc:	80 93 7c 00 	sts	0x007C, r24
     bd0:	84 ef       	ldi	r24, 0xF4	; 244
     bd2:	91 e0       	ldi	r25, 0x01	; 1
     bd4:	01 97       	sbiw	r24, 0x01	; 1
     bd6:	f1 f7       	brne	.-4      	; 0xbd4 <Peripherals_ADC_Sample+0x22>
     bd8:	ee 24       	eor	r14, r14
     bda:	ff 24       	eor	r15, r15
     bdc:	87 01       	movw	r16, r14
     bde:	20 e0       	ldi	r18, 0x00	; 0
     be0:	14 c0       	rjmp	.+40     	; 0xc0a <Peripherals_ADC_Sample+0x58>
  _delay_us(500);
  for(uint8_t i=0; i<nsamples; i++){
    ADCSRA |= (1<<ADSC);
     be2:	80 91 7a 00 	lds	r24, 0x007A
     be6:	80 64       	ori	r24, 0x40	; 64
     be8:	80 93 7a 00 	sts	0x007A, r24
    while (!(ADCSRA & (1<<ADIF))) {
     bec:	80 91 7a 00 	lds	r24, 0x007A
     bf0:	84 ff       	sbrs	r24, 4
     bf2:	fc cf       	rjmp	.-8      	; 0xbec <Peripherals_ADC_Sample+0x3a>
      //add timeout management
    }
    val += ADCW;
     bf4:	80 91 78 00 	lds	r24, 0x0078
     bf8:	90 91 79 00 	lds	r25, 0x0079
     bfc:	a0 e0       	ldi	r26, 0x00	; 0
     bfe:	b0 e0       	ldi	r27, 0x00	; 0
     c00:	e8 0e       	add	r14, r24
     c02:	f9 1e       	adc	r15, r25
     c04:	0a 1f       	adc	r16, r26
     c06:	1b 1f       	adc	r17, r27
  temp  = ADMUX;
  temp &= 0xF0;
  temp |= channel;
  ADMUX = temp;
  _delay_us(500);
  for(uint8_t i=0; i<nsamples; i++){
     c08:	2f 5f       	subi	r18, 0xFF	; 255
     c0a:	2d 15       	cp	r18, r13
     c0c:	50 f3       	brcs	.-44     	; 0xbe2 <Peripherals_ADC_Sample+0x30>
     c0e:	2d 2d       	mov	r18, r13
     c10:	30 e0       	ldi	r19, 0x00	; 0
     c12:	40 e0       	ldi	r20, 0x00	; 0
     c14:	50 e0       	ldi	r21, 0x00	; 0
     c16:	c8 01       	movw	r24, r16
     c18:	b7 01       	movw	r22, r14
     c1a:	0e 94 49 0e 	call	0x1c92	; 0x1c92 <__udivmodsi4>
     c1e:	c9 01       	movw	r24, r18
    }
    val += ADCW;
  }
  val /= nsamples;
  return (uint16_t)val;
}
     c20:	1f 91       	pop	r17
     c22:	0f 91       	pop	r16
     c24:	ff 90       	pop	r15
     c26:	ef 90       	pop	r14
     c28:	df 90       	pop	r13
     c2a:	08 95       	ret

00000c2c <Peripherals_Vin_Sense_Sample>:

void Peripherals_Vin_Sense_Sample(void){
  //Status bit 0 indicates Vinsense is active
  Peripherals.Status |= (1<<0);
     c2c:	80 91 24 01 	lds	r24, 0x0124
     c30:	81 60       	ori	r24, 0x01	; 1
     c32:	80 93 24 01 	sts	0x0124, r24
  //Enable VinSense
  PORTD |= (1<<2);
     c36:	5a 9a       	sbi	0x0b, 2	; 11
  //Sample ADC
  Peripherals.VinRawADC = Peripherals_ADC_Sample(6, 4);
     c38:	86 e0       	ldi	r24, 0x06	; 6
     c3a:	64 e0       	ldi	r22, 0x04	; 4
     c3c:	0e 94 d9 05 	call	0xbb2	; 0xbb2 <Peripherals_ADC_Sample>
     c40:	90 93 26 01 	sts	0x0126, r25
     c44:	80 93 25 01 	sts	0x0125, r24
  //Disable VinSense
  PORTD &=~(1<<2);
     c48:	5a 98       	cbi	0x0b, 2	; 11
  Peripherals.Status &=~(1<<0);
     c4a:	80 91 24 01 	lds	r24, 0x0124
     c4e:	8e 7f       	andi	r24, 0xFE	; 254
     c50:	80 93 24 01 	sts	0x0124, r24
}
     c54:	08 95       	ret

00000c56 <Peripherals_Vin_RawADC_Get>:

uint16_t Peripherals_Vin_RawADC_Get(void){
  return Peripherals.VinRawADC;
}
     c56:	80 91 25 01 	lds	r24, 0x0125
     c5a:	90 91 26 01 	lds	r25, 0x0126
     c5e:	08 95       	ret

00000c60 <Peripherals_Analog_Temp_Get>:

int16_t Peripherals_Analog_Temp_Get(void){
  return 0;
}
     c60:	80 e0       	ldi	r24, 0x00	; 0
     c62:	90 e0       	ldi	r25, 0x00	; 0
     c64:	08 95       	ret

00000c66 <Peripherals_Digital_Temp_Get>:

int16_t Peripherals_Digital_Temp_Get(void){
  return 0;
}
     c66:	80 e0       	ldi	r24, 0x00	; 0
     c68:	90 e0       	ldi	r25, 0x00	; 0
     c6a:	08 95       	ret

00000c6c <Peripherals_Digital_RH_Get>:

uint16_t Peripherals_Digital_RH_Get(void){
  return Sensors_HDC1080_RH_Get();
     c6c:	0e 94 3b 08 	call	0x1076	; 0x1076 <Sensors_HDC1080_RH_Get>
     c70:	08 95       	ret

00000c72 <RGB_Init>:


void RGB_Init(void){
    //LEDs are active low
    //Set logic high to turn off
    RGB_R_PORT |= (1<<RGB_R_PIN);
     c72:	5d 9a       	sbi	0x0b, 5	; 11
    RGB_G_PORT |= (1<<RGB_G_PIN);
     c74:	5e 9a       	sbi	0x0b, 6	; 11
    RGB_B_PORT |= (1<<RGB_B_PIN);
     c76:	5f 9a       	sbi	0x0b, 7	; 11
    
    //Declare pins as output
    RGB_R_DDR  |= (1<<RGB_R_PIN);
     c78:	55 9a       	sbi	0x0a, 5	; 10
    RGB_G_DDR  |= (1<<RGB_G_PIN);
     c7a:	56 9a       	sbi	0x0a, 6	; 10
    RGB_G_DDR  |= (1<<RGB_G_PIN);
     c7c:	56 9a       	sbi	0x0a, 6	; 10
}
     c7e:	08 95       	ret

00000c80 <RGB_Set_State>:

void RGB_Set_State(uint8_t r, uint8_t g, uint8_t b){
    if(r == ON){
     c80:	81 30       	cpi	r24, 0x01	; 1
     c82:	11 f4       	brne	.+4      	; 0xc88 <RGB_Set_State+0x8>
        RGB_R_PORT &=~ (1<<RGB_R_PIN);
     c84:	5d 98       	cbi	0x0b, 5	; 11
     c86:	01 c0       	rjmp	.+2      	; 0xc8a <RGB_Set_State+0xa>
    }
    else{
        RGB_R_PORT |=  (1<<RGB_R_PIN);
     c88:	5d 9a       	sbi	0x0b, 5	; 11
    }

    if(g == ON){
     c8a:	61 30       	cpi	r22, 0x01	; 1
     c8c:	11 f4       	brne	.+4      	; 0xc92 <RGB_Set_State+0x12>
        RGB_G_PORT &=~ (1<<RGB_G_PIN);
     c8e:	5e 98       	cbi	0x0b, 6	; 11
     c90:	01 c0       	rjmp	.+2      	; 0xc94 <RGB_Set_State+0x14>
    }
    else{
        RGB_G_PORT |=  (1<<RGB_G_PIN);
     c92:	5e 9a       	sbi	0x0b, 6	; 11
    }

    if(b == ON){
     c94:	41 30       	cpi	r20, 0x01	; 1
     c96:	11 f4       	brne	.+4      	; 0xc9c <RGB_Set_State+0x1c>
        RGB_B_PORT &=~ (1<<RGB_B_PIN);
     c98:	5f 98       	cbi	0x0b, 7	; 11
     c9a:	08 95       	ret
    }
    else{
        RGB_B_PORT |=  (1<<RGB_B_PIN);
     c9c:	5f 9a       	sbi	0x0b, 7	; 11
     c9e:	08 95       	ret

00000ca0 <Sensors_HDC1080_Struct_Init>:
}hdc1080_t;

hdc1080_t HDC1080;

void Sensors_HDC1080_Struct_Init(void){
    HDC1080.Status = 0;
     ca0:	10 92 9c 06 	sts	0x069C, r1
    HDC1080.Address = 0;
     ca4:	10 92 a0 06 	sts	0x06A0, r1
    HDC1080.LoopCnt = 0;
     ca8:	10 92 a2 06 	sts	0x06A2, r1
     cac:	10 92 a1 06 	sts	0x06A1, r1
    HDC1080.Temp = 0;
     cb0:	10 92 a4 06 	sts	0x06A4, r1
     cb4:	10 92 a3 06 	sts	0x06A3, r1
    HDC1080.RH = 0;
     cb8:	10 92 a6 06 	sts	0x06A6, r1
     cbc:	10 92 a5 06 	sts	0x06A5, r1
    HDC1080.TimeoutError = 0;
     cc0:	10 92 a7 06 	sts	0x06A7, r1
    HDC1080.Error = 0;
     cc4:	10 92 a8 06 	sts	0x06A8, r1
    HDC1080.StickyError = 0;
     cc8:	10 92 a9 06 	sts	0x06A9, r1
}
     ccc:	08 95       	ret

00000cce <Sensors_Init>:

void Sensors_Init(void){
    Sensors_HDC1080_Struct_Init();
     cce:	0e 94 50 06 	call	0xca0	; 0xca0 <Sensors_HDC1080_Struct_Init>
    //Gated with PMOS
    //Output logic high to turn off
    SENSORS_PWR_EN_PORT |= (1<<SENSORS_PWR_EN_BP);
     cd2:	5b 9a       	sbi	0x0b, 3	; 11
    //Declare as output pin
    SENSORS_PWR_EN_DDR  |= (1<<SENSORS_PWR_EN_BP);
     cd4:	53 9a       	sbi	0x0a, 3	; 10
    
    //SCL as input, internal pull-up disabled, HW I2C
    SENSORS_HDC1080_SCL_PORT &=~ (1<<SENSORS_HDC1080_SCL_BP);
     cd6:	45 98       	cbi	0x08, 5	; 8
    SENSORS_HDC1080_SCL_DDR  &=~ (1<<SENSORS_HDC1080_SCL_BP);
     cd8:	3d 98       	cbi	0x07, 5	; 7

    //SDA as input, internal pull-up disabled, HW I2C
    SENSORS_HDC1080_SDA_PORT &=~ (1<<SENSORS_HDC1080_SDA_BP);
     cda:	44 98       	cbi	0x08, 4	; 8
    SENSORS_HDC1080_SDA_DDR  &=~ (1<<SENSORS_HDC1080_SDA_BP);
     cdc:	3c 98       	cbi	0x07, 4	; 7
}
     cde:	08 95       	ret

00000ce0 <Sensors_I2C_SCL_State_Set>:

void Sensors_I2C_SCL_State_Set(uint8_t state){
    if(state == LOGIC_HIGH){
     ce0:	81 30       	cpi	r24, 0x01	; 1
     ce2:	21 f4       	brne	.+8      	; 0xcec <Sensors_I2C_SCL_State_Set+0xc>
        SENSORS_HDC1080_SCL_DDR  &=~ (1<<SENSORS_HDC1080_SCL_BP);
     ce4:	3d 98       	cbi	0x07, 5	; 7
        HDC1080.SCLState = LOGIC_HIGH;
     ce6:	80 93 9e 06 	sts	0x069E, r24
     cea:	08 95       	ret
    }
    else if(state == LOGIC_LOW){
     cec:	88 23       	and	r24, r24
     cee:	19 f4       	brne	.+6      	; 0xcf6 <Sensors_I2C_SCL_State_Set+0x16>
        SENSORS_HDC1080_SCL_DDR  |=  (1<<SENSORS_HDC1080_SCL_BP);
     cf0:	3d 9a       	sbi	0x07, 5	; 7
        HDC1080.SCLState = LOGIC_LOW;
     cf2:	10 92 9e 06 	sts	0x069E, r1
     cf6:	08 95       	ret

00000cf8 <Sensors_I2C_SDA_State_Set>:
    }
}

void Sensors_I2C_SDA_State_Set(uint8_t state){
    if(state == LOGIC_HIGH){
     cf8:	81 30       	cpi	r24, 0x01	; 1
     cfa:	21 f4       	brne	.+8      	; 0xd04 <Sensors_I2C_SDA_State_Set+0xc>
        SENSORS_HDC1080_SDA_DDR  &=~ (1<<SENSORS_HDC1080_SDA_BP);
     cfc:	3c 98       	cbi	0x07, 4	; 7
        HDC1080.SDAState = LOGIC_HIGH;
     cfe:	80 93 9f 06 	sts	0x069F, r24
     d02:	08 95       	ret
    }
    else if(state == LOGIC_LOW){
     d04:	88 23       	and	r24, r24
     d06:	19 f4       	brne	.+6      	; 0xd0e <Sensors_I2C_SDA_State_Set+0x16>
        SENSORS_HDC1080_SDA_DDR  |=  (1<<SENSORS_HDC1080_SDA_BP);
     d08:	3c 9a       	sbi	0x07, 4	; 7
        HDC1080.SDAState = LOGIC_LOW;
     d0a:	10 92 9f 06 	sts	0x069F, r1
     d0e:	08 95       	ret

00000d10 <Sensors_I2C_SDA_State_Get>:
    }
}

uint8_t Sensors_I2C_SDA_State_Get(void){
    if(SENSORS_HDC1080_SDA_DDR & (1<<SENSORS_HDC1080_SDA_BP)){
     d10:	3c 9b       	sbis	0x07, 4	; 7
     d12:	04 c0       	rjmp	.+8      	; 0xd1c <Sensors_I2C_SDA_State_Get+0xc>
        SENSORS_HDC1080_SDA_DDR  &=~ (1<<SENSORS_HDC1080_SDA_BP);
     d14:	3c 98       	cbi	0x07, 4	; 7
    can be achieved.
*/
void
_delay_loop_1(uint8_t __count)
{
	__asm__ volatile (
     d16:	86 e0       	ldi	r24, 0x06	; 6
     d18:	8a 95       	dec	r24
     d1a:	f1 f7       	brne	.-4      	; 0xd18 <Sensors_I2C_SDA_State_Get+0x8>
        _delay_us(SENSORS_HDC1080_HALF_BIT);
    }
    if(SENSORS_HDC1080_SDA_PIN & (1<<SENSORS_HDC1080_SDA_BP)){
     d1c:	86 b1       	in	r24, 0x06	; 6
     d1e:	90 e0       	ldi	r25, 0x00	; 0
     d20:	24 e0       	ldi	r18, 0x04	; 4
     d22:	96 95       	lsr	r25
     d24:	87 95       	ror	r24
     d26:	2a 95       	dec	r18
     d28:	e1 f7       	brne	.-8      	; 0xd22 <Sensors_I2C_SDA_State_Get+0x12>
        return LOGIC_HIGH;
    }
    else{
        return LOGIC_LOW;
    }
}
     d2a:	81 70       	andi	r24, 0x01	; 1
     d2c:	08 95       	ret

00000d2e <Sensors_I2C_Bus_Idle>:

uint8_t Sensors_I2C_Bus_Idle(void){
    if( ((SENSORS_HDC1080_SCL_DDR & (1<<SENSORS_HDC1080_SCL_BP)) && (SENSORS_HDC1080_SDA_DDR & (1<<SENSORS_HDC1080_SDA_BP))) ){
     d2e:	3d 99       	sbic	0x07, 5	; 7
     d30:	02 c0       	rjmp	.+4      	; 0xd36 <Sensors_I2C_Bus_Idle+0x8>
     d32:	80 e0       	ldi	r24, 0x00	; 0
     d34:	08 95       	ret
     d36:	87 b1       	in	r24, 0x07	; 7
     d38:	90 e0       	ldi	r25, 0x00	; 0
     d3a:	34 e0       	ldi	r19, 0x04	; 4
     d3c:	96 95       	lsr	r25
     d3e:	87 95       	ror	r24
     d40:	3a 95       	dec	r19
     d42:	e1 f7       	brne	.-8      	; 0xd3c <Sensors_I2C_Bus_Idle+0xe>
     d44:	81 70       	andi	r24, 0x01	; 1
        return TRUE;
    }
    return FALSE;
}
     d46:	08 95       	ret

00000d48 <Sensors_HDC1080_I2C_Start>:

void Sensors_HDC1080_I2C_Start(void){
     d48:	1f 93       	push	r17
    if(HDC1080.Error == 0){
     d4a:	80 91 a8 06 	lds	r24, 0x06A8
     d4e:	88 23       	and	r24, r24
     d50:	c1 f4       	brne	.+48     	; 0xd82 <Sensors_HDC1080_I2C_Start+0x3a>
        Sensors_I2C_SCL_State_Set(LOGIC_HIGH);
     d52:	81 e0       	ldi	r24, 0x01	; 1
     d54:	0e 94 70 06 	call	0xce0	; 0xce0 <Sensors_I2C_SCL_State_Set>
     d58:	16 e0       	ldi	r17, 0x06	; 6
     d5a:	81 2f       	mov	r24, r17
     d5c:	8a 95       	dec	r24
     d5e:	f1 f7       	brne	.-4      	; 0xd5c <Sensors_HDC1080_I2C_Start+0x14>
        _delay_us(SENSORS_HDC1080_HALF_BIT);
        Sensors_I2C_SDA_State_Set(LOGIC_HIGH);
     d60:	81 e0       	ldi	r24, 0x01	; 1
     d62:	0e 94 7c 06 	call	0xcf8	; 0xcf8 <Sensors_I2C_SDA_State_Set>
     d66:	81 2f       	mov	r24, r17
     d68:	8a 95       	dec	r24
     d6a:	f1 f7       	brne	.-4      	; 0xd68 <Sensors_HDC1080_I2C_Start+0x20>
        _delay_us(SENSORS_HDC1080_HALF_BIT);
        Sensors_I2C_SDA_State_Set(LOGIC_LOW);
     d6c:	80 e0       	ldi	r24, 0x00	; 0
     d6e:	0e 94 7c 06 	call	0xcf8	; 0xcf8 <Sensors_I2C_SDA_State_Set>
     d72:	81 2f       	mov	r24, r17
     d74:	8a 95       	dec	r24
     d76:	f1 f7       	brne	.-4      	; 0xd74 <Sensors_HDC1080_I2C_Start+0x2c>
        _delay_us(SENSORS_HDC1080_HALF_BIT);
        Sensors_I2C_SCL_State_Set(LOGIC_LOW);
     d78:	80 e0       	ldi	r24, 0x00	; 0
     d7a:	0e 94 70 06 	call	0xce0	; 0xce0 <Sensors_I2C_SCL_State_Set>
     d7e:	1a 95       	dec	r17
     d80:	f1 f7       	brne	.-4      	; 0xd7e <Sensors_HDC1080_I2C_Start+0x36>
        _delay_us(SENSORS_HDC1080_HALF_BIT);
    }
}
     d82:	1f 91       	pop	r17
     d84:	08 95       	ret

00000d86 <Sensors_HDC1080_I2C_Stop>:

void Sensors_HDC1080_I2C_Stop(void){
     d86:	1f 93       	push	r17
    if(HDC1080.Error == 0){
     d88:	80 91 a8 06 	lds	r24, 0x06A8
     d8c:	88 23       	and	r24, r24
     d8e:	d9 f4       	brne	.+54     	; 0xdc6 <Sensors_HDC1080_I2C_Stop+0x40>
        //if SCL logic high
        if( !(SENSORS_HDC1080_SCL_DDR & (1<<SENSORS_HDC1080_SCL_BP)) ){
     d90:	3d 99       	sbic	0x07, 5	; 7
     d92:	05 c0       	rjmp	.+10     	; 0xd9e <Sensors_HDC1080_I2C_Stop+0x18>
            Sensors_I2C_SCL_State_Set(LOGIC_LOW);
     d94:	0e 94 70 06 	call	0xce0	; 0xce0 <Sensors_I2C_SCL_State_Set>
     d98:	86 e0       	ldi	r24, 0x06	; 6
     d9a:	8a 95       	dec	r24
     d9c:	f1 f7       	brne	.-4      	; 0xd9a <Sensors_HDC1080_I2C_Stop+0x14>
            _delay_us(SENSORS_HDC1080_HALF_BIT);
        }
        //if SDA logic high
        if( !(SENSORS_HDC1080_SDA_DDR & (1<<SENSORS_HDC1080_SDA_BP)) ){
     d9e:	3c 99       	sbic	0x07, 4	; 7
     da0:	06 c0       	rjmp	.+12     	; 0xdae <Sensors_HDC1080_I2C_Stop+0x28>
            Sensors_I2C_SDA_State_Set(LOGIC_LOW);
     da2:	80 e0       	ldi	r24, 0x00	; 0
     da4:	0e 94 7c 06 	call	0xcf8	; 0xcf8 <Sensors_I2C_SDA_State_Set>
     da8:	86 e0       	ldi	r24, 0x06	; 6
     daa:	8a 95       	dec	r24
     dac:	f1 f7       	brne	.-4      	; 0xdaa <Sensors_HDC1080_I2C_Stop+0x24>
            _delay_us(SENSORS_HDC1080_HALF_BIT);
        }
        Sensors_I2C_SCL_State_Set(LOGIC_HIGH);
     dae:	81 e0       	ldi	r24, 0x01	; 1
     db0:	0e 94 70 06 	call	0xce0	; 0xce0 <Sensors_I2C_SCL_State_Set>
     db4:	16 e0       	ldi	r17, 0x06	; 6
     db6:	81 2f       	mov	r24, r17
     db8:	8a 95       	dec	r24
     dba:	f1 f7       	brne	.-4      	; 0xdb8 <Sensors_HDC1080_I2C_Stop+0x32>
        _delay_us(SENSORS_HDC1080_HALF_BIT);
        Sensors_I2C_SDA_State_Set(LOGIC_HIGH);
     dbc:	81 e0       	ldi	r24, 0x01	; 1
     dbe:	0e 94 7c 06 	call	0xcf8	; 0xcf8 <Sensors_I2C_SDA_State_Set>
     dc2:	1a 95       	dec	r17
     dc4:	f1 f7       	brne	.-4      	; 0xdc2 <Sensors_HDC1080_I2C_Stop+0x3c>
        _delay_us(SENSORS_HDC1080_HALF_BIT);
    }
}
     dc6:	1f 91       	pop	r17
     dc8:	08 95       	ret

00000dca <Sensors_HDC1080_I2C_Forced_Stop_Clear_Error>:

void Sensors_HDC1080_I2C_Forced_Stop_Clear_Error(void){
     dca:	1f 93       	push	r17
    if(HDC1080.Error != 0){
     dcc:	80 91 a8 06 	lds	r24, 0x06A8
     dd0:	88 23       	and	r24, r24
     dd2:	09 f1       	breq	.+66     	; 0xe16 <Sensors_HDC1080_I2C_Forced_Stop_Clear_Error+0x4c>
        if ( Sensors_I2C_Bus_Idle() == FALSE ){
     dd4:	0e 94 97 06 	call	0xd2e	; 0xd2e <Sensors_I2C_Bus_Idle>
     dd8:	88 23       	and	r24, r24
     dda:	b9 f4       	brne	.+46     	; 0xe0a <Sensors_HDC1080_I2C_Forced_Stop_Clear_Error+0x40>
            Sensors_I2C_SCL_State_Set(LOGIC_LOW);
     ddc:	0e 94 70 06 	call	0xce0	; 0xce0 <Sensors_I2C_SCL_State_Set>
     de0:	16 e0       	ldi	r17, 0x06	; 6
     de2:	81 2f       	mov	r24, r17
     de4:	8a 95       	dec	r24
     de6:	f1 f7       	brne	.-4      	; 0xde4 <Sensors_HDC1080_I2C_Forced_Stop_Clear_Error+0x1a>
            _delay_us(SENSORS_HDC1080_HALF_BIT);
            Sensors_I2C_SDA_State_Set(LOGIC_LOW);
     de8:	80 e0       	ldi	r24, 0x00	; 0
     dea:	0e 94 7c 06 	call	0xcf8	; 0xcf8 <Sensors_I2C_SDA_State_Set>
     dee:	81 2f       	mov	r24, r17
     df0:	8a 95       	dec	r24
     df2:	f1 f7       	brne	.-4      	; 0xdf0 <Sensors_HDC1080_I2C_Forced_Stop_Clear_Error+0x26>
            _delay_us(SENSORS_HDC1080_HALF_BIT);
            Sensors_I2C_SCL_State_Set(LOGIC_HIGH);
     df4:	81 e0       	ldi	r24, 0x01	; 1
     df6:	0e 94 70 06 	call	0xce0	; 0xce0 <Sensors_I2C_SCL_State_Set>
     dfa:	81 2f       	mov	r24, r17
     dfc:	8a 95       	dec	r24
     dfe:	f1 f7       	brne	.-4      	; 0xdfc <Sensors_HDC1080_I2C_Forced_Stop_Clear_Error+0x32>
            _delay_us(SENSORS_HDC1080_HALF_BIT);
            Sensors_I2C_SDA_State_Set(LOGIC_HIGH);
     e00:	81 e0       	ldi	r24, 0x01	; 1
     e02:	0e 94 7c 06 	call	0xcf8	; 0xcf8 <Sensors_I2C_SDA_State_Set>
     e06:	1a 95       	dec	r17
     e08:	f1 f7       	brne	.-4      	; 0xe06 <Sensors_HDC1080_I2C_Forced_Stop_Clear_Error+0x3c>
            _delay_us(SENSORS_HDC1080_HALF_BIT);
        }
        HDC1080.StickyError = HDC1080.Error;
     e0a:	80 91 a8 06 	lds	r24, 0x06A8
     e0e:	80 93 a9 06 	sts	0x06A9, r24
        HDC1080.Error = 0;
     e12:	10 92 a8 06 	sts	0x06A8, r1
    }
}
     e16:	1f 91       	pop	r17
     e18:	08 95       	ret

00000e1a <Sensors_HDC1080_I2C_Send>:

void Sensors_HDC1080_I2C_Send(uint8_t addr){
     e1a:	ff 92       	push	r15
     e1c:	0f 93       	push	r16
     e1e:	1f 93       	push	r17
     e20:	08 2f       	mov	r16, r24
    if(HDC1080.Error == 0){
     e22:	80 91 a8 06 	lds	r24, 0x06A8
     e26:	88 23       	and	r24, r24
     e28:	f1 f4       	brne	.+60     	; 0xe66 <Sensors_HDC1080_I2C_Send+0x4c>
     e2a:	10 e0       	ldi	r17, 0x00	; 0
     e2c:	46 e0       	ldi	r20, 0x06	; 6
     e2e:	f4 2e       	mov	r15, r20
        for(uint8_t i=0;i<8;i++){
            if(addr & 0x80){
     e30:	07 ff       	sbrs	r16, 7
     e32:	02 c0       	rjmp	.+4      	; 0xe38 <Sensors_HDC1080_I2C_Send+0x1e>
                Sensors_I2C_SDA_State_Set(LOGIC_HIGH);
     e34:	81 e0       	ldi	r24, 0x01	; 1
     e36:	01 c0       	rjmp	.+2      	; 0xe3a <Sensors_HDC1080_I2C_Send+0x20>
            }
            else{
                Sensors_I2C_SDA_State_Set(LOGIC_LOW);
     e38:	80 e0       	ldi	r24, 0x00	; 0
     e3a:	0e 94 7c 06 	call	0xcf8	; 0xcf8 <Sensors_I2C_SDA_State_Set>
     e3e:	8f 2d       	mov	r24, r15
     e40:	8a 95       	dec	r24
     e42:	f1 f7       	brne	.-4      	; 0xe40 <Sensors_HDC1080_I2C_Send+0x26>
            }
            _delay_us(SENSORS_HDC1080_HALF_BIT);
            Sensors_I2C_SCL_State_Set(LOGIC_HIGH);
     e44:	81 e0       	ldi	r24, 0x01	; 1
     e46:	0e 94 70 06 	call	0xce0	; 0xce0 <Sensors_I2C_SCL_State_Set>
     e4a:	8f 2d       	mov	r24, r15
     e4c:	8a 95       	dec	r24
     e4e:	f1 f7       	brne	.-4      	; 0xe4c <Sensors_HDC1080_I2C_Send+0x32>
            _delay_us(SENSORS_HDC1080_HALF_BIT);
            Sensors_I2C_SCL_State_Set(LOGIC_LOW);
     e50:	80 e0       	ldi	r24, 0x00	; 0
     e52:	0e 94 70 06 	call	0xce0	; 0xce0 <Sensors_I2C_SCL_State_Set>
     e56:	8f 2d       	mov	r24, r15
     e58:	8a 95       	dec	r24
     e5a:	f1 f7       	brne	.-4      	; 0xe58 <Sensors_HDC1080_I2C_Send+0x3e>
    }
}

void Sensors_HDC1080_I2C_Send(uint8_t addr){
    if(HDC1080.Error == 0){
        for(uint8_t i=0;i<8;i++){
     e5c:	1f 5f       	subi	r17, 0xFF	; 255
     e5e:	18 30       	cpi	r17, 0x08	; 8
     e60:	11 f0       	breq	.+4      	; 0xe66 <Sensors_HDC1080_I2C_Send+0x4c>
            _delay_us(SENSORS_HDC1080_HALF_BIT);
            Sensors_I2C_SCL_State_Set(LOGIC_HIGH);
            _delay_us(SENSORS_HDC1080_HALF_BIT);
            Sensors_I2C_SCL_State_Set(LOGIC_LOW);
            _delay_us(SENSORS_HDC1080_HALF_BIT);
            addr <<= 1;
     e62:	00 0f       	add	r16, r16
     e64:	e5 cf       	rjmp	.-54     	; 0xe30 <Sensors_HDC1080_I2C_Send+0x16>
        }
    }
}
     e66:	1f 91       	pop	r17
     e68:	0f 91       	pop	r16
     e6a:	ff 90       	pop	r15
     e6c:	08 95       	ret

00000e6e <Sensors_HDC1080_I2C_Receive>:

uint8_t Sensors_HDC1080_I2C_Receive(void){
     e6e:	ff 92       	push	r15
     e70:	0f 93       	push	r16
     e72:	1f 93       	push	r17
    uint8_t val = 0;
    if(HDC1080.Error == 0){
     e74:	80 91 a8 06 	lds	r24, 0x06A8
     e78:	88 23       	and	r24, r24
     e7a:	11 f0       	breq	.+4      	; 0xe80 <Sensors_HDC1080_I2C_Receive+0x12>
     e7c:	10 e0       	ldi	r17, 0x00	; 0
     e7e:	1f c0       	rjmp	.+62     	; 0xebe <Sensors_HDC1080_I2C_Receive+0x50>
        //Set SDA as input
        Sensors_I2C_SDA_State_Set(LOGIC_HIGH);
     e80:	81 e0       	ldi	r24, 0x01	; 1
     e82:	0e 94 7c 06 	call	0xcf8	; 0xcf8 <Sensors_I2C_SDA_State_Set>
     e86:	86 e0       	ldi	r24, 0x06	; 6
     e88:	8a 95       	dec	r24
     e8a:	f1 f7       	brne	.-4      	; 0xe88 <Sensors_HDC1080_I2C_Receive+0x1a>
     e8c:	10 e0       	ldi	r17, 0x00	; 0
     e8e:	00 e0       	ldi	r16, 0x00	; 0
        _delay_us(SENSORS_HDC1080_HALF_BIT);
        for(uint8_t i=0;i<8;i++){
            val <<= 1;
     e90:	56 e0       	ldi	r21, 0x06	; 6
     e92:	f5 2e       	mov	r15, r21
     e94:	11 0f       	add	r17, r17
            if(Sensors_I2C_SDA_State_Get() == LOGIC_HIGH){
     e96:	0e 94 88 06 	call	0xd10	; 0xd10 <Sensors_I2C_SDA_State_Get>
     e9a:	81 30       	cpi	r24, 0x01	; 1
     e9c:	09 f4       	brne	.+2      	; 0xea0 <Sensors_HDC1080_I2C_Receive+0x32>
                val |= 1;
     e9e:	11 60       	ori	r17, 0x01	; 1
            }
            Sensors_I2C_SCL_State_Set(LOGIC_HIGH);
     ea0:	81 e0       	ldi	r24, 0x01	; 1
     ea2:	0e 94 70 06 	call	0xce0	; 0xce0 <Sensors_I2C_SCL_State_Set>
     ea6:	8f 2d       	mov	r24, r15
     ea8:	8a 95       	dec	r24
     eaa:	f1 f7       	brne	.-4      	; 0xea8 <Sensors_HDC1080_I2C_Receive+0x3a>
            _delay_us(SENSORS_HDC1080_HALF_BIT);
            Sensors_I2C_SCL_State_Set(LOGIC_LOW);
     eac:	80 e0       	ldi	r24, 0x00	; 0
     eae:	0e 94 70 06 	call	0xce0	; 0xce0 <Sensors_I2C_SCL_State_Set>
     eb2:	8f 2d       	mov	r24, r15
     eb4:	8a 95       	dec	r24
     eb6:	f1 f7       	brne	.-4      	; 0xeb4 <Sensors_HDC1080_I2C_Receive+0x46>
    uint8_t val = 0;
    if(HDC1080.Error == 0){
        //Set SDA as input
        Sensors_I2C_SDA_State_Set(LOGIC_HIGH);
        _delay_us(SENSORS_HDC1080_HALF_BIT);
        for(uint8_t i=0;i<8;i++){
     eb8:	0f 5f       	subi	r16, 0xFF	; 255
     eba:	08 30       	cpi	r16, 0x08	; 8
     ebc:	59 f7       	brne	.-42     	; 0xe94 <Sensors_HDC1080_I2C_Receive+0x26>
            Sensors_I2C_SCL_State_Set(LOGIC_LOW);
            _delay_us(SENSORS_HDC1080_HALF_BIT);
        }
    }
    return val;
}
     ebe:	81 2f       	mov	r24, r17
     ec0:	1f 91       	pop	r17
     ec2:	0f 91       	pop	r16
     ec4:	ff 90       	pop	r15
     ec6:	08 95       	ret

00000ec8 <Sensors_HDC1080_I2C_Check_Ack>:

void Sensors_HDC1080_I2C_Check_Ack(void){
     ec8:	1f 93       	push	r17
    if(HDC1080.Error == 0){
     eca:	80 91 a8 06 	lds	r24, 0x06A8
     ece:	88 23       	and	r24, r24
     ed0:	f9 f4       	brne	.+62     	; 0xf10 <Sensors_HDC1080_I2C_Check_Ack+0x48>
        //SDA input mode
        Sensors_I2C_SDA_State_Set(LOGIC_HIGH);
     ed2:	81 e0       	ldi	r24, 0x01	; 1
     ed4:	0e 94 7c 06 	call	0xcf8	; 0xcf8 <Sensors_I2C_SDA_State_Set>
     ed8:	12 e0       	ldi	r17, 0x02	; 2
     eda:	81 2f       	mov	r24, r17
     edc:	8a 95       	dec	r24
     ede:	f1 f7       	brne	.-4      	; 0xedc <Sensors_HDC1080_I2C_Check_Ack+0x14>
        _delay_us(SENSORS_HDC1080_QUARTER_BIT);
        Sensors_I2C_SCL_State_Set(LOGIC_HIGH);
     ee0:	81 e0       	ldi	r24, 0x01	; 1
     ee2:	0e 94 70 06 	call	0xce0	; 0xce0 <Sensors_I2C_SCL_State_Set>
     ee6:	1a 95       	dec	r17
     ee8:	f1 f7       	brne	.-4      	; 0xee6 <Sensors_HDC1080_I2C_Check_Ack+0x1e>
        _delay_us(SENSORS_HDC1080_QUARTER_BIT);
        if(Sensors_I2C_SDA_State_Get() == LOGIC_LOW){
     eea:	0e 94 88 06 	call	0xd10	; 0xd10 <Sensors_I2C_SDA_State_Get>
     eee:	88 23       	and	r24, r24
     ef0:	21 f4       	brne	.+8      	; 0xefa <Sensors_HDC1080_I2C_Check_Ack+0x32>
            HDC1080.AckStatus = TRUE;
     ef2:	81 e0       	ldi	r24, 0x01	; 1
     ef4:	80 93 9d 06 	sts	0x069D, r24
     ef8:	02 c0       	rjmp	.+4      	; 0xefe <Sensors_HDC1080_I2C_Check_Ack+0x36>
        }
        else{
            HDC1080.AckStatus = FALSE;
     efa:	10 92 9d 06 	sts	0x069D, r1
     efe:	12 e0       	ldi	r17, 0x02	; 2
     f00:	81 2f       	mov	r24, r17
     f02:	8a 95       	dec	r24
     f04:	f1 f7       	brne	.-4      	; 0xf02 <Sensors_HDC1080_I2C_Check_Ack+0x3a>
        }
        _delay_us(SENSORS_HDC1080_QUARTER_BIT);
        Sensors_I2C_SCL_State_Set(LOGIC_LOW);
     f06:	80 e0       	ldi	r24, 0x00	; 0
     f08:	0e 94 70 06 	call	0xce0	; 0xce0 <Sensors_I2C_SCL_State_Set>
     f0c:	1a 95       	dec	r17
     f0e:	f1 f7       	brne	.-4      	; 0xf0c <Sensors_HDC1080_I2C_Check_Ack+0x44>
        _delay_us(SENSORS_HDC1080_QUARTER_BIT);
    }
}
     f10:	1f 91       	pop	r17
     f12:	08 95       	ret

00000f14 <Sensors_HDC1080_I2C_Send_Ack>:

void Sensors_HDC1080_I2C_Send_Ack(void){
     f14:	1f 93       	push	r17
    if(HDC1080.Error == 0){
     f16:	80 91 a8 06 	lds	r24, 0x06A8
     f1a:	88 23       	and	r24, r24
     f1c:	a1 f4       	brne	.+40     	; 0xf46 <Sensors_HDC1080_I2C_Send_Ack+0x32>
        //SDA input mode
        Sensors_I2C_SDA_State_Set(LOGIC_LOW);
     f1e:	0e 94 7c 06 	call	0xcf8	; 0xcf8 <Sensors_I2C_SDA_State_Set>
     f22:	12 e0       	ldi	r17, 0x02	; 2
     f24:	81 2f       	mov	r24, r17
     f26:	8a 95       	dec	r24
     f28:	f1 f7       	brne	.-4      	; 0xf26 <Sensors_HDC1080_I2C_Send_Ack+0x12>
        _delay_us(SENSORS_HDC1080_QUARTER_BIT);
        Sensors_I2C_SCL_State_Set(LOGIC_HIGH);
     f2a:	81 e0       	ldi	r24, 0x01	; 1
     f2c:	0e 94 70 06 	call	0xce0	; 0xce0 <Sensors_I2C_SCL_State_Set>
     f30:	81 2f       	mov	r24, r17
     f32:	8a 95       	dec	r24
     f34:	f1 f7       	brne	.-4      	; 0xf32 <Sensors_HDC1080_I2C_Send_Ack+0x1e>
        _delay_us(SENSORS_HDC1080_QUARTER_BIT);
        _delay_us(SENSORS_HDC1080_QUARTER_BIT);
        Sensors_I2C_SCL_State_Set(LOGIC_LOW);
     f36:	81 2f       	mov	r24, r17
     f38:	8a 95       	dec	r24
     f3a:	f1 f7       	brne	.-4      	; 0xf38 <Sensors_HDC1080_I2C_Send_Ack+0x24>
     f3c:	80 e0       	ldi	r24, 0x00	; 0
     f3e:	0e 94 70 06 	call	0xce0	; 0xce0 <Sensors_I2C_SCL_State_Set>
     f42:	1a 95       	dec	r17
     f44:	f1 f7       	brne	.-4      	; 0xf42 <Sensors_HDC1080_I2C_Send_Ack+0x2e>
        _delay_us(SENSORS_HDC1080_QUARTER_BIT);
    }
}
     f46:	1f 91       	pop	r17
     f48:	08 95       	ret

00000f4a <Sensors_Sample>:




void Sensors_Sample(void){
     f4a:	0f 93       	push	r16
     f4c:	1f 93       	push	r17
    uint32_t rh_val = 0;
    //Enable Power to sensor module
    SENSORS_PWR_EN_PORT &=~ (1<<SENSORS_PWR_EN_BP);
     f4e:	5b 98       	cbi	0x0b, 3	; 11
    milliseconds can be achieved.
 */
void
_delay_loop_2(uint16_t __count)
{
	__asm__ volatile (
     f50:	80 e2       	ldi	r24, 0x20	; 32
     f52:	9e e4       	ldi	r25, 0x4E	; 78
     f54:	01 97       	sbiw	r24, 0x01	; 1
     f56:	f1 f7       	brne	.-4      	; 0xf54 <Sensors_Sample+0xa>
    //Wait until sensor is ready
    _delay_ms(SENSORS_HDC1080_CONV_DELAY);
    
    //Clear all errors
    HDC1080.Error = 0;
     f58:	10 92 a8 06 	sts	0x06A8, r1
     f5c:	10 e0       	ldi	r17, 0x00	; 0
        Sensors_HDC1080_I2C_Send( SENSORS_HDC1080_ADDR << 1 );
        Sensors_HDC1080_I2C_Check_Ack();
        if(HDC1080.AckStatus == FALSE){
            Sensors_HDC1080_I2C_Stop();
            if(i == 49){
                HDC1080.Error = SENSOR_ERROR_I2C_ADDR_W_NACK;
     f5e:	01 e0       	ldi	r16, 0x01	; 1
    //Clear all errors
    HDC1080.Error = 0;

    //Config sensor
    for(uint8_t i = 0; i<50; i++){
        Sensors_HDC1080_I2C_Start();
     f60:	0e 94 a4 06 	call	0xd48	; 0xd48 <Sensors_HDC1080_I2C_Start>
        Sensors_HDC1080_I2C_Send( SENSORS_HDC1080_ADDR << 1 );
     f64:	80 e8       	ldi	r24, 0x80	; 128
     f66:	0e 94 0d 07 	call	0xe1a	; 0xe1a <Sensors_HDC1080_I2C_Send>
        Sensors_HDC1080_I2C_Check_Ack();
     f6a:	0e 94 64 07 	call	0xec8	; 0xec8 <Sensors_HDC1080_I2C_Check_Ack>
        if(HDC1080.AckStatus == FALSE){
     f6e:	80 91 9d 06 	lds	r24, 0x069D
     f72:	88 23       	and	r24, r24
     f74:	49 f4       	brne	.+18     	; 0xf88 <Sensors_Sample+0x3e>
            Sensors_HDC1080_I2C_Stop();
     f76:	0e 94 c3 06 	call	0xd86	; 0xd86 <Sensors_HDC1080_I2C_Stop>
            if(i == 49){
     f7a:	11 33       	cpi	r17, 0x31	; 49
     f7c:	11 f4       	brne	.+4      	; 0xf82 <Sensors_Sample+0x38>
                HDC1080.Error = SENSOR_ERROR_I2C_ADDR_W_NACK;
     f7e:	00 93 a8 06 	sts	0x06A8, r16
    
    //Clear all errors
    HDC1080.Error = 0;

    //Config sensor
    for(uint8_t i = 0; i<50; i++){
     f82:	1f 5f       	subi	r17, 0xFF	; 255
     f84:	12 33       	cpi	r17, 0x32	; 50
     f86:	61 f7       	brne	.-40     	; 0xf60 <Sensors_Sample+0x16>
        }
        else{
            break;
        }
    }
    Sensors_HDC1080_I2C_Send(0x02);
     f88:	82 e0       	ldi	r24, 0x02	; 2
     f8a:	0e 94 0d 07 	call	0xe1a	; 0xe1a <Sensors_HDC1080_I2C_Send>
    Sensors_HDC1080_I2C_Check_Ack();
     f8e:	0e 94 64 07 	call	0xec8	; 0xec8 <Sensors_HDC1080_I2C_Check_Ack>
    Sensors_HDC1080_I2C_Send(0x00);
     f92:	80 e0       	ldi	r24, 0x00	; 0
     f94:	0e 94 0d 07 	call	0xe1a	; 0xe1a <Sensors_HDC1080_I2C_Send>
    Sensors_HDC1080_I2C_Check_Ack();
     f98:	0e 94 64 07 	call	0xec8	; 0xec8 <Sensors_HDC1080_I2C_Check_Ack>
    Sensors_HDC1080_I2C_Send(0x00);
     f9c:	80 e0       	ldi	r24, 0x00	; 0
     f9e:	0e 94 0d 07 	call	0xe1a	; 0xe1a <Sensors_HDC1080_I2C_Send>
    Sensors_HDC1080_I2C_Check_Ack();
     fa2:	0e 94 64 07 	call	0xec8	; 0xec8 <Sensors_HDC1080_I2C_Check_Ack>
    Sensors_HDC1080_I2C_Stop();
     fa6:	0e 94 c3 06 	call	0xd86	; 0xd86 <Sensors_HDC1080_I2C_Stop>
    
    //Trigger RH measurement
    Sensors_HDC1080_I2C_Start();
     faa:	0e 94 a4 06 	call	0xd48	; 0xd48 <Sensors_HDC1080_I2C_Start>
    Sensors_HDC1080_I2C_Send(SENSORS_HDC1080_ADDR << 1);
     fae:	80 e8       	ldi	r24, 0x80	; 128
     fb0:	0e 94 0d 07 	call	0xe1a	; 0xe1a <Sensors_HDC1080_I2C_Send>
    Sensors_HDC1080_I2C_Check_Ack();
     fb4:	0e 94 64 07 	call	0xec8	; 0xec8 <Sensors_HDC1080_I2C_Check_Ack>
    Sensors_HDC1080_I2C_Send(0x01);
     fb8:	81 e0       	ldi	r24, 0x01	; 1
     fba:	0e 94 0d 07 	call	0xe1a	; 0xe1a <Sensors_HDC1080_I2C_Send>
    Sensors_HDC1080_I2C_Check_Ack();
     fbe:	0e 94 64 07 	call	0xec8	; 0xec8 <Sensors_HDC1080_I2C_Check_Ack>
    Sensors_HDC1080_I2C_Stop();
     fc2:	0e 94 c3 06 	call	0xd86	; 0xd86 <Sensors_HDC1080_I2C_Stop>
     fc6:	10 e0       	ldi	r17, 0x00	; 0

    //Read RH
    
    for(uint8_t i = 0; i<50; i++){
        Sensors_HDC1080_I2C_Start();
     fc8:	0e 94 a4 06 	call	0xd48	; 0xd48 <Sensors_HDC1080_I2C_Start>
        Sensors_HDC1080_I2C_Send( (SENSORS_HDC1080_ADDR << 1) | 1);
     fcc:	81 e8       	ldi	r24, 0x81	; 129
     fce:	0e 94 0d 07 	call	0xe1a	; 0xe1a <Sensors_HDC1080_I2C_Send>
        Sensors_HDC1080_I2C_Check_Ack();
     fd2:	0e 94 64 07 	call	0xec8	; 0xec8 <Sensors_HDC1080_I2C_Check_Ack>
        if(HDC1080.AckStatus == FALSE){
     fd6:	80 91 9d 06 	lds	r24, 0x069D
     fda:	88 23       	and	r24, r24
     fdc:	29 f4       	brne	.+10     	; 0xfe8 <Sensors_Sample+0x9e>
            Sensors_HDC1080_I2C_Stop();
     fde:	0e 94 c3 06 	call	0xd86	; 0xd86 <Sensors_HDC1080_I2C_Stop>
    Sensors_HDC1080_I2C_Check_Ack();
    Sensors_HDC1080_I2C_Stop();

    //Read RH
    
    for(uint8_t i = 0; i<50; i++){
     fe2:	1f 5f       	subi	r17, 0xFF	; 255
     fe4:	12 33       	cpi	r17, 0x32	; 50
     fe6:	81 f7       	brne	.-32     	; 0xfc8 <Sensors_Sample+0x7e>
        }
        else{
            break;
        }
    }
    rh_val = Sensors_HDC1080_I2C_Receive();
     fe8:	0e 94 37 07 	call	0xe6e	; 0xe6e <Sensors_HDC1080_I2C_Receive>
     fec:	08 2f       	mov	r16, r24
    Sensors_HDC1080_I2C_Send_Ack();
     fee:	0e 94 8a 07 	call	0xf14	; 0xf14 <Sensors_HDC1080_I2C_Send_Ack>
    rh_val <<= 8;
    rh_val |= Sensors_HDC1080_I2C_Receive();
     ff2:	0e 94 37 07 	call	0xe6e	; 0xe6e <Sensors_HDC1080_I2C_Receive>
     ff6:	18 2f       	mov	r17, r24
    Sensors_HDC1080_I2C_Check_Ack();
     ff8:	0e 94 64 07 	call	0xec8	; 0xec8 <Sensors_HDC1080_I2C_Check_Ack>
    Sensors_HDC1080_I2C_Stop();
     ffc:	0e 94 c3 06 	call	0xd86	; 0xd86 <Sensors_HDC1080_I2C_Stop>

    if(HDC1080.Error == 0){
    1000:	80 91 a8 06 	lds	r24, 0x06A8
    1004:	88 23       	and	r24, r24
    1006:	09 f5       	brne	.+66     	; 0x104a <Sensors_Sample+0x100>
        }
        else{
            break;
        }
    }
    rh_val = Sensors_HDC1080_I2C_Receive();
    1008:	60 2f       	mov	r22, r16
    100a:	70 e0       	ldi	r23, 0x00	; 0
    100c:	80 e0       	ldi	r24, 0x00	; 0
    100e:	90 e0       	ldi	r25, 0x00	; 0
    Sensors_HDC1080_I2C_Send_Ack();
    rh_val <<= 8;
    1010:	98 2f       	mov	r25, r24
    1012:	87 2f       	mov	r24, r23
    1014:	76 2f       	mov	r23, r22
    1016:	66 27       	eor	r22, r22
    rh_val |= Sensors_HDC1080_I2C_Receive();
    1018:	21 2f       	mov	r18, r17
    101a:	30 e0       	ldi	r19, 0x00	; 0
    101c:	40 e0       	ldi	r20, 0x00	; 0
    101e:	50 e0       	ldi	r21, 0x00	; 0
    1020:	62 2b       	or	r22, r18
    1022:	73 2b       	or	r23, r19
    1024:	84 2b       	or	r24, r20
    1026:	95 2b       	or	r25, r21
    Sensors_HDC1080_I2C_Check_Ack();
    Sensors_HDC1080_I2C_Stop();

    if(HDC1080.Error == 0){
        rh_val*=100;
    1028:	24 e6       	ldi	r18, 0x64	; 100
    102a:	30 e0       	ldi	r19, 0x00	; 0
    102c:	40 e0       	ldi	r20, 0x00	; 0
    102e:	50 e0       	ldi	r21, 0x00	; 0
    1030:	0e 94 2a 0e 	call	0x1c54	; 0x1c54 <__mulsi3>
        rh_val/=65535;
        HDC1080.RH = (uint16_t)rh_val;
    1034:	2f ef       	ldi	r18, 0xFF	; 255
    1036:	3f ef       	ldi	r19, 0xFF	; 255
    1038:	40 e0       	ldi	r20, 0x00	; 0
    103a:	50 e0       	ldi	r21, 0x00	; 0
    103c:	0e 94 49 0e 	call	0x1c92	; 0x1c92 <__udivmodsi4>
    1040:	30 93 a6 06 	sts	0x06A6, r19
    1044:	20 93 a5 06 	sts	0x06A5, r18
    1048:	04 c0       	rjmp	.+8      	; 0x1052 <Sensors_Sample+0x108>
    }
    else{
        HDC1080.RH = 0;
    104a:	10 92 a6 06 	sts	0x06A6, r1
    104e:	10 92 a5 06 	sts	0x06A5, r1
    }

    //Clear errors, send forced stop if necessary
    Sensors_HDC1080_I2C_Forced_Stop_Clear_Error();
    1052:	0e 94 e5 06 	call	0xdca	; 0xdca <Sensors_HDC1080_I2C_Forced_Stop_Clear_Error>
    //Disable Power to sensor module
    SENSORS_PWR_EN_PORT |=  (1<<SENSORS_PWR_EN_BP);
    1056:	5b 9a       	sbi	0x0b, 3	; 11
}
    1058:	1f 91       	pop	r17
    105a:	0f 91       	pop	r16
    105c:	08 95       	ret

0000105e <Sensors_HDC1080_Address_Get>:



uint8_t Sensors_HDC1080_Address_Get(void){
  return HDC1080.Address;
}
    105e:	80 91 a0 06 	lds	r24, 0x06A0
    1062:	08 95       	ret

00001064 <Sensors_HDC1080_Status_Get>:

uint8_t Sensors_HDC1080_Status_Get(void){
  return HDC1080.Status;
}
    1064:	80 91 9c 06 	lds	r24, 0x069C
    1068:	08 95       	ret

0000106a <Sensors_HDC1080_Error_Get>:

uint8_t Sensors_HDC1080_Error_Get(void){
  return HDC1080.Error;
}
    106a:	80 91 a8 06 	lds	r24, 0x06A8
    106e:	08 95       	ret

00001070 <Sensors_HDC1080_Sticky_Error_Get>:

uint8_t Sensors_HDC1080_Sticky_Error_Get(void){
  return HDC1080.StickyError;
}
    1070:	80 91 a9 06 	lds	r24, 0x06A9
    1074:	08 95       	ret

00001076 <Sensors_HDC1080_RH_Get>:

uint16_t Sensors_HDC1080_RH_Get(void){
    return HDC1080.RH;
    1076:	80 91 a5 06 	lds	r24, 0x06A5
    107a:	90 91 a6 06 	lds	r25, 0x06A6
    107e:	08 95       	ret

00001080 <__vector_7>:

#ifdef  KER_TOSC_AS_TICK_SRC                                                                   
.global  __vector_7                                                                            
    __vector_7:                                           ;total 40.00uS @8MHz    (344 clocks) 
	    KER_DEBUG_PIN_SET                                 ;debug pin set          (  2 clocks) 
		KER_EXIT_SLEEP                                    ;exit sleep if enabled  (  5 clocks) 
    1080:	20 91 53 00 	lds	r18, 0x0053
    1084:	2e 7f       	andi	r18, 0xFE	; 254
    1086:	20 93 53 00 	sts	0x0053, r18
        KER_CONTEXT_SAVE_HANDLER                          ;save context           ( 68 clocks) 
    108a:	0f 92       	push	r0
    108c:	0f b6       	in	r0, 0x3f	; 63
    108e:	0f 92       	push	r0
    1090:	1f 92       	push	r1
    1092:	11 24       	eor	r1, r1
    1094:	2f 92       	push	r2
    1096:	3f 92       	push	r3
    1098:	4f 92       	push	r4
    109a:	5f 92       	push	r5
    109c:	6f 92       	push	r6
    109e:	7f 92       	push	r7
    10a0:	8f 92       	push	r8
    10a2:	9f 92       	push	r9
    10a4:	af 92       	push	r10
    10a6:	bf 92       	push	r11
    10a8:	cf 92       	push	r12
    10aa:	df 92       	push	r13
    10ac:	ef 92       	push	r14
    10ae:	ff 92       	push	r15
    10b0:	0f 93       	push	r16
    10b2:	1f 93       	push	r17
    10b4:	2f 93       	push	r18
    10b6:	3f 93       	push	r19
    10b8:	4f 93       	push	r20
    10ba:	5f 93       	push	r21
    10bc:	6f 93       	push	r22
    10be:	7f 93       	push	r23
    10c0:	8f 93       	push	r24
    10c2:	9f 93       	push	r25
    10c4:	af 93       	push	r26
    10c6:	bf 93       	push	r27
    10c8:	cf 93       	push	r28
    10ca:	df 93       	push	r29
    10cc:	ef 93       	push	r30
    10ce:	ff 93       	push	r31
		KER_SAVE_CURR_TASK_SP                             ;save current task SP   ( 14 clocks) 
    10d0:	ed e3       	ldi	r30, 0x3D	; 61
    10d2:	f1 e0       	ldi	r31, 0x01	; 1
    10d4:	20 91 34 01 	lds	r18, 0x0134
    10d8:	22 0f       	add	r18, r18
    10da:	e2 0f       	add	r30, r18
    10dc:	20 e0       	ldi	r18, 0x00	; 0
    10de:	f2 1f       	adc	r31, r18
    10e0:	2d b7       	in	r18, 0x3d	; 61
    10e2:	3e b7       	in	r19, 0x3e	; 62
    10e4:	20 83       	st	Z, r18
    10e6:	31 83       	std	Z+1, r19	; 0x01
		KER_COUNTER_RELOAD                                ;counter reload         (  4 clocks) 
    10e8:	20 91 33 01 	lds	r18, 0x0133
    10ec:	20 93 46 00 	sts	0x0046, r18
		KER_TICK_INCREMENT                                ;increment tick counter ( 26 clocks) 
    10f0:	20 91 2d 01 	lds	r18, 0x012D
    10f4:	23 95       	inc	r18
    10f6:	20 93 2d 01 	sts	0x012D, r18
    10fa:	30 e0       	ldi	r19, 0x00	; 0
    10fc:	20 91 2e 01 	lds	r18, 0x012E
    1100:	23 1f       	adc	r18, r19
    1102:	20 93 2e 01 	sts	0x012E, r18
    1106:	20 91 2f 01 	lds	r18, 0x012F
    110a:	23 1f       	adc	r18, r19
    110c:	20 93 2f 01 	sts	0x012F, r18
    1110:	20 91 30 01 	lds	r18, 0x0130
    1114:	23 1f       	adc	r18, r19
    1116:	20 93 30 01 	sts	0x0130, r18
    111a:	20 91 31 01 	lds	r18, 0x0131
    111e:	23 1f       	adc	r18, r19
    1120:	20 93 31 01 	sts	0x0131, r18
		LDI    R24               , SCH_MODE_HANDLER       ;set sch mode           (  1 clock ) 
    1124:	80 e0       	ldi	r24, 0x00	; 0
		KER_RUN_SCHEDULER                                 ;run scheduler          (106 clocks) 
    1126:	2f ef       	ldi	r18, 0xFF	; 255
    1128:	20 93 36 01 	sts	0x0136, r18
    112c:	20 e0       	ldi	r18, 0x00	; 0
    112e:	20 93 37 01 	sts	0x0137, r18
    1132:	58 2f       	mov	r21, r24

00001134 <_KER_SCH_LOOP9>:
    1134:	20 93 34 01 	sts	0x0134, r18
    1138:	85 2f       	mov	r24, r21
    113a:	e3 e7       	ldi	r30, 0x73	; 115
    113c:	f1 e0       	ldi	r31, 0x01	; 1
    113e:	20 91 34 01 	lds	r18, 0x0134
    1142:	22 0f       	add	r18, r18
    1144:	e2 0f       	add	r30, r18
    1146:	20 e0       	ldi	r18, 0x00	; 0
    1148:	f2 1f       	adc	r31, r18
    114a:	20 81       	ld	r18, Z
    114c:	31 81       	ldd	r19, Z+1	; 0x01
    114e:	42 2f       	mov	r20, r18
    1150:	43 2b       	or	r20, r19
    1152:	59 f0       	breq	.+22     	; 0x116a <_VAL_NULL10>
    1154:	81 30       	cpi	r24, 0x01	; 1
    1156:	99 f0       	breq	.+38     	; 0x117e <_VAL_NOT_NULL10>
    1158:	41 e0       	ldi	r20, 0x01	; 1
    115a:	24 1b       	sub	r18, r20
    115c:	40 e0       	ldi	r20, 0x00	; 0
    115e:	34 0b       	sbc	r19, r20
    1160:	20 83       	st	Z, r18
    1162:	31 83       	std	Z+1, r19	; 0x01
    1164:	42 2f       	mov	r20, r18
    1166:	43 2b       	or	r20, r19
    1168:	51 f4       	brne	.+20     	; 0x117e <_VAL_NOT_NULL10>

0000116a <_VAL_NULL10>:
    116a:	ef e5       	ldi	r30, 0x5F	; 95
    116c:	f1 e0       	ldi	r31, 0x01	; 1
    116e:	20 91 34 01 	lds	r18, 0x0134
    1172:	e2 0f       	add	r30, r18
    1174:	20 e0       	ldi	r18, 0x00	; 0
    1176:	f2 1f       	adc	r31, r18
    1178:	81 e0       	ldi	r24, 0x01	; 1
    117a:	80 83       	st	Z, r24
    117c:	08 c0       	rjmp	.+16     	; 0x118e <_EXIT_SLP_TIME10>

0000117e <_VAL_NOT_NULL10>:
    117e:	ef e5       	ldi	r30, 0x5F	; 95
    1180:	f1 e0       	ldi	r31, 0x01	; 1
    1182:	20 91 34 01 	lds	r18, 0x0134
    1186:	e2 0f       	add	r30, r18
    1188:	20 e0       	ldi	r18, 0x00	; 0
    118a:	f2 1f       	adc	r31, r18
    118c:	80 81       	ld	r24, Z

0000118e <_EXIT_SLP_TIME10>:
    118e:	81 30       	cpi	r24, 0x01	; 1
    1190:	19 f0       	breq	.+6      	; 0x1198 <_KER_CALC_PRIO9>
    1192:	84 30       	cpi	r24, 0x04	; 4
    1194:	09 f0       	breq	.+2      	; 0x1198 <_KER_CALC_PRIO9>
    1196:	12 c0       	rjmp	.+36     	; 0x11bc <_KER_SCH_NEXT9>

00001198 <_KER_CALC_PRIO9>:
    1198:	e9 e6       	ldi	r30, 0x69	; 105
    119a:	f1 e0       	ldi	r31, 0x01	; 1
    119c:	20 e0       	ldi	r18, 0x00	; 0
    119e:	80 91 34 01 	lds	r24, 0x0134
    11a2:	e8 0f       	add	r30, r24
    11a4:	f2 1f       	adc	r31, r18
    11a6:	80 81       	ld	r24, Z
    11a8:	20 91 36 01 	lds	r18, 0x0136
    11ac:	82 17       	cp	r24, r18
    11ae:	30 f4       	brcc	.+12     	; 0x11bc <_KER_SCH_NEXT9>
    11b0:	80 93 36 01 	sts	0x0136, r24
    11b4:	20 91 34 01 	lds	r18, 0x0134
    11b8:	20 93 37 01 	sts	0x0137, r18

000011bc <_KER_SCH_NEXT9>:
    11bc:	20 91 34 01 	lds	r18, 0x0134
    11c0:	23 95       	inc	r18
    11c2:	30 91 35 01 	lds	r19, 0x0135
    11c6:	23 17       	cp	r18, r19
    11c8:	08 f4       	brcc	.+2      	; 0x11cc <_KER_SCH_EXIT9>
    11ca:	b4 cf       	rjmp	.-152    	; 0x1134 <_KER_SCH_LOOP9>

000011cc <_KER_SCH_EXIT9>:
    11cc:	20 91 37 01 	lds	r18, 0x0137
    11d0:	20 93 34 01 	sts	0x0134, r18
		KER_CPU_USAGE                                     ;calc cpu usage         ( 26 clocks) 
    11d4:	20 91 34 01 	lds	r18, 0x0134
    11d8:	22 23       	and	r18, r18
    11da:	29 f0       	breq	.+10     	; 0x11e6 <_KER_USG_TICK15>
    11dc:	20 91 39 01 	lds	r18, 0x0139
    11e0:	23 95       	inc	r18
    11e2:	20 93 39 01 	sts	0x0139, r18

000011e6 <_KER_USG_TICK15>:
    11e6:	20 91 38 01 	lds	r18, 0x0138
    11ea:	23 95       	inc	r18
    11ec:	24 36       	cpi	r18, 0x64	; 100
    11ee:	40 f0       	brcs	.+16     	; 0x1200 <_KER_USG_UTC_SV15>
    11f0:	20 e0       	ldi	r18, 0x00	; 0
    11f2:	30 91 39 01 	lds	r19, 0x0139
    11f6:	30 93 3a 01 	sts	0x013A, r19
    11fa:	30 e0       	ldi	r19, 0x00	; 0
    11fc:	30 93 39 01 	sts	0x0139, r19

00001200 <_KER_USG_UTC_SV15>:
    1200:	20 93 38 01 	sts	0x0138, r18
		KER_LOAD_TASK_ID_AND_SP                           ;load next task id, SP  ( 14 clocks) 
    1204:	ed e3       	ldi	r30, 0x3D	; 61
    1206:	f1 e0       	ldi	r31, 0x01	; 1
    1208:	20 91 34 01 	lds	r18, 0x0134
    120c:	22 0f       	add	r18, r18
    120e:	e2 0f       	add	r30, r18
    1210:	20 e0       	ldi	r18, 0x00	; 0
    1212:	f2 1f       	adc	r31, r18
    1214:	20 81       	ld	r18, Z
    1216:	31 81       	ldd	r19, Z+1	; 0x01
    1218:	2d bf       	out	0x3d, r18	; 61
    121a:	3e bf       	out	0x3e, r19	; 62
		KER_CONTEXT_RESTORE_HANDLER                       ;restore context        ( 67 clocks) 
    121c:	ff 91       	pop	r31
    121e:	ef 91       	pop	r30
    1220:	df 91       	pop	r29
    1222:	cf 91       	pop	r28
    1224:	bf 91       	pop	r27
    1226:	af 91       	pop	r26
    1228:	9f 91       	pop	r25
    122a:	8f 91       	pop	r24
    122c:	7f 91       	pop	r23
    122e:	6f 91       	pop	r22
    1230:	5f 91       	pop	r21
    1232:	4f 91       	pop	r20
    1234:	3f 91       	pop	r19
    1236:	2f 91       	pop	r18
    1238:	1f 91       	pop	r17
    123a:	0f 91       	pop	r16
    123c:	ff 90       	pop	r15
    123e:	ef 90       	pop	r14
    1240:	df 90       	pop	r13
    1242:	cf 90       	pop	r12
    1244:	bf 90       	pop	r11
    1246:	af 90       	pop	r10
    1248:	9f 90       	pop	r9
    124a:	8f 90       	pop	r8
    124c:	7f 90       	pop	r7
    124e:	6f 90       	pop	r6
    1250:	5f 90       	pop	r5
    1252:	4f 90       	pop	r4
    1254:	3f 90       	pop	r3
    1256:	2f 90       	pop	r2
    1258:	1f 90       	pop	r1
    125a:	0f 90       	pop	r0
    125c:	0f be       	out	0x3f, r0	; 63
    125e:	0f 90       	pop	r0
	    KER_DEBUG_PIN_CLEAR                               ;debug pin clear        (  2 clocks) 
		RETI                                              ;return from interrupt  (  4 clocks) 
    1260:	18 95       	reti

00001262 <__vector_9>:
.global  __vector_9                                                                            
    __vector_9:                                           ;total 40.00uS @8MHz    (344 clocks) 
	    KER_DEBUG_PIN_SET                                 ;debug pin set          (  2 clocks) 
		KER_EXIT_SLEEP                                    ;exit sleep if enabled  (  5 clocks) 
    1262:	20 91 53 00 	lds	r18, 0x0053
    1266:	2e 7f       	andi	r18, 0xFE	; 254
    1268:	20 93 53 00 	sts	0x0053, r18
        KER_CONTEXT_SAVE_HANDLER                          ;save context           ( 68 clocks) 
    126c:	0f 92       	push	r0
    126e:	0f b6       	in	r0, 0x3f	; 63
    1270:	0f 92       	push	r0
    1272:	1f 92       	push	r1
    1274:	11 24       	eor	r1, r1
    1276:	2f 92       	push	r2
    1278:	3f 92       	push	r3
    127a:	4f 92       	push	r4
    127c:	5f 92       	push	r5
    127e:	6f 92       	push	r6
    1280:	7f 92       	push	r7
    1282:	8f 92       	push	r8
    1284:	9f 92       	push	r9
    1286:	af 92       	push	r10
    1288:	bf 92       	push	r11
    128a:	cf 92       	push	r12
    128c:	df 92       	push	r13
    128e:	ef 92       	push	r14
    1290:	ff 92       	push	r15
    1292:	0f 93       	push	r16
    1294:	1f 93       	push	r17
    1296:	2f 93       	push	r18
    1298:	3f 93       	push	r19
    129a:	4f 93       	push	r20
    129c:	5f 93       	push	r21
    129e:	6f 93       	push	r22
    12a0:	7f 93       	push	r23
    12a2:	8f 93       	push	r24
    12a4:	9f 93       	push	r25
    12a6:	af 93       	push	r26
    12a8:	bf 93       	push	r27
    12aa:	cf 93       	push	r28
    12ac:	df 93       	push	r29
    12ae:	ef 93       	push	r30
    12b0:	ff 93       	push	r31
		KER_SAVE_CURR_TASK_SP                             ;save current task SP   ( 14 clocks) 
    12b2:	ed e3       	ldi	r30, 0x3D	; 61
    12b4:	f1 e0       	ldi	r31, 0x01	; 1
    12b6:	20 91 34 01 	lds	r18, 0x0134
    12ba:	22 0f       	add	r18, r18
    12bc:	e2 0f       	add	r30, r18
    12be:	20 e0       	ldi	r18, 0x00	; 0
    12c0:	f2 1f       	adc	r31, r18
    12c2:	2d b7       	in	r18, 0x3d	; 61
    12c4:	3e b7       	in	r19, 0x3e	; 62
    12c6:	20 83       	st	Z, r18
    12c8:	31 83       	std	Z+1, r19	; 0x01
		KER_COUNTER_RELOAD                                ;counter reload         (  4 clocks) 
    12ca:	20 91 33 01 	lds	r18, 0x0133
    12ce:	20 93 46 00 	sts	0x0046, r18
		KER_TICK_INCREMENT                                ;increment tick counter ( 26 clocks) 
    12d2:	20 91 2d 01 	lds	r18, 0x012D
    12d6:	23 95       	inc	r18
    12d8:	20 93 2d 01 	sts	0x012D, r18
    12dc:	30 e0       	ldi	r19, 0x00	; 0
    12de:	20 91 2e 01 	lds	r18, 0x012E
    12e2:	23 1f       	adc	r18, r19
    12e4:	20 93 2e 01 	sts	0x012E, r18
    12e8:	20 91 2f 01 	lds	r18, 0x012F
    12ec:	23 1f       	adc	r18, r19
    12ee:	20 93 2f 01 	sts	0x012F, r18
    12f2:	20 91 30 01 	lds	r18, 0x0130
    12f6:	23 1f       	adc	r18, r19
    12f8:	20 93 30 01 	sts	0x0130, r18
    12fc:	20 91 31 01 	lds	r18, 0x0131
    1300:	23 1f       	adc	r18, r19
    1302:	20 93 31 01 	sts	0x0131, r18
		LDI    R24               , SCH_MODE_HANDLER       ;set sch mode           (  1 clock ) 
    1306:	80 e0       	ldi	r24, 0x00	; 0
		KER_RUN_SCHEDULER                                 ;run scheduler          (106 clocks) 
    1308:	2f ef       	ldi	r18, 0xFF	; 255
    130a:	20 93 36 01 	sts	0x0136, r18
    130e:	20 e0       	ldi	r18, 0x00	; 0
    1310:	20 93 37 01 	sts	0x0137, r18
    1314:	58 2f       	mov	r21, r24

00001316 <_KER_SCH_LOOP31>:
    1316:	20 93 34 01 	sts	0x0134, r18
    131a:	85 2f       	mov	r24, r21
    131c:	e3 e7       	ldi	r30, 0x73	; 115
    131e:	f1 e0       	ldi	r31, 0x01	; 1
    1320:	20 91 34 01 	lds	r18, 0x0134
    1324:	22 0f       	add	r18, r18
    1326:	e2 0f       	add	r30, r18
    1328:	20 e0       	ldi	r18, 0x00	; 0
    132a:	f2 1f       	adc	r31, r18
    132c:	20 81       	ld	r18, Z
    132e:	31 81       	ldd	r19, Z+1	; 0x01
    1330:	42 2f       	mov	r20, r18
    1332:	43 2b       	or	r20, r19
    1334:	59 f0       	breq	.+22     	; 0x134c <_VAL_NULL32>
    1336:	81 30       	cpi	r24, 0x01	; 1
    1338:	99 f0       	breq	.+38     	; 0x1360 <_VAL_NOT_NULL32>
    133a:	41 e0       	ldi	r20, 0x01	; 1
    133c:	24 1b       	sub	r18, r20
    133e:	40 e0       	ldi	r20, 0x00	; 0
    1340:	34 0b       	sbc	r19, r20
    1342:	20 83       	st	Z, r18
    1344:	31 83       	std	Z+1, r19	; 0x01
    1346:	42 2f       	mov	r20, r18
    1348:	43 2b       	or	r20, r19
    134a:	51 f4       	brne	.+20     	; 0x1360 <_VAL_NOT_NULL32>

0000134c <_VAL_NULL32>:
    134c:	ef e5       	ldi	r30, 0x5F	; 95
    134e:	f1 e0       	ldi	r31, 0x01	; 1
    1350:	20 91 34 01 	lds	r18, 0x0134
    1354:	e2 0f       	add	r30, r18
    1356:	20 e0       	ldi	r18, 0x00	; 0
    1358:	f2 1f       	adc	r31, r18
    135a:	81 e0       	ldi	r24, 0x01	; 1
    135c:	80 83       	st	Z, r24
    135e:	08 c0       	rjmp	.+16     	; 0x1370 <_EXIT_SLP_TIME32>

00001360 <_VAL_NOT_NULL32>:
    1360:	ef e5       	ldi	r30, 0x5F	; 95
    1362:	f1 e0       	ldi	r31, 0x01	; 1
    1364:	20 91 34 01 	lds	r18, 0x0134
    1368:	e2 0f       	add	r30, r18
    136a:	20 e0       	ldi	r18, 0x00	; 0
    136c:	f2 1f       	adc	r31, r18
    136e:	80 81       	ld	r24, Z

00001370 <_EXIT_SLP_TIME32>:
    1370:	81 30       	cpi	r24, 0x01	; 1
    1372:	19 f0       	breq	.+6      	; 0x137a <_KER_CALC_PRIO31>
    1374:	84 30       	cpi	r24, 0x04	; 4
    1376:	09 f0       	breq	.+2      	; 0x137a <_KER_CALC_PRIO31>
    1378:	12 c0       	rjmp	.+36     	; 0x139e <_KER_SCH_NEXT31>

0000137a <_KER_CALC_PRIO31>:
    137a:	e9 e6       	ldi	r30, 0x69	; 105
    137c:	f1 e0       	ldi	r31, 0x01	; 1
    137e:	20 e0       	ldi	r18, 0x00	; 0
    1380:	80 91 34 01 	lds	r24, 0x0134
    1384:	e8 0f       	add	r30, r24
    1386:	f2 1f       	adc	r31, r18
    1388:	80 81       	ld	r24, Z
    138a:	20 91 36 01 	lds	r18, 0x0136
    138e:	82 17       	cp	r24, r18
    1390:	30 f4       	brcc	.+12     	; 0x139e <_KER_SCH_NEXT31>
    1392:	80 93 36 01 	sts	0x0136, r24
    1396:	20 91 34 01 	lds	r18, 0x0134
    139a:	20 93 37 01 	sts	0x0137, r18

0000139e <_KER_SCH_NEXT31>:
    139e:	20 91 34 01 	lds	r18, 0x0134
    13a2:	23 95       	inc	r18
    13a4:	30 91 35 01 	lds	r19, 0x0135
    13a8:	23 17       	cp	r18, r19
    13aa:	08 f4       	brcc	.+2      	; 0x13ae <_KER_SCH_EXIT31>
    13ac:	b4 cf       	rjmp	.-152    	; 0x1316 <_KER_SCH_LOOP31>

000013ae <_KER_SCH_EXIT31>:
    13ae:	20 91 37 01 	lds	r18, 0x0137
    13b2:	20 93 34 01 	sts	0x0134, r18
		KER_CPU_USAGE                                     ;calc cpu usage         ( 26 clocks) 
    13b6:	20 91 34 01 	lds	r18, 0x0134
    13ba:	22 23       	and	r18, r18
    13bc:	29 f0       	breq	.+10     	; 0x13c8 <_KER_USG_TICK37>
    13be:	20 91 39 01 	lds	r18, 0x0139
    13c2:	23 95       	inc	r18
    13c4:	20 93 39 01 	sts	0x0139, r18

000013c8 <_KER_USG_TICK37>:
    13c8:	20 91 38 01 	lds	r18, 0x0138
    13cc:	23 95       	inc	r18
    13ce:	24 36       	cpi	r18, 0x64	; 100
    13d0:	40 f0       	brcs	.+16     	; 0x13e2 <_KER_USG_UTC_SV37>
    13d2:	20 e0       	ldi	r18, 0x00	; 0
    13d4:	30 91 39 01 	lds	r19, 0x0139
    13d8:	30 93 3a 01 	sts	0x013A, r19
    13dc:	30 e0       	ldi	r19, 0x00	; 0
    13de:	30 93 39 01 	sts	0x0139, r19

000013e2 <_KER_USG_UTC_SV37>:
    13e2:	20 93 38 01 	sts	0x0138, r18
		KER_LOAD_TASK_ID_AND_SP                           ;load next task id, SP  ( 14 clocks) 
    13e6:	ed e3       	ldi	r30, 0x3D	; 61
    13e8:	f1 e0       	ldi	r31, 0x01	; 1
    13ea:	20 91 34 01 	lds	r18, 0x0134
    13ee:	22 0f       	add	r18, r18
    13f0:	e2 0f       	add	r30, r18
    13f2:	20 e0       	ldi	r18, 0x00	; 0
    13f4:	f2 1f       	adc	r31, r18
    13f6:	20 81       	ld	r18, Z
    13f8:	31 81       	ldd	r19, Z+1	; 0x01
    13fa:	2d bf       	out	0x3d, r18	; 61
    13fc:	3e bf       	out	0x3e, r19	; 62
		KER_CONTEXT_RESTORE_HANDLER                       ;restore context        ( 67 clocks) 
    13fe:	ff 91       	pop	r31
    1400:	ef 91       	pop	r30
    1402:	df 91       	pop	r29
    1404:	cf 91       	pop	r28
    1406:	bf 91       	pop	r27
    1408:	af 91       	pop	r26
    140a:	9f 91       	pop	r25
    140c:	8f 91       	pop	r24
    140e:	7f 91       	pop	r23
    1410:	6f 91       	pop	r22
    1412:	5f 91       	pop	r21
    1414:	4f 91       	pop	r20
    1416:	3f 91       	pop	r19
    1418:	2f 91       	pop	r18
    141a:	1f 91       	pop	r17
    141c:	0f 91       	pop	r16
    141e:	ff 90       	pop	r15
    1420:	ef 90       	pop	r14
    1422:	df 90       	pop	r13
    1424:	cf 90       	pop	r12
    1426:	bf 90       	pop	r11
    1428:	af 90       	pop	r10
    142a:	9f 90       	pop	r9
    142c:	8f 90       	pop	r8
    142e:	7f 90       	pop	r7
    1430:	6f 90       	pop	r6
    1432:	5f 90       	pop	r5
    1434:	4f 90       	pop	r4
    1436:	3f 90       	pop	r3
    1438:	2f 90       	pop	r2
    143a:	1f 90       	pop	r1
    143c:	0f 90       	pop	r0
    143e:	0f be       	out	0x3f, r0	; 63
    1440:	0f 90       	pop	r0
	    KER_DEBUG_PIN_CLEAR                               ;debug pin clear        (  2 clocks) 
		RETI                                              ;return from interrupt  (  4 clocks) 
    1442:	18 95       	reti

00001444 <Kernel_SysTick_Reg_Init>:
;used registers          : R18, R19, R22, R24, R26(XL), R27(XH), R30(ZL), R31(ZH)              
;arg registers           : R24(Prescaler), R22(ReloadVal)                                      
;return registers        : None                                                                
;unsafe access registers : R18, R19, R22, R24, R26(XL), R27(XH), R30(ZL), R31(ZH)              
Kernel_SysTick_Reg_Init:                                  ;total 11.50uS @8MHz    ( 92 clocks) 
        CLI                                               ;disable global int     (  1 clock ) 
    1444:	f8 94       	cli
		KER_DEBUG_PIN_INIT                                ;debug pin init         (  4 clocks) 
        KER_PUSH_MSP_ZP                                   ;push MSP and ZP        ( 18 clocks) 
    1446:	a0 91 51 01 	lds	r26, 0x0151
    144a:	b0 91 52 01 	lds	r27, 0x0152
    144e:	2d b7       	in	r18, 0x3d	; 61
    1450:	3e b7       	in	r19, 0x3e	; 62
    1452:	2d 93       	st	X+, r18
    1454:	3d 93       	st	X+, r19
    1456:	ed 93       	st	X+, r30
    1458:	fd 93       	st	X+, r31
    145a:	a0 93 51 01 	sts	0x0151, r26
    145e:	b0 93 52 01 	sts	0x0152, r27
		;clear reg                                                                             
		LDI   R18                , 0x00                   ;set 0x00 to R18        (  1 clock ) 
    1462:	20 e0       	ldi	r18, 0x00	; 0
		;clear tick counter                                                                    
		STS   KerBase+OFB_TICK0  , R18                    ;clear  KerBase[0]      (  2 clocks) 
    1464:	20 93 2d 01 	sts	0x012D, r18
		STS   KerBase+OFB_TICK1  , R18                    ;clear  KerBase[1]      (  2 clocks) 
    1468:	20 93 2e 01 	sts	0x012E, r18
		STS   KerBase+OFB_TICK2  , R18                    ;clear  KerBase[2]      (  2 clocks) 
    146c:	20 93 2f 01 	sts	0x012F, r18
		STS   KerBase+OFB_TICK3  , R18                    ;clear  KerBase[3]      (  2 clocks) 
    1470:	20 93 30 01 	sts	0x0130, r18
		STS   KerBase+OFB_TICK4  , R18                    ;clear  KerBase[4]      (  2 clocks) 
    1474:	20 93 31 01 	sts	0x0131, r18
		;clear system registers                                                                
		STS   KerBase+OFB_PRS    , R18                    ;clear  KerBase[5]      (  2 clocks) 
    1478:	20 93 32 01 	sts	0x0132, r18
		STS   KerBase+OFB_RLD    , R18                    ;clear  KerBase[6]      (  2 clocks) 
    147c:	20 93 33 01 	sts	0x0133, r18
		STS   KerBase+OFB_TID    , R18                    ;clear  KerBase[7]      (  2 clocks) 
    1480:	20 93 34 01 	sts	0x0134, r18
		STS   KerBase+OFB_NTSK   , R18                    ;clear  KerBase[8]      (  2 clocks) 
    1484:	20 93 35 01 	sts	0x0135, r18
		STS   KerBase+OFB_LPR    , R18                    ;clear  KerBase[9]      (  2 clocks) 
    1488:	20 93 36 01 	sts	0x0136, r18
        STS   KerBase+OFB_PTID   , R18                    ;clear  KerBase[10]     (  2 clocks) 
    148c:	20 93 37 01 	sts	0x0137, r18
		STS   KerBase+OFB_UTC    , R18                    ;clear  KerBase[11]     (  2 clocks) 
    1490:	20 93 38 01 	sts	0x0138, r18
		STS   KerBase+OFB_UATC   , R18                    ;clear  KerBase[12]     (  2 clocks) 
    1494:	20 93 39 01 	sts	0x0139, r18
		STS   KerBase+OFB_USAGE  , R18                    ;clear  KerBase[13]     (  2 clocks) 
    1498:	20 93 3a 01 	sts	0x013A, r18
		STS   SRWDTCSR           , R18                    ;set val                (  2 clocks) 
		LDI   R18                , 0x00                   ;clear WDE              (  1 clock ) 
		STS   SRWDTCSR           , R18                    ;set val                (  2 clocks) 
		#endif                                                                                 
		#ifdef KER_TOSC_AS_TICK_SRC                                                            
        LDI   R18                , 0x00                   ;clear interrupt enbits (  1 clock ) 
    149c:	20 e0       	ldi	r18, 0x00	; 0
		STS   SRTIMSK2           , R18                    ;set val to TIMSK2      (  2 clocks) 
    149e:	20 93 70 00 	sts	0x0070, r18
		LDI   R18                , 0x00                   ;clear reg              (  1 clock ) 
    14a2:	20 e0       	ldi	r18, 0x00	; 0
		STS   SRTCCR2B           , R18                    ;set val to TCCR2B      (  2 clocks) 
    14a4:	20 93 b1 00 	sts	0x00B1, r18
		LDI   R18                , 0x00                   ;clear AS2 bit          (  1 clock ) 
    14a8:	20 e0       	ldi	r18, 0x00	; 0
		STS   SRASSR             , R18                    ;set val to ASSR        (  2 clocks) 
    14aa:	20 93 b6 00 	sts	0x00B6, r18
		#endif                                                                                 
		;save values for future use                                                            
		STS   KerBase+OFB_PRS    , R24                    ;KerBase[5] prescaler   (  2 clocks) 
    14ae:	80 93 32 01 	sts	0x0132, r24
		STS   KerBase+OFB_RLD    , R22                    ;KerBase[6] reload val  (  2 clocks) 
    14b2:	60 93 33 01 	sts	0x0133, r22
        KER_POP_MSP_ZP                                    ;pop MSP and ZP         ( 18 clocks) 
    14b6:	a0 91 51 01 	lds	r26, 0x0151
    14ba:	b0 91 52 01 	lds	r27, 0x0152
    14be:	fe 91       	ld	r31, -X
    14c0:	ee 91       	ld	r30, -X
    14c2:	3e 91       	ld	r19, -X
    14c4:	2e 91       	ld	r18, -X
    14c6:	2d bf       	out	0x3d, r18	; 61
    14c8:	3e bf       	out	0x3e, r19	; 62
    14ca:	a0 93 51 01 	sts	0x0151, r26
    14ce:	b0 93 52 01 	sts	0x0152, r27
		RET                                               ;return from subroutine (  4 clocks) 
    14d2:	08 95       	ret

000014d4 <Kernel_Task_Create>:
;used registers          : R18, R19, R20, R22, R24, R25, R26(XL), R27(XH), R30(ZL), R31(ZH)    
;arg registers           : R25:R24(FuncPtr), R22(TaskPriority)                                 
;return registers        : None                                                                
;unsafe access registers : R18, R19, R20, R22, R24, R25, R26(XL), R27(XH), R30(ZL), R31(ZH)    
Kernel_Task_Create:                                       ;total 21.50uS @8MHz    (172 clocks) 
        KER_PUSH_MSP_ZP                                   ;push MSP and ZP        ( 18 clocks) 
    14d4:	a0 91 51 01 	lds	r26, 0x0151
    14d8:	b0 91 52 01 	lds	r27, 0x0152
    14dc:	2d b7       	in	r18, 0x3d	; 61
    14de:	3e b7       	in	r19, 0x3e	; 62
    14e0:	2d 93       	st	X+, r18
    14e2:	3d 93       	st	X+, r19
    14e4:	ed 93       	st	X+, r30
    14e6:	fd 93       	st	X+, r31
    14e8:	a0 93 51 01 	sts	0x0151, r26
    14ec:	b0 93 52 01 	sts	0x0152, r27
		;set priority to KerSchPr+task_id                                                      
		LDI   ZL                 , lo8(KerSchPr)          ;load low byte          (  1 clock ) 
    14f0:	e9 e6       	ldi	r30, 0x69	; 105
		LDI   ZH                 , hi8(KerSchPr)          ;load high byte         (  1 clock ) 
    14f2:	f1 e0       	ldi	r31, 0x01	; 1
		KER_CALC_ADDR_OFF_BYTES                           ;calc offset            (  5 clocks) 
    14f4:	20 91 34 01 	lds	r18, 0x0134
    14f8:	e2 0f       	add	r30, r18
    14fa:	20 e0       	ldi	r18, 0x00	; 0
    14fc:	f2 1f       	adc	r31, r18
		ST    Z                  , R22                    ;save priority          (  2 clocks) 
    14fe:	60 83       	st	Z, r22
		;set task status to KerSchSts+task_id                                                  
		LDI   ZL                 , lo8(KerSchSts)         ;load low byte          (  1 clock ) 
    1500:	ef e5       	ldi	r30, 0x5F	; 95
		LDI   ZH                 , hi8(KerSchSts)         ;load high byte         (  1 clock ) 
    1502:	f1 e0       	ldi	r31, 0x01	; 1
		KER_CALC_ADDR_OFF_BYTES                           ;calc offset            (  5 clocks) 
    1504:	20 91 34 01 	lds	r18, 0x0134
    1508:	e2 0f       	add	r30, r18
    150a:	20 e0       	ldi	r18, 0x00	; 0
    150c:	f2 1f       	adc	r31, r18
		LDI   R18                , TASK_READY             ;set status as ready    (  1 clock ) 
    150e:	21 e0       	ldi	r18, 0x01	; 1
		ST    Z                  , R18                    ;save status            (  2 clocks) 
    1510:	20 83       	st	Z, r18
		;stack pointer for current task (KerStack + KER_STK_SZ*(task_id+1) - 1) ->stack top    
		LDS   R18                , KerBase+OFB_TID        ;load task_id           (  2 clocks) 
    1512:	20 91 34 01 	lds	r18, 0x0134
		INC   R18                                         ;increment task_id      (  1 clock ) 
    1516:	23 95       	inc	r18
		LDI   R19                , KER_STK_SZ             ;load stack size        (  1 clock ) 
    1518:	30 e8       	ldi	r19, 0x80	; 128
		MUL   R18                , R19                    ;multiply to get offset (  2 clocks) 
    151a:	23 9f       	mul	r18, r19
		MOV   ZL                 , R0                     ;load multiplied low    (  1 clocks) 
    151c:	e0 2d       	mov	r30, r0
		MOV   ZH                 , R1                     ;load multiplied high   (  1 clocks) 
    151e:	f1 2d       	mov	r31, r1
		SBIW  ZL                 , 0x01                   ;dec multiplied val-1   (  2 clocks) 
    1520:	31 97       	sbiw	r30, 0x01	; 1
		CLR   R1                                          ;gcc expects cleared    (  1 clock ) 
    1522:	11 24       	eor	r1, r1
		LDI   R18                , lo8(KerStack)          ;load base addr low     (  1 clock ) 
    1524:	27 e8       	ldi	r18, 0x87	; 135
		LDI   R19                , hi8(KerStack)          ;load base addr high    (  1 clock ) 
    1526:	31 e0       	ldi	r19, 0x01	; 1
		ADD   ZL                 , R18                    ;add low bytes          (  1 clock ) 
    1528:	e2 0f       	add	r30, r18
		ADC   ZH                 , R19                    ;add high bytes+carry   (  1 clock ) 
    152a:	f3 1f       	adc	r31, r19
		OUT   IOSPL              , ZL                     ;load SPL               (  1 clock ) 
    152c:	ed bf       	out	0x3d, r30	; 61
        OUT   IOSPH              , ZH                     ;load SPH               (  1 clock ) 
    152e:	fe bf       	out	0x3e, r31	; 62
		;function argument directly returns word address                                       
	    PUSH  R24                                         ;push word addr low     (  2 clocks) 
    1530:	8f 93       	push	r24
		PUSH  R25                                         ;push word addr high    (  2 clocks) 
    1532:	9f 93       	push	r25
		;push context to stack of this task                                                    
		KER_CONTEXT_SAVE_HANDLER                          ;save context           ( 68 clocks) 
    1534:	0f 92       	push	r0
    1536:	0f b6       	in	r0, 0x3f	; 63
    1538:	0f 92       	push	r0
    153a:	1f 92       	push	r1
    153c:	11 24       	eor	r1, r1
    153e:	2f 92       	push	r2
    1540:	3f 92       	push	r3
    1542:	4f 92       	push	r4
    1544:	5f 92       	push	r5
    1546:	6f 92       	push	r6
    1548:	7f 92       	push	r7
    154a:	8f 92       	push	r8
    154c:	9f 92       	push	r9
    154e:	af 92       	push	r10
    1550:	bf 92       	push	r11
    1552:	cf 92       	push	r12
    1554:	df 92       	push	r13
    1556:	ef 92       	push	r14
    1558:	ff 92       	push	r15
    155a:	0f 93       	push	r16
    155c:	1f 93       	push	r17
    155e:	2f 93       	push	r18
    1560:	3f 93       	push	r19
    1562:	4f 93       	push	r20
    1564:	5f 93       	push	r21
    1566:	6f 93       	push	r22
    1568:	7f 93       	push	r23
    156a:	8f 93       	push	r24
    156c:	9f 93       	push	r25
    156e:	af 93       	push	r26
    1570:	bf 93       	push	r27
    1572:	cf 93       	push	r28
    1574:	df 93       	push	r29
    1576:	ef 93       	push	r30
    1578:	ff 93       	push	r31
		;read stack pointer of current task (necessary when restore)                           
		IN    R18                , IOSPL                  ;read SPL               (  1 clock ) 
    157a:	2d b7       	in	r18, 0x3d	; 61
        IN    R19                , IOSPH                  ;read SPH               (  1 clock ) 
    157c:	3e b7       	in	r19, 0x3e	; 62
		;calculate the address where current task's SP will be stored and store SP             
		LDS   R20                , KerBase+OFB_TID        ;load task_id           (  2 clocks) 
    157e:	40 91 34 01 	lds	r20, 0x0134
		LSL   R20                                         ;left shift to multiply (  1 clock ) 
    1582:	44 0f       	add	r20, r20
		LDI   ZL                 , lo8(KerPSP)            ;fetch base pos low     (  1 clock ) 
    1584:	ed e3       	ldi	r30, 0x3D	; 61
		LDI   ZH                 , hi8(KerPSP)            ;fetch base pos high    (  1 clock ) 
    1586:	f1 e0       	ldi	r31, 0x01	; 1
		ADD   ZL                 , R20                    ;add offset to array    (  1 clock ) 
    1588:	e4 0f       	add	r30, r20
		LDI   R20                , 0x00                   ;clear reg              (  1 clock ) 
    158a:	40 e0       	ldi	r20, 0x00	; 0
		ADC   ZH                 , R20                    ;add carry if any       (  1 clock ) 
    158c:	f4 1f       	adc	r31, r20
		ST    Z+                 , R18                    ;SPL at KerPSp+offset   (  2 clocks) 
    158e:	21 93       	st	Z+, r18
		ST    Z                  , R19                    ;SPH at KerPSp+offset   (  2 clocks) 
    1590:	30 83       	st	Z, r19
		;increment task_id                                                                     
		LDS   R18                , KerBase+OFB_TID        ;load task_id           (  2 clocks) 
    1592:	20 91 34 01 	lds	r18, 0x0134
		INC   R18                                         ;increment task_id      (  1 clock ) 
    1596:	23 95       	inc	r18
		STS   KerBase+OFB_TID    , R18                    ;store task_id          (  2 clocks) 
    1598:	20 93 34 01 	sts	0x0134, r18
		;increment ntask                                                                       
		LDS   R18                , KerBase+OFB_NTSK       ;load ntask             (  2 clocks) 
    159c:	20 91 35 01 	lds	r18, 0x0135
		INC   R18                                         ;increment ntask        (  1 clock ) 
    15a0:	23 95       	inc	r18
		STS   KerBase+OFB_NTSK   , R18                    ;store ntask            (  2 clocks) 
    15a2:	20 93 35 01 	sts	0x0135, r18
		KER_POP_MSP_ZP                                    ;pop MSP and ZP         ( 18 clocks) 
    15a6:	a0 91 51 01 	lds	r26, 0x0151
    15aa:	b0 91 52 01 	lds	r27, 0x0152
    15ae:	fe 91       	ld	r31, -X
    15b0:	ee 91       	ld	r30, -X
    15b2:	3e 91       	ld	r19, -X
    15b4:	2e 91       	ld	r18, -X
    15b6:	2d bf       	out	0x3d, r18	; 61
    15b8:	3e bf       	out	0x3e, r19	; 62
    15ba:	a0 93 51 01 	sts	0x0151, r26
    15be:	b0 93 52 01 	sts	0x0152, r27
		RET                                               ;return from subroutine (  4 clocks) 
    15c2:	08 95       	ret

000015c4 <Kernel_Start_Tasks>:
;used registers          : R0~R31                                                              
;arg registers           : None                                                                
;return registers        : None                                                                
;unsafe access registers : R18, R19, R20, R24, R25, R30(ZL), R31(ZH)                           
Kernel_Start_Tasks:                                       ;total 25.63uS @8MHz    (205 clocks) 
		LDI    R24               , SCH_MODE_THREAD        ;set sch mode           (  1 clock ) 
    15c4:	81 e0       	ldi	r24, 0x01	; 1
		KER_RUN_SCHEDULER                                 ;run scheduler          (106 clocks) 
    15c6:	2f ef       	ldi	r18, 0xFF	; 255
    15c8:	20 93 36 01 	sts	0x0136, r18
    15cc:	20 e0       	ldi	r18, 0x00	; 0
    15ce:	20 93 37 01 	sts	0x0137, r18
    15d2:	58 2f       	mov	r21, r24

000015d4 <_KER_SCH_LOOP54>:
    15d4:	20 93 34 01 	sts	0x0134, r18
    15d8:	85 2f       	mov	r24, r21
    15da:	e3 e7       	ldi	r30, 0x73	; 115
    15dc:	f1 e0       	ldi	r31, 0x01	; 1
    15de:	20 91 34 01 	lds	r18, 0x0134
    15e2:	22 0f       	add	r18, r18
    15e4:	e2 0f       	add	r30, r18
    15e6:	20 e0       	ldi	r18, 0x00	; 0
    15e8:	f2 1f       	adc	r31, r18
    15ea:	20 81       	ld	r18, Z
    15ec:	31 81       	ldd	r19, Z+1	; 0x01
    15ee:	42 2f       	mov	r20, r18
    15f0:	43 2b       	or	r20, r19
    15f2:	59 f0       	breq	.+22     	; 0x160a <_VAL_NULL55>
    15f4:	81 30       	cpi	r24, 0x01	; 1
    15f6:	99 f0       	breq	.+38     	; 0x161e <_VAL_NOT_NULL55>
    15f8:	41 e0       	ldi	r20, 0x01	; 1
    15fa:	24 1b       	sub	r18, r20
    15fc:	40 e0       	ldi	r20, 0x00	; 0
    15fe:	34 0b       	sbc	r19, r20
    1600:	20 83       	st	Z, r18
    1602:	31 83       	std	Z+1, r19	; 0x01
    1604:	42 2f       	mov	r20, r18
    1606:	43 2b       	or	r20, r19
    1608:	51 f4       	brne	.+20     	; 0x161e <_VAL_NOT_NULL55>

0000160a <_VAL_NULL55>:
    160a:	ef e5       	ldi	r30, 0x5F	; 95
    160c:	f1 e0       	ldi	r31, 0x01	; 1
    160e:	20 91 34 01 	lds	r18, 0x0134
    1612:	e2 0f       	add	r30, r18
    1614:	20 e0       	ldi	r18, 0x00	; 0
    1616:	f2 1f       	adc	r31, r18
    1618:	81 e0       	ldi	r24, 0x01	; 1
    161a:	80 83       	st	Z, r24
    161c:	08 c0       	rjmp	.+16     	; 0x162e <_EXIT_SLP_TIME55>

0000161e <_VAL_NOT_NULL55>:
    161e:	ef e5       	ldi	r30, 0x5F	; 95
    1620:	f1 e0       	ldi	r31, 0x01	; 1
    1622:	20 91 34 01 	lds	r18, 0x0134
    1626:	e2 0f       	add	r30, r18
    1628:	20 e0       	ldi	r18, 0x00	; 0
    162a:	f2 1f       	adc	r31, r18
    162c:	80 81       	ld	r24, Z

0000162e <_EXIT_SLP_TIME55>:
    162e:	81 30       	cpi	r24, 0x01	; 1
    1630:	19 f0       	breq	.+6      	; 0x1638 <_KER_CALC_PRIO54>
    1632:	84 30       	cpi	r24, 0x04	; 4
    1634:	09 f0       	breq	.+2      	; 0x1638 <_KER_CALC_PRIO54>
    1636:	12 c0       	rjmp	.+36     	; 0x165c <_KER_SCH_NEXT54>

00001638 <_KER_CALC_PRIO54>:
    1638:	e9 e6       	ldi	r30, 0x69	; 105
    163a:	f1 e0       	ldi	r31, 0x01	; 1
    163c:	20 e0       	ldi	r18, 0x00	; 0
    163e:	80 91 34 01 	lds	r24, 0x0134
    1642:	e8 0f       	add	r30, r24
    1644:	f2 1f       	adc	r31, r18
    1646:	80 81       	ld	r24, Z
    1648:	20 91 36 01 	lds	r18, 0x0136
    164c:	82 17       	cp	r24, r18
    164e:	30 f4       	brcc	.+12     	; 0x165c <_KER_SCH_NEXT54>
    1650:	80 93 36 01 	sts	0x0136, r24
    1654:	20 91 34 01 	lds	r18, 0x0134
    1658:	20 93 37 01 	sts	0x0137, r18

0000165c <_KER_SCH_NEXT54>:
    165c:	20 91 34 01 	lds	r18, 0x0134
    1660:	23 95       	inc	r18
    1662:	30 91 35 01 	lds	r19, 0x0135
    1666:	23 17       	cp	r18, r19
    1668:	08 f4       	brcc	.+2      	; 0x166c <_KER_SCH_EXIT54>
    166a:	b4 cf       	rjmp	.-152    	; 0x15d4 <_KER_SCH_LOOP54>

0000166c <_KER_SCH_EXIT54>:
    166c:	20 91 37 01 	lds	r18, 0x0137
    1670:	20 93 34 01 	sts	0x0134, r18
		KER_LOAD_TASK_ID_AND_SP                           ;load next task id, SP  ( 14 clocks) 
    1674:	ed e3       	ldi	r30, 0x3D	; 61
    1676:	f1 e0       	ldi	r31, 0x01	; 1
    1678:	20 91 34 01 	lds	r18, 0x0134
    167c:	22 0f       	add	r18, r18
    167e:	e2 0f       	add	r30, r18
    1680:	20 e0       	ldi	r18, 0x00	; 0
    1682:	f2 1f       	adc	r31, r18
    1684:	20 81       	ld	r18, Z
    1686:	31 81       	ldd	r19, Z+1	; 0x01
    1688:	2d bf       	out	0x3d, r18	; 61
    168a:	3e bf       	out	0x3e, r19	; 62
		KER_CONTEXT_RESTORE_THREAD                        ;restore context        ( 68 clocks) 
    168c:	ff 91       	pop	r31
    168e:	ef 91       	pop	r30
    1690:	df 91       	pop	r29
    1692:	cf 91       	pop	r28
    1694:	bf 91       	pop	r27
    1696:	af 91       	pop	r26
    1698:	9f 91       	pop	r25
    169a:	8f 91       	pop	r24
    169c:	7f 91       	pop	r23
    169e:	6f 91       	pop	r22
    16a0:	5f 91       	pop	r21
    16a2:	4f 91       	pop	r20
    16a4:	3f 91       	pop	r19
    16a6:	2f 91       	pop	r18
    16a8:	1f 91       	pop	r17
    16aa:	0f 91       	pop	r16
    16ac:	ff 90       	pop	r15
    16ae:	ef 90       	pop	r14
    16b0:	df 90       	pop	r13
    16b2:	cf 90       	pop	r12
    16b4:	bf 90       	pop	r11
    16b6:	af 90       	pop	r10
    16b8:	9f 90       	pop	r9
    16ba:	8f 90       	pop	r8
    16bc:	7f 90       	pop	r7
    16be:	6f 90       	pop	r6
    16c0:	5f 90       	pop	r5
    16c2:	4f 90       	pop	r4
    16c4:	3f 90       	pop	r3
    16c6:	2f 90       	pop	r2
    16c8:	1f 90       	pop	r1
    16ca:	0f 90       	pop	r0
    16cc:	0f be       	out	0x3f, r0	; 63
    16ce:	0f 90       	pop	r0
    16d0:	78 94       	sei
		                                                                                       
		STS   SRWDTCSR           , R18                    ;set val                (  2 clocks) 
		SEI                                               ;force enable interrupt (  1 clock ) 
		#endif                                                                                 
                                                                                               
		#ifdef KER_TOSC_AS_TICK_SRC                                                            
    16d2:	20 e0       	ldi	r18, 0x00	; 0
    16d4:	20 93 70 00 	sts	0x0070, r18
    16d8:	20 e2       	ldi	r18, 0x20	; 32
    16da:	20 93 b6 00 	sts	0x00B6, r18
		LDI   R18                , 0x80                   ;4Hz->clk/64/128        (  1 clock ) 
		#endif                                                                                 
		#ifdef KER_TOSC_TICK_500MS                                                             
		LDI   R18                , 0x80                   ;2Hz->clk/128/128       (  1 clock ) 
		#endif                                                                                 
		#ifdef KER_TOSC_TICK_1000MS                                                            
    16de:	20 e8       	ldi	r18, 0x80	; 128
    16e0:	20 93 b3 00 	sts	0x00B3, r18
    16e4:	20 e0       	ldi	r18, 0x00	; 0
    16e6:	20 93 b4 00 	sts	0x00B4, r18
    16ea:	22 e0       	ldi	r18, 0x02	; 2
    16ec:	20 93 b0 00 	sts	0x00B0, r18
		LDI   R18                , 0x04                   ;4Hz->clk/64/128        (  1 clock ) 
		#endif                                                                                 
		#ifdef KER_TOSC_TICK_500MS                                                             
		LDI   R18                , 0x05                   ;2Hz->clk/128/128       (  1 clock ) 
		#endif                                                                                 
		#ifdef KER_TOSC_TICK_1000MS                                                            
    16f0:	26 e0       	ldi	r18, 0x06	; 6
    16f2:	20 93 b1 00 	sts	0x00B1, r18
    16f6:	20 e0       	ldi	r18, 0x00	; 0
    16f8:	20 93 b2 00 	sts	0x00B2, r18

000016fc <_KER_TC2_AUB65>:
    16fc:	20 91 b6 00 	lds	r18, 0x00B6
    1700:	22 70       	andi	r18, 0x02	; 2
    1702:	e1 f7       	brne	.-8      	; 0x16fc <_KER_TC2_AUB65>

00001704 <_KER_TC2_BUB65>:
    1704:	20 91 b6 00 	lds	r18, 0x00B6
    1708:	21 70       	andi	r18, 0x01	; 1
    170a:	e1 f7       	brne	.-8      	; 0x1704 <_KER_TC2_BUB65>

0000170c <_KER_OC2_AUB65>:
    170c:	20 91 b6 00 	lds	r18, 0x00B6
    1710:	28 70       	andi	r18, 0x08	; 8
    1712:	e1 f7       	brne	.-8      	; 0x170c <_KER_OC2_AUB65>

00001714 <_KER_OC2_BUB65>:
    1714:	20 91 b6 00 	lds	r18, 0x00B6
    1718:	24 70       	andi	r18, 0x04	; 4
    171a:	e1 f7       	brne	.-8      	; 0x1714 <_KER_OC2_BUB65>

0000171c <_KER_TC2_UB65>:
    171c:	20 91 b6 00 	lds	r18, 0x00B6
    1720:	20 71       	andi	r18, 0x10	; 16
    1722:	e1 f7       	brne	.-8      	; 0x171c <_KER_TC2_UB65>

00001724 <_KER_TC2_TOV265>:
    1724:	20 91 37 00 	lds	r18, 0x0037
    1728:	21 70       	andi	r18, 0x01	; 1
    172a:	19 f0       	breq	.+6      	; 0x1732 <_KER_TC2_OCF2A65>
    172c:	21 e0       	ldi	r18, 0x01	; 1
    172e:	20 93 37 00 	sts	0x0037, r18

00001732 <_KER_TC2_OCF2A65>:
    1732:	20 91 37 00 	lds	r18, 0x0037
    1736:	22 70       	andi	r18, 0x02	; 2
    1738:	19 f0       	breq	.+6      	; 0x1740 <_KER_TC2_OCF2B65>
    173a:	22 e0       	ldi	r18, 0x02	; 2
    173c:	20 93 37 00 	sts	0x0037, r18

00001740 <_KER_TC2_OCF2B65>:
    1740:	20 91 37 00 	lds	r18, 0x0037
    1744:	24 70       	andi	r18, 0x04	; 4
    1746:	19 f0       	breq	.+6      	; 0x174e <_KER_TC2_INTEN65>
    1748:	24 e0       	ldi	r18, 0x04	; 4
    174a:	20 93 37 00 	sts	0x0037, r18

0000174e <_KER_TC2_INTEN65>:
    174e:	22 e0       	ldi	r18, 0x02	; 2
    1750:	20 93 70 00 	sts	0x0070, r18
    1754:	78 94       	sei
		KER_LOAD_TASK_ID_AND_SP                           ;load next task id, SP  ( 14 clocks) 
		KER_CONTEXT_RESTORE_THREAD                        ;restore context        ( 68 clocks) 
		;config timer for system tick                                                          
		KER_TIMER_INIT                                    ;init timer, int enable ( 12 clocks) 
		;execute return to jump to highest priority task                                       
		RET                                               ;return from subroutine (  4 clocks) 
    1756:	08 95       	ret

00001758 <Kernel_Init>:
;used registers          : R1, R18, R19, R22, R24, R25, R26(XL), R27(XH), R30(ZL), R31(ZH)     
;arg registers           : None                                                                
;return registers        : None                                                                
;unsafe access registers : R1, R18, R19, R22, R24, R25, R26(XL), R27(XH), R30(ZL), R31(ZH)     
Kernel_Init:                                              ;total 39.75uS @8MHz    (318 clocks) 
		CLR   R1                                          ;gcc expects            (  1 clock ) 
    1758:	11 24       	eor	r1, r1
        ;store stack top (for MSP) addr to KerSSZ+OFM_MSPI0:1                                  
		LDI   R18                , lo8(KerSSZ+OFM_MSPS)   ;load low address       (  1 clock ) 
    175a:	23 e5       	ldi	r18, 0x53	; 83
		LDI   R19                , hi8(KerSSZ+OFM_MSPS)   ;load high address      (  1 clock ) 
    175c:	31 e0       	ldi	r19, 0x01	; 1
        STS   KerSSZ+OFM_MSPI+0  , R18                    ;set mspi to stack top  (  2 clocks) 
    175e:	20 93 51 01 	sts	0x0151, r18
		STS   KerSSZ+OFM_MSPI+1  , R19                    ;set mspi to stack top  (  2 clocks) 
    1762:	30 93 52 01 	sts	0x0152, r19
		KER_PUSH_MSP_ZP                                   ;push MSP and ZP        ( 18 clocks) 
    1766:	a0 91 51 01 	lds	r26, 0x0151
    176a:	b0 91 52 01 	lds	r27, 0x0152
    176e:	2d b7       	in	r18, 0x3d	; 61
    1770:	3e b7       	in	r19, 0x3e	; 62
    1772:	2d 93       	st	X+, r18
    1774:	3d 93       	st	X+, r19
    1776:	ed 93       	st	X+, r30
    1778:	fd 93       	st	X+, r31
    177a:	a0 93 51 01 	sts	0x0151, r26
    177e:	b0 93 52 01 	sts	0x0152, r27
		;init timer for kernel                                                                 
		LDI   R24                , 0x03                   ;set prescaler          (  1 clock ) 
    1782:	83 e0       	ldi	r24, 0x03	; 3
		LDI   R22                , 0x82                   ;set reload val         (  1 clock ) 
    1784:	62 e8       	ldi	r22, 0x82	; 130
		CALL  Kernel_SysTick_Reg_Init                     ;init timer             ( 92 clocks) 
    1786:	0e 94 22 0a 	call	0x1444	; 0x1444 <Kernel_SysTick_Reg_Init>
		;create idle task at task_id 0, priority 0xFF (lowest)                                 
		LDI   R24                , lo8(Kernel_Task_Idle)  ;load func addr low     (  1 clock ) 
    178a:	86 eb       	ldi	r24, 0xB6	; 182
		LDI   R25                , hi8(Kernel_Task_Idle)  ;load func addr high    (  1 clock ) 
    178c:	97 e1       	ldi	r25, 0x17	; 23
		LSR   R25                                         ;right shift to divide  (  1 clock ) 
    178e:	96 95       	lsr	r25
		ROR   R24                                         ;rotate right th carry  (  1 clock ) 
    1790:	87 95       	ror	r24
		LDI   R22                , 0xFF                   ;set max val            (  1 clock ) 
    1792:	6f ef       	ldi	r22, 0xFF	; 255
		CALL  Kernel_Task_Create                          ;init idle task         (172 clocks) 
    1794:	0e 94 6a 0a 	call	0x14d4	; 0x14d4 <Kernel_Task_Create>
		KER_POP_MSP_ZP                                    ;pop MSP and ZP         ( 18 clocks) 
    1798:	a0 91 51 01 	lds	r26, 0x0151
    179c:	b0 91 52 01 	lds	r27, 0x0152
    17a0:	fe 91       	ld	r31, -X
    17a2:	ee 91       	ld	r30, -X
    17a4:	3e 91       	ld	r19, -X
    17a6:	2e 91       	ld	r18, -X
    17a8:	2d bf       	out	0x3d, r18	; 61
    17aa:	3e bf       	out	0x3e, r19	; 62
    17ac:	a0 93 51 01 	sts	0x0151, r26
    17b0:	b0 93 52 01 	sts	0x0152, r27
		;execute return to jump to task0, pushed while task init                               
		RET                                               ;return from subroutine (  4 clocks) 
    17b4:	08 95       	ret

000017b6 <Kernel_Task_Idle>:
                                                                                               
		#ifdef KER_SLEEP_MODE_POWER_DOWN                                                       
		LDI   R18                , 0x04                   ;set SM[2:0] val        (  1 clock ) 
        #endif                                                                                 
		                                                                                       
		#ifdef KER_SLEEP_MODE_POWER_SAVE                                                       
    17b6:	26 e0       	ldi	r18, 0x06	; 6
    17b8:	20 93 53 00 	sts	0x0053, r18
    17bc:	20 93 3b 01 	sts	0x013B, r18

000017c0 <_IDLE_LOOP>:
;return registers        : None                                                                
;unsafe access registers : None                                                                
Kernel_Task_Idle:                                                                              
	    KER_SLEEP_INIT                                    ;sleep init             (  5 clocks) 
    _IDLE_LOOP:                                           ;forever loop                        
	    KER_DISABLE_ANALOG_DOMAIN                         ;disable adc, ac        ( 10 clocks) 
    17c0:	20 91 7a 00 	lds	r18, 0x007A
    17c4:	2f 77       	andi	r18, 0x7F	; 127
    17c6:	20 93 7a 00 	sts	0x007A, r18
    17ca:	20 91 50 00 	lds	r18, 0x0050
    17ce:	20 68       	ori	r18, 0x80	; 128
    17d0:	20 93 50 00 	sts	0x0050, r18
		#ifdef KER_CALL_FUNC_BEFORE_SLEEP                                                      
		CALL  Kernel_PreSleep_Hook                        ;call func before sleep (  8 clocks) 
		#endif                                                                                 
	    KER_ENTER_SLEEP                                   ;enter sleep mode       (  6 clocks) 
    17d4:	20 91 53 00 	lds	r18, 0x0053
    17d8:	21 60       	ori	r18, 0x01	; 1
    17da:	20 93 53 00 	sts	0x0053, r18
    17de:	88 95       	sleep
		JMP   _IDLE_LOOP                                  ;jump to loop start     (  2 clocks) 
    17e0:	0c 94 e0 0b 	jmp	0x17c0	; 0x17c0 <_IDLE_LOOP>

000017e4 <Kernel_Task_Sleep>:
;arg registers           : R25:R24(SleepTime)                                                  
;return registers        : None                                                                
;unsafe access registers : R18, R19, R20, R24, R25, R30(ZL), R31(ZH)                           
Kernel_Task_Sleep:                                        ;total 37.25uS @8MHz    (298 clocks) 
        ;save current context                                                                  
        KER_CONTEXT_SAVE_THREAD                           ;save context           ( 69 clocks) 
    17e4:	0f 92       	push	r0
    17e6:	0f b6       	in	r0, 0x3f	; 63
    17e8:	f8 94       	cli
    17ea:	0f 92       	push	r0
    17ec:	1f 92       	push	r1
    17ee:	11 24       	eor	r1, r1
    17f0:	2f 92       	push	r2
    17f2:	3f 92       	push	r3
    17f4:	4f 92       	push	r4
    17f6:	5f 92       	push	r5
    17f8:	6f 92       	push	r6
    17fa:	7f 92       	push	r7
    17fc:	8f 92       	push	r8
    17fe:	9f 92       	push	r9
    1800:	af 92       	push	r10
    1802:	bf 92       	push	r11
    1804:	cf 92       	push	r12
    1806:	df 92       	push	r13
    1808:	ef 92       	push	r14
    180a:	ff 92       	push	r15
    180c:	0f 93       	push	r16
    180e:	1f 93       	push	r17
    1810:	2f 93       	push	r18
    1812:	3f 93       	push	r19
    1814:	4f 93       	push	r20
    1816:	5f 93       	push	r21
    1818:	6f 93       	push	r22
    181a:	7f 93       	push	r23
    181c:	8f 93       	push	r24
    181e:	9f 93       	push	r25
    1820:	af 93       	push	r26
    1822:	bf 93       	push	r27
    1824:	cf 93       	push	r28
    1826:	df 93       	push	r29
    1828:	ef 93       	push	r30
    182a:	ff 93       	push	r31
		KER_SAVE_CURR_TASK_SP                             ;save current task SP   ( 14 clocks) 
    182c:	ed e3       	ldi	r30, 0x3D	; 61
    182e:	f1 e0       	ldi	r31, 0x01	; 1
    1830:	20 91 34 01 	lds	r18, 0x0134
    1834:	22 0f       	add	r18, r18
    1836:	e2 0f       	add	r30, r18
    1838:	20 e0       	ldi	r18, 0x00	; 0
    183a:	f2 1f       	adc	r31, r18
    183c:	2d b7       	in	r18, 0x3d	; 61
    183e:	3e b7       	in	r19, 0x3e	; 62
    1840:	20 83       	st	Z, r18
    1842:	31 83       	std	Z+1, r19	; 0x01
		;create next task wakeup time (args R25:R24)                                           
		LDI   ZL                 , lo8(KerSchSlp)         ;load low byte          (  1 clock ) 
    1844:	e3 e7       	ldi	r30, 0x73	; 115
		LDI   ZH                 , hi8(KerSchSlp)         ;load high byte         (  1 clock ) 
    1846:	f1 e0       	ldi	r31, 0x01	; 1
		KER_CALC_ADDR_OFF_WORD                            ;offset calc            (  6 clocks) 
    1848:	20 91 34 01 	lds	r18, 0x0134
    184c:	22 0f       	add	r18, r18
    184e:	e2 0f       	add	r30, r18
    1850:	20 e0       	ldi	r18, 0x00	; 0
    1852:	f2 1f       	adc	r31, r18
		STD   Z+0                , R24                    ;save sleep time low    (  2 clocks) 
    1854:	80 83       	st	Z, r24
		STD   Z+1                , R25                    ;save sleep time high   (  2 clocks) 
    1856:	91 83       	std	Z+1, r25	; 0x01
		;update task scheduler status as blocked                                               
		LDI   ZL                 , lo8(KerSchSts)         ;load low byte          (  1 clock ) 
    1858:	ef e5       	ldi	r30, 0x5F	; 95
		LDI   ZH                 , hi8(KerSchSts)         ;load high byte         (  1 clock ) 
    185a:	f1 e0       	ldi	r31, 0x01	; 1
		KER_CALC_ADDR_OFF_BYTES                           ;offset calc            (  5 clocks) 
    185c:	20 91 34 01 	lds	r18, 0x0134
    1860:	e2 0f       	add	r30, r18
    1862:	20 e0       	ldi	r18, 0x00	; 0
    1864:	f2 1f       	adc	r31, r18
        LDI   R18                , TASK_BLOCKED           ;block task until cnt=0 (  1 clock ) 
    1866:	20 e0       	ldi	r18, 0x00	; 0
		STD   Z+0                , R18                    ;save block flag        (  2 clocks) 
    1868:	20 83       	st	Z, r18
		;run scheduler, load next task sp, restore context                                     
		LDI    R24               , SCH_MODE_THREAD        ;set sch mode           (  1 clock ) 
    186a:	81 e0       	ldi	r24, 0x01	; 1
		KER_RUN_SCHEDULER                                 ;run scheduler          (106 clocks) 
    186c:	2f ef       	ldi	r18, 0xFF	; 255
    186e:	20 93 36 01 	sts	0x0136, r18
    1872:	20 e0       	ldi	r18, 0x00	; 0
    1874:	20 93 37 01 	sts	0x0137, r18
    1878:	58 2f       	mov	r21, r24

0000187a <_KER_SCH_LOOP78>:
    187a:	20 93 34 01 	sts	0x0134, r18
    187e:	85 2f       	mov	r24, r21
    1880:	e3 e7       	ldi	r30, 0x73	; 115
    1882:	f1 e0       	ldi	r31, 0x01	; 1
    1884:	20 91 34 01 	lds	r18, 0x0134
    1888:	22 0f       	add	r18, r18
    188a:	e2 0f       	add	r30, r18
    188c:	20 e0       	ldi	r18, 0x00	; 0
    188e:	f2 1f       	adc	r31, r18
    1890:	20 81       	ld	r18, Z
    1892:	31 81       	ldd	r19, Z+1	; 0x01
    1894:	42 2f       	mov	r20, r18
    1896:	43 2b       	or	r20, r19
    1898:	59 f0       	breq	.+22     	; 0x18b0 <_VAL_NULL79>
    189a:	81 30       	cpi	r24, 0x01	; 1
    189c:	99 f0       	breq	.+38     	; 0x18c4 <_VAL_NOT_NULL79>
    189e:	41 e0       	ldi	r20, 0x01	; 1
    18a0:	24 1b       	sub	r18, r20
    18a2:	40 e0       	ldi	r20, 0x00	; 0
    18a4:	34 0b       	sbc	r19, r20
    18a6:	20 83       	st	Z, r18
    18a8:	31 83       	std	Z+1, r19	; 0x01
    18aa:	42 2f       	mov	r20, r18
    18ac:	43 2b       	or	r20, r19
    18ae:	51 f4       	brne	.+20     	; 0x18c4 <_VAL_NOT_NULL79>

000018b0 <_VAL_NULL79>:
    18b0:	ef e5       	ldi	r30, 0x5F	; 95
    18b2:	f1 e0       	ldi	r31, 0x01	; 1
    18b4:	20 91 34 01 	lds	r18, 0x0134
    18b8:	e2 0f       	add	r30, r18
    18ba:	20 e0       	ldi	r18, 0x00	; 0
    18bc:	f2 1f       	adc	r31, r18
    18be:	81 e0       	ldi	r24, 0x01	; 1
    18c0:	80 83       	st	Z, r24
    18c2:	08 c0       	rjmp	.+16     	; 0x18d4 <_EXIT_SLP_TIME79>

000018c4 <_VAL_NOT_NULL79>:
    18c4:	ef e5       	ldi	r30, 0x5F	; 95
    18c6:	f1 e0       	ldi	r31, 0x01	; 1
    18c8:	20 91 34 01 	lds	r18, 0x0134
    18cc:	e2 0f       	add	r30, r18
    18ce:	20 e0       	ldi	r18, 0x00	; 0
    18d0:	f2 1f       	adc	r31, r18
    18d2:	80 81       	ld	r24, Z

000018d4 <_EXIT_SLP_TIME79>:
    18d4:	81 30       	cpi	r24, 0x01	; 1
    18d6:	19 f0       	breq	.+6      	; 0x18de <_KER_CALC_PRIO78>
    18d8:	84 30       	cpi	r24, 0x04	; 4
    18da:	09 f0       	breq	.+2      	; 0x18de <_KER_CALC_PRIO78>
    18dc:	12 c0       	rjmp	.+36     	; 0x1902 <_KER_SCH_NEXT78>

000018de <_KER_CALC_PRIO78>:
    18de:	e9 e6       	ldi	r30, 0x69	; 105
    18e0:	f1 e0       	ldi	r31, 0x01	; 1
    18e2:	20 e0       	ldi	r18, 0x00	; 0
    18e4:	80 91 34 01 	lds	r24, 0x0134
    18e8:	e8 0f       	add	r30, r24
    18ea:	f2 1f       	adc	r31, r18
    18ec:	80 81       	ld	r24, Z
    18ee:	20 91 36 01 	lds	r18, 0x0136
    18f2:	82 17       	cp	r24, r18
    18f4:	30 f4       	brcc	.+12     	; 0x1902 <_KER_SCH_NEXT78>
    18f6:	80 93 36 01 	sts	0x0136, r24
    18fa:	20 91 34 01 	lds	r18, 0x0134
    18fe:	20 93 37 01 	sts	0x0137, r18

00001902 <_KER_SCH_NEXT78>:
    1902:	20 91 34 01 	lds	r18, 0x0134
    1906:	23 95       	inc	r18
    1908:	30 91 35 01 	lds	r19, 0x0135
    190c:	23 17       	cp	r18, r19
    190e:	08 f4       	brcc	.+2      	; 0x1912 <_KER_SCH_EXIT78>
    1910:	b4 cf       	rjmp	.-152    	; 0x187a <_KER_SCH_LOOP78>

00001912 <_KER_SCH_EXIT78>:
    1912:	20 91 37 01 	lds	r18, 0x0137
    1916:	20 93 34 01 	sts	0x0134, r18
		KER_LOAD_TASK_ID_AND_SP                           ;load next task id, SP  ( 14 clocks) 
    191a:	ed e3       	ldi	r30, 0x3D	; 61
    191c:	f1 e0       	ldi	r31, 0x01	; 1
    191e:	20 91 34 01 	lds	r18, 0x0134
    1922:	22 0f       	add	r18, r18
    1924:	e2 0f       	add	r30, r18
    1926:	20 e0       	ldi	r18, 0x00	; 0
    1928:	f2 1f       	adc	r31, r18
    192a:	20 81       	ld	r18, Z
    192c:	31 81       	ldd	r19, Z+1	; 0x01
    192e:	2d bf       	out	0x3d, r18	; 61
    1930:	3e bf       	out	0x3e, r19	; 62
		KER_CONTEXT_RESTORE_THREAD                        ;restore context        ( 68 clocks) 
    1932:	ff 91       	pop	r31
    1934:	ef 91       	pop	r30
    1936:	df 91       	pop	r29
    1938:	cf 91       	pop	r28
    193a:	bf 91       	pop	r27
    193c:	af 91       	pop	r26
    193e:	9f 91       	pop	r25
    1940:	8f 91       	pop	r24
    1942:	7f 91       	pop	r23
    1944:	6f 91       	pop	r22
    1946:	5f 91       	pop	r21
    1948:	4f 91       	pop	r20
    194a:	3f 91       	pop	r19
    194c:	2f 91       	pop	r18
    194e:	1f 91       	pop	r17
    1950:	0f 91       	pop	r16
    1952:	ff 90       	pop	r15
    1954:	ef 90       	pop	r14
    1956:	df 90       	pop	r13
    1958:	cf 90       	pop	r12
    195a:	bf 90       	pop	r11
    195c:	af 90       	pop	r10
    195e:	9f 90       	pop	r9
    1960:	8f 90       	pop	r8
    1962:	7f 90       	pop	r7
    1964:	6f 90       	pop	r6
    1966:	5f 90       	pop	r5
    1968:	4f 90       	pop	r4
    196a:	3f 90       	pop	r3
    196c:	2f 90       	pop	r2
    196e:	1f 90       	pop	r1
    1970:	0f 90       	pop	r0
    1972:	0f be       	out	0x3f, r0	; 63
    1974:	0f 90       	pop	r0
    1976:	78 94       	sei
		RET                                               ;return from subroutine (  4 clocks) 
    1978:	08 95       	ret

0000197a <Kernel_Task_Constant_Latency>:
;arg registers           : R25:R24(SleepTime)                                                  
;return registers        : None                                                                
;unsafe access registers : R18, R24, R25, R30(ZL), R31(ZH)                                     
Kernel_Task_Constant_Latency:                             ;total 3.50uS @8MHz     ( 28 clocks) 
		;create next task wakeup time (args R25:R24)                                           
		CLI                                               ;disable interrupt      (  1 clock ) 
    197a:	f8 94       	cli
		LDI   ZL                 , lo8(KerSchSlp)         ;load low byte          (  1 clock ) 
    197c:	e3 e7       	ldi	r30, 0x73	; 115
		LDI   ZH                 , hi8(KerSchSlp)         ;load high byte         (  1 clock ) 
    197e:	f1 e0       	ldi	r31, 0x01	; 1
		KER_CALC_ADDR_OFF_WORD                            ;offset calc            (  6 clocks) 
    1980:	20 91 34 01 	lds	r18, 0x0134
    1984:	22 0f       	add	r18, r18
    1986:	e2 0f       	add	r30, r18
    1988:	20 e0       	ldi	r18, 0x00	; 0
    198a:	f2 1f       	adc	r31, r18
		STD   Z+0                , R24                    ;save sleep time low    (  2 clocks) 
    198c:	80 83       	st	Z, r24
		STD   Z+1                , R25                    ;save sleep time high   (  2 clocks) 
    198e:	91 83       	std	Z+1, r25	; 0x01
		;update task scheduler status as constant latency                                      
		LDI   ZL                 , lo8(KerSchSts)         ;load low byte          (  1 clock ) 
    1990:	ef e5       	ldi	r30, 0x5F	; 95
		LDI   ZH                 , hi8(KerSchSts)         ;load high byte         (  1 clock ) 
    1992:	f1 e0       	ldi	r31, 0x01	; 1
		KER_CALC_ADDR_OFF_BYTES                           ;offset calc            (  5 clocks) 
    1994:	20 91 34 01 	lds	r18, 0x0134
    1998:	e2 0f       	add	r30, r18
    199a:	20 e0       	ldi	r18, 0x00	; 0
    199c:	f2 1f       	adc	r31, r18
        LDI   R18                , TASK_CONS_LAT          ;save as cons_lat       (  1 clock ) 
    199e:	24 e0       	ldi	r18, 0x04	; 4
		STD   Z+0                , R18                    ;save block flag        (  2 clocks) 
    19a0:	20 83       	st	Z, r18
		SEI                                               ;enable interrupt       (  1 clock ) 
    19a2:	78 94       	sei
		RET                                               ;return from subroutine (  4 clocks) 
    19a4:	08 95       	ret

000019a6 <Kernel_Task_Constant_Latency_Sleep>:
;arg registers           : R25:R24(SleepTime)                                                  
;return registers        : None                                                                
;unsafe access registers : R18, R19, R20, R24, R25, R30(ZL), R31(ZH)                           
Kernel_Task_Constant_Latency_Sleep:                       ;total 35.75uS @8MHz    (286 clocks) 
		;save current context                                                                  
        KER_CONTEXT_SAVE_THREAD                           ;save context           ( 69 clocks) 
    19a6:	0f 92       	push	r0
    19a8:	0f b6       	in	r0, 0x3f	; 63
    19aa:	f8 94       	cli
    19ac:	0f 92       	push	r0
    19ae:	1f 92       	push	r1
    19b0:	11 24       	eor	r1, r1
    19b2:	2f 92       	push	r2
    19b4:	3f 92       	push	r3
    19b6:	4f 92       	push	r4
    19b8:	5f 92       	push	r5
    19ba:	6f 92       	push	r6
    19bc:	7f 92       	push	r7
    19be:	8f 92       	push	r8
    19c0:	9f 92       	push	r9
    19c2:	af 92       	push	r10
    19c4:	bf 92       	push	r11
    19c6:	cf 92       	push	r12
    19c8:	df 92       	push	r13
    19ca:	ef 92       	push	r14
    19cc:	ff 92       	push	r15
    19ce:	0f 93       	push	r16
    19d0:	1f 93       	push	r17
    19d2:	2f 93       	push	r18
    19d4:	3f 93       	push	r19
    19d6:	4f 93       	push	r20
    19d8:	5f 93       	push	r21
    19da:	6f 93       	push	r22
    19dc:	7f 93       	push	r23
    19de:	8f 93       	push	r24
    19e0:	9f 93       	push	r25
    19e2:	af 93       	push	r26
    19e4:	bf 93       	push	r27
    19e6:	cf 93       	push	r28
    19e8:	df 93       	push	r29
    19ea:	ef 93       	push	r30
    19ec:	ff 93       	push	r31
		KER_SAVE_CURR_TASK_SP                             ;save current task SP   ( 14 clocks) 
    19ee:	ed e3       	ldi	r30, 0x3D	; 61
    19f0:	f1 e0       	ldi	r31, 0x01	; 1
    19f2:	20 91 34 01 	lds	r18, 0x0134
    19f6:	22 0f       	add	r18, r18
    19f8:	e2 0f       	add	r30, r18
    19fa:	20 e0       	ldi	r18, 0x00	; 0
    19fc:	f2 1f       	adc	r31, r18
    19fe:	2d b7       	in	r18, 0x3d	; 61
    1a00:	3e b7       	in	r19, 0x3e	; 62
    1a02:	20 83       	st	Z, r18
    1a04:	31 83       	std	Z+1, r19	; 0x01
		;update task scheduler status as blocked                                               
		LDI   ZL                 , lo8(KerSchSts)         ;load low byte          (  1 clock ) 
    1a06:	ef e5       	ldi	r30, 0x5F	; 95
		LDI   ZH                 , hi8(KerSchSts)         ;load high byte         (  1 clock ) 
    1a08:	f1 e0       	ldi	r31, 0x01	; 1
		KER_CALC_ADDR_OFF_BYTES                           ;offset calc            (  5 clocks) 
    1a0a:	20 91 34 01 	lds	r18, 0x0134
    1a0e:	e2 0f       	add	r30, r18
    1a10:	20 e0       	ldi	r18, 0x00	; 0
    1a12:	f2 1f       	adc	r31, r18
        LDI   R18                , TASK_BLOCKED           ;blocked until cnt=0    (  1 clock ) 
    1a14:	20 e0       	ldi	r18, 0x00	; 0
		STD   Z+0                , R18                    ;save block flag        (  2 clocks) 
    1a16:	20 83       	st	Z, r18
		;run scheduler, load next task sp, restore context                                     
		LDI    R24               , SCH_MODE_THREAD        ;set sch mode           (  1 clock ) 
    1a18:	81 e0       	ldi	r24, 0x01	; 1
		KER_RUN_SCHEDULER                                 ;run scheduler          (106 clocks) 
    1a1a:	2f ef       	ldi	r18, 0xFF	; 255
    1a1c:	20 93 36 01 	sts	0x0136, r18
    1a20:	20 e0       	ldi	r18, 0x00	; 0
    1a22:	20 93 37 01 	sts	0x0137, r18
    1a26:	58 2f       	mov	r21, r24

00001a28 <_KER_SCH_LOOP97>:
    1a28:	20 93 34 01 	sts	0x0134, r18
    1a2c:	85 2f       	mov	r24, r21
    1a2e:	e3 e7       	ldi	r30, 0x73	; 115
    1a30:	f1 e0       	ldi	r31, 0x01	; 1
    1a32:	20 91 34 01 	lds	r18, 0x0134
    1a36:	22 0f       	add	r18, r18
    1a38:	e2 0f       	add	r30, r18
    1a3a:	20 e0       	ldi	r18, 0x00	; 0
    1a3c:	f2 1f       	adc	r31, r18
    1a3e:	20 81       	ld	r18, Z
    1a40:	31 81       	ldd	r19, Z+1	; 0x01
    1a42:	42 2f       	mov	r20, r18
    1a44:	43 2b       	or	r20, r19
    1a46:	59 f0       	breq	.+22     	; 0x1a5e <_VAL_NULL98>
    1a48:	81 30       	cpi	r24, 0x01	; 1
    1a4a:	99 f0       	breq	.+38     	; 0x1a72 <_VAL_NOT_NULL98>
    1a4c:	41 e0       	ldi	r20, 0x01	; 1
    1a4e:	24 1b       	sub	r18, r20
    1a50:	40 e0       	ldi	r20, 0x00	; 0
    1a52:	34 0b       	sbc	r19, r20
    1a54:	20 83       	st	Z, r18
    1a56:	31 83       	std	Z+1, r19	; 0x01
    1a58:	42 2f       	mov	r20, r18
    1a5a:	43 2b       	or	r20, r19
    1a5c:	51 f4       	brne	.+20     	; 0x1a72 <_VAL_NOT_NULL98>

00001a5e <_VAL_NULL98>:
    1a5e:	ef e5       	ldi	r30, 0x5F	; 95
    1a60:	f1 e0       	ldi	r31, 0x01	; 1
    1a62:	20 91 34 01 	lds	r18, 0x0134
    1a66:	e2 0f       	add	r30, r18
    1a68:	20 e0       	ldi	r18, 0x00	; 0
    1a6a:	f2 1f       	adc	r31, r18
    1a6c:	81 e0       	ldi	r24, 0x01	; 1
    1a6e:	80 83       	st	Z, r24
    1a70:	08 c0       	rjmp	.+16     	; 0x1a82 <_EXIT_SLP_TIME98>

00001a72 <_VAL_NOT_NULL98>:
    1a72:	ef e5       	ldi	r30, 0x5F	; 95
    1a74:	f1 e0       	ldi	r31, 0x01	; 1
    1a76:	20 91 34 01 	lds	r18, 0x0134
    1a7a:	e2 0f       	add	r30, r18
    1a7c:	20 e0       	ldi	r18, 0x00	; 0
    1a7e:	f2 1f       	adc	r31, r18
    1a80:	80 81       	ld	r24, Z

00001a82 <_EXIT_SLP_TIME98>:
    1a82:	81 30       	cpi	r24, 0x01	; 1
    1a84:	19 f0       	breq	.+6      	; 0x1a8c <_KER_CALC_PRIO97>
    1a86:	84 30       	cpi	r24, 0x04	; 4
    1a88:	09 f0       	breq	.+2      	; 0x1a8c <_KER_CALC_PRIO97>
    1a8a:	12 c0       	rjmp	.+36     	; 0x1ab0 <_KER_SCH_NEXT97>

00001a8c <_KER_CALC_PRIO97>:
    1a8c:	e9 e6       	ldi	r30, 0x69	; 105
    1a8e:	f1 e0       	ldi	r31, 0x01	; 1
    1a90:	20 e0       	ldi	r18, 0x00	; 0
    1a92:	80 91 34 01 	lds	r24, 0x0134
    1a96:	e8 0f       	add	r30, r24
    1a98:	f2 1f       	adc	r31, r18
    1a9a:	80 81       	ld	r24, Z
    1a9c:	20 91 36 01 	lds	r18, 0x0136
    1aa0:	82 17       	cp	r24, r18
    1aa2:	30 f4       	brcc	.+12     	; 0x1ab0 <_KER_SCH_NEXT97>
    1aa4:	80 93 36 01 	sts	0x0136, r24
    1aa8:	20 91 34 01 	lds	r18, 0x0134
    1aac:	20 93 37 01 	sts	0x0137, r18

00001ab0 <_KER_SCH_NEXT97>:
    1ab0:	20 91 34 01 	lds	r18, 0x0134
    1ab4:	23 95       	inc	r18
    1ab6:	30 91 35 01 	lds	r19, 0x0135
    1aba:	23 17       	cp	r18, r19
    1abc:	08 f4       	brcc	.+2      	; 0x1ac0 <_KER_SCH_EXIT97>
    1abe:	b4 cf       	rjmp	.-152    	; 0x1a28 <_KER_SCH_LOOP97>

00001ac0 <_KER_SCH_EXIT97>:
    1ac0:	20 91 37 01 	lds	r18, 0x0137
    1ac4:	20 93 34 01 	sts	0x0134, r18
		KER_LOAD_TASK_ID_AND_SP                           ;load next task id, SP  ( 14 clocks) 
    1ac8:	ed e3       	ldi	r30, 0x3D	; 61
    1aca:	f1 e0       	ldi	r31, 0x01	; 1
    1acc:	20 91 34 01 	lds	r18, 0x0134
    1ad0:	22 0f       	add	r18, r18
    1ad2:	e2 0f       	add	r30, r18
    1ad4:	20 e0       	ldi	r18, 0x00	; 0
    1ad6:	f2 1f       	adc	r31, r18
    1ad8:	20 81       	ld	r18, Z
    1ada:	31 81       	ldd	r19, Z+1	; 0x01
    1adc:	2d bf       	out	0x3d, r18	; 61
    1ade:	3e bf       	out	0x3e, r19	; 62
		KER_CONTEXT_RESTORE_THREAD                        ;restore context        ( 68 clocks) 
    1ae0:	ff 91       	pop	r31
    1ae2:	ef 91       	pop	r30
    1ae4:	df 91       	pop	r29
    1ae6:	cf 91       	pop	r28
    1ae8:	bf 91       	pop	r27
    1aea:	af 91       	pop	r26
    1aec:	9f 91       	pop	r25
    1aee:	8f 91       	pop	r24
    1af0:	7f 91       	pop	r23
    1af2:	6f 91       	pop	r22
    1af4:	5f 91       	pop	r21
    1af6:	4f 91       	pop	r20
    1af8:	3f 91       	pop	r19
    1afa:	2f 91       	pop	r18
    1afc:	1f 91       	pop	r17
    1afe:	0f 91       	pop	r16
    1b00:	ff 90       	pop	r15
    1b02:	ef 90       	pop	r14
    1b04:	df 90       	pop	r13
    1b06:	cf 90       	pop	r12
    1b08:	bf 90       	pop	r11
    1b0a:	af 90       	pop	r10
    1b0c:	9f 90       	pop	r9
    1b0e:	8f 90       	pop	r8
    1b10:	7f 90       	pop	r7
    1b12:	6f 90       	pop	r6
    1b14:	5f 90       	pop	r5
    1b16:	4f 90       	pop	r4
    1b18:	3f 90       	pop	r3
    1b1a:	2f 90       	pop	r2
    1b1c:	1f 90       	pop	r1
    1b1e:	0f 90       	pop	r0
    1b20:	0f be       	out	0x3f, r0	; 63
    1b22:	0f 90       	pop	r0
    1b24:	78 94       	sei
		RET                                               ;return from subroutine (  4 clocks) 
    1b26:	08 95       	ret

00001b28 <Kernel_PreSleep_Hook>:
;used registers          : R24, R25, R30(ZL), R31(ZH)                                          
;arg registers           : R25:R24(FunctionPtr)                                                
;return registers        : None                                                                
;unsafe access registers : R24, R25, R30(ZL), R31(ZH)                                          
Kernel_PreSleep_Hook:                                     ;total 1.00uS @8MHz     (  8 clocks) 
        MOVW  R30                , R24                    ;move pointer to Z      (  1 clock ) 
    1b28:	fc 01       	movw	r30, r24
		ICALL                                             ;indirect call          (  3 clocks) 
    1b2a:	09 95       	icall
		RET                                               ;return from subroutine (  4 clocks) 
    1b2c:	08 95       	ret

00001b2e <Kernel_Clock_Prescale>:
;used registers          : R18, R24                                                            
;arg registers           : R24(prescaler reg val)                                              
;return registers        : None                                                                
;unsafe access registers : R18, R24                                                            
Kernel_Clock_Prescale:                                    ;total 1.75uS @8MHz     ( 14 clocks) 
        LDS   R18                , SRSREG                 ;load sreg              (  2 clocks)
    1b2e:	20 91 5f 00 	lds	r18, 0x005F
		CLI                                               ;disable interrupt      (  1 clock )
    1b32:	f8 94       	cli
		LDI   R19                , 0x80                   ;set CLKPCE             (  1 clock ) 
    1b34:	30 e8       	ldi	r19, 0x80	; 128
		STS   SRCLKPR            , R19                    ;store val              (  2 clocks) 
    1b36:	30 93 61 00 	sts	0x0061, r19
		STS   SRCLKPR            , R24                    ;store val              (  2 clocks)
    1b3a:	80 93 61 00 	sts	0x0061, r24
        STS   SRSREG             , R18                    ;store val              (  2 clocks) 
    1b3e:	20 93 5f 00 	sts	0x005F, r18
		RET                                               ;return from subroutine (  4 clocks) 
    1b42:	08 95       	ret

00001b44 <Kernel_Task_Sleep_Time_Get>:
;used registers          : R18, R24, R25, R30(ZL), R31(ZH)                                     
;arg registers           : R24(TaskID)                                                         
;return registers        : R25:R24(SleepTime)                                                  
;unsafe access registers : R18, R24, R25, R30(ZL), R31(ZH)                                     
Kernel_Task_Sleep_Time_Get:                               ;total 1.88uS @8MHz     ( 15 clocks) 
		MOV   R18                , R24                    ;copy                   (  1 clock ) 
    1b44:	28 2f       	mov	r18, r24
		LSL   R18                                         ;x2                     (  1 clock ) 
    1b46:	22 0f       	add	r18, r18
		LDI   ZL                 , lo8(KerSchSlp)         ;load low byte          (  1 clock ) 
    1b48:	e3 e7       	ldi	r30, 0x73	; 115
		LDI   ZH                 , hi8(KerSchSlp)         ;load high byte         (  1 clock ) 
    1b4a:	f1 e0       	ldi	r31, 0x01	; 1
		ADD   ZL                 , R18                    ;add low bytes          (  1 clock ) 
    1b4c:	e2 0f       	add	r30, r18
		LDI   R18                , 0x00                   ;load 0                 (  1 clock ) 
    1b4e:	20 e0       	ldi	r18, 0x00	; 0
		ADC   ZH                 , R18                    ;add high byte+carry    (  1 clock ) 
    1b50:	f2 1f       	adc	r31, r18
		LDD   R24                , Z+0                    ;load sleep time        (  2 clocks) 
    1b52:	80 81       	ld	r24, Z
		LDD   R25                , Z+1                    ;load sleep time        (  2 clocks) 
    1b54:	91 81       	ldd	r25, Z+1	; 0x01
		RET                                               ;return from subroutine (  4 clocks) 
    1b56:	08 95       	ret

00001b58 <Kernel_Task_Status_Get>:
;used registers          : R18, R24, R30(ZL), R31(ZH)                                          
;arg registers           : R24(TaskID)                                                         
;return registers        : R24(TaskSts)                                                        
;unsafe access registers : R18, R24, R30(ZL), R31(ZH)                                          
Kernel_Task_Status_Get:                                   ;total 1.50uS @8MHz     ( 12 clocks) 
		MOV   R18                , R24                    ;copy                   (  1 clock ) 
    1b58:	28 2f       	mov	r18, r24
		LDI   ZL                 , lo8(KerSchSts)         ;load low byte          (  1 clock ) 
    1b5a:	ef e5       	ldi	r30, 0x5F	; 95
		LDI   ZH                 , hi8(KerSchSts)         ;load high byte         (  1 clock ) 
    1b5c:	f1 e0       	ldi	r31, 0x01	; 1
		ADD   ZL                 , R18                    ;add low bytes          (  1 clock ) 
    1b5e:	e2 0f       	add	r30, r18
		LDI   R18                , 0x00                   ;load 0                 (  1 clock ) 
    1b60:	20 e0       	ldi	r18, 0x00	; 0
		ADC   ZH                 , R18                    ;add high byte+carry    (  1 clock ) 
    1b62:	f2 1f       	adc	r31, r18
		LD    R24                , Z                      ;load task status       (  2 clocks) 
    1b64:	80 81       	ld	r24, Z
		RET                                               ;return from subroutine (  4 clocks) 
    1b66:	08 95       	ret

00001b68 <Kernel_NTask_Get>:
;used registers          : R24                                                                 
;arg registers           : None                                                                
;return registers        : R24(NTask)                                                          
;unsafe access registers : R24                                                                 
Kernel_NTask_Get:                                         ;total 0.75uS @8MHz     (  6 clocks) 
		LDS   R24                 , KerBase+OFB_NTSK      ;load ntask             (  2 clock ) 
    1b68:	80 91 35 01 	lds	r24, 0x0135
		RET                                               ;return from subroutine (  4 clocks) 
    1b6c:	08 95       	ret

00001b6e <Kernel_Task_Prio_Get>:
;arg registers           : R24(TaskID)                                                         
;return registers        : R24(TaskPriority)                                                   
;unsafe access registers : R18, R24, R30(ZL), R31(ZH)                                          
Kernel_Task_Prio_Get:                                     ;total 1.50uS @8MHz     ( 12 clocks) 
		;get priority of the task id, arg (task_id->R24), return R24                           
		MOV   R18                , R24                    ;copy task_id           (  1 clock ) 
    1b6e:	28 2f       	mov	r18, r24
		LDI   ZL                 , lo8(KerSchPr)          ;load low byte          (  1 clock ) 
    1b70:	e9 e6       	ldi	r30, 0x69	; 105
		LDI   ZH                 , hi8(KerSchPr)          ;load high byte         (  1 clock ) 
    1b72:	f1 e0       	ldi	r31, 0x01	; 1
		ADD   ZL                 , R18                    ;add low bytes          (  1 clock ) 
    1b74:	e2 0f       	add	r30, r18
		LDI   R18                , 0x00                   ;clear reg              (  1 clock ) 
    1b76:	20 e0       	ldi	r18, 0x00	; 0
		ADC   ZH                 , R18                    ;add high byte+carry    (  1 clock ) 
    1b78:	f2 1f       	adc	r31, r18
		LD    R24                , Z                      ;load priority          (  2 clocks) 
    1b7a:	80 81       	ld	r24, Z
		RET                                               ;return from subroutine (  4 clocks) 
    1b7c:	08 95       	ret

00001b7e <Kernel_Lowest_Prio_Get>:
;used registers          : R24                                                                 
;arg registers           : None                                                                
;return registers        : R24(LowestPriorityVal)                                              
;unsafe access registers : R24                                                                 
Kernel_Lowest_Prio_Get:                                   ;total 0.75uS @8MHz     (  6 clocks) 
		LDS   R24                , KerBase+OFB_LPR        ;load lowest priority   (  2 clocks) 
    1b7e:	80 91 36 01 	lds	r24, 0x0136
		RET                                               ;return from subroutine (  4 clocks) 
    1b82:	08 95       	ret

00001b84 <Kernel_High_Prio_Task_ID_Get>:
;used registers          : R24                                                                 
;arg registers           : None                                                                
;return registers        : R24(HighstPriorityTaskID)->UserTaskID (Excluding Idle Task)         
;unsafe access registers : R24                                                                 
Kernel_High_Prio_Task_ID_Get:                             ;total 0.88uS @8MHz     (  7 clocks) 
		LDS   R24                , KerBase+OFB_PTID       ;load priority tak_id   (  2 clocks) 
    1b84:	80 91 37 01 	lds	r24, 0x0137
		DEC   R24                                         ;decrement by 1         (  1 clock ) 
    1b88:	8a 95       	dec	r24
		RET                                               ;return from subroutine (  4 clocks) 
    1b8a:	08 95       	ret

00001b8c <Kernel_Abs_High_Prio_Task_ID_Get>:
;used registers          : R24                                                                 
;arg registers           : None                                                                
;return registers        : R24(HighstPriorityTaskID)->AbsoluteTaskID (Including Idle Task)     
;unsafe access registers : R24                                                                 
Kernel_Abs_High_Prio_Task_ID_Get:                         ;total 0.75uS @8MHz     (  6 clocks) 
		LDS   R24                , KerBase+OFB_PTID       ;load priority tak_id   (  2 clocks) 
    1b8c:	80 91 37 01 	lds	r24, 0x0137
		RET                                               ;return from subroutine (  4 clocks) 
    1b90:	08 95       	ret

00001b92 <Kernel_CPU_Usage_Get>:
;arg registers           : None                                                                
;return registers        : R24(CurrentCpuUsage)->In percentage                                 
;unsafe access registers : R24                                                                 
Kernel_CPU_Usage_Get:                                     ;total 0.75uS @8MHz     (  6 clocks) 
		;get cpu usage, return R24                                                             
		LDS   R24                , KerBase+OFB_USAGE      ;load cpu usage         (  2 clocks) 
    1b92:	80 91 3a 01 	lds	r24, 0x013A
		RET                                               ;return from subroutine (  4 clocks) 
    1b96:	08 95       	ret

00001b98 <Debug_Init>:


;;===================================debug init starting====================================;; 
Debug_Init:                                               ;total 2.38uS @8MHz     ( 19 clocks) 
        ;init registers for UART0 (Arg R25:R24->UBRRH:UBRRL)                                   
		LDI   R18                , (1<<1)                 ;mask U2x               (  1 clock ) 
    1b98:	22 e0       	ldi	r18, 0x02	; 2
		STS   SRUCSR0A           , R18                    ;load val to UCSR0A     (  2 clocks) 
    1b9a:	20 93 c0 00 	sts	0x00C0, r18
		MOV   R18                , R25                    ;copy R25->baud rate H  (  1 clock ) 
    1b9e:	29 2f       	mov	r18, r25
		STS   SRUBRR0H           , R18                    ;load val to UBRR0H     (  2 clocks) 
    1ba0:	20 93 c5 00 	sts	0x00C5, r18
		MOV   R18                , R24                    ;copy R24->baud rate L  (  1 clock ) 
    1ba4:	28 2f       	mov	r18, r24
		STS   SRUBRR0L           , R18                    ;load val to UBRR0L     (  2 clocks) 
    1ba6:	20 93 c4 00 	sts	0x00C4, r18
		LDI   R18                , (1<<1)|(1<<2)          ;config 8 data bit      (  1 clock ) 
    1baa:	26 e0       	ldi	r18, 0x06	; 6
		STS   SRUCSR0C           , R18                    ;load val to UCSR0C     (  2 clocks) 
    1bac:	20 93 c2 00 	sts	0x00C2, r18
		LDI   R18                , (1<<3)                 ;enable tx              (  1 clock ) 
    1bb0:	28 e0       	ldi	r18, 0x08	; 8
		STS   SRUCSR0B           , R18                    ;load val to UCSR0B     (  2 clocks) 
    1bb2:	20 93 c1 00 	sts	0x00C1, r18
        RET                                               ;return from subroutine (  4 clocks) 
    1bb6:	08 95       	ret

00001bb8 <Debug_Tx_Byte>:


;;====================================debug tx starting=====================================;; 
Debug_Tx_Byte:                                            ;total 2.00uS+LT @8MHz  ( 16 clocks) 
		;write single byte to data register (Arg R24)                                          
		PUSH  R18                                         ;save reg               (  2 clocks) 
    1bb8:	2f 93       	push	r18
		STS   SRUDR0             , R24                    ;load val to UDR0       (  2 clocks) 
    1bba:	80 93 c6 00 	sts	0x00C6, r24

00001bbe <__UDRE0_CLEARED>:
                                                                                               
    __UDRE0_CLEARED:                                      ;undefined loop wrt ck               
		LDS   R18                , SRUCSR0A               ;load UCSR0A to R18     (  2 clocks) 
    1bbe:	20 91 c0 00 	lds	r18, 0x00C0
		SBRS  R18                , 0x05                   ;skip if UDRE0 is set   (  2 clocks) 
    1bc2:	25 ff       	sbrs	r18, 5
		RJMP  __UDRE0_CLEARED                             ;wait until UDRE0 is set(  2 clocks) 
    1bc4:	fc cf       	rjmp	.-8      	; 0x1bbe <__UDRE0_CLEARED>
		POP   R18                                         ;restore reg            (  2 clocks) 
    1bc6:	2f 91       	pop	r18
        RET                                               ;return from subroutine (  4 clocks) 
    1bc8:	08 95       	ret

00001bca <Debug_Tx_Word>:


;;==================================debug tx word starting==================================;; 
Debug_Tx_Word:                                            ;total 2.00uS+LT @8MHz  ( 16 clocks) 
		;write 2 bytes, (Arg R24, R25), Args retained                                          
		PUSH  R24                                         ;save reg               (  2 clocks) 
    1bca:	8f 93       	push	r24
		MOV   R24                , R25                    ;copy reg               (  1 clock ) 
    1bcc:	89 2f       	mov	r24, r25
		CALL  Debug_Tx_Byte                               ;send via uart          ( 21 clocks) 
    1bce:	0e 94 dc 0d 	call	0x1bb8	; 0x1bb8 <Debug_Tx_Byte>
        POP   R24                                         ;restore reg            (  2 clocks) 
    1bd2:	8f 91       	pop	r24
		CALL  Debug_Tx_Byte                               ;send via uart          ( 21 clocks) 
    1bd4:	0e 94 dc 0d 	call	0x1bb8	; 0x1bb8 <Debug_Tx_Byte>
        RET                                               ;return from subroutine (  4 clocks) 
    1bd8:	08 95       	ret

00001bda <Debug_Tx_Byte_Conf>:


;;================================debug tx confirm starting=================================;; 
Debug_Tx_Byte_Conf:                                       ;total 2.63uS+LT @8MHz  ( 21 clocks) 
        ;write 1 byte, (Arg R24), Args retained                                                
		PUSH  R18                                         ;save reg               (  2 clocks) 
    1bda:	2f 93       	push	r18
		STS   SRUDR0             , R24                    ;load val to UDR0,      (  2 clocks) 
    1bdc:	80 93 c6 00 	sts	0x00C6, r24

00001be0 <__TXC0_CLEARED>:
    __TXC0_CLEARED:                                                                            
		LDS   R18                , SRUCSR0A               ;load UCSR0A to R18,    (  2 clocks) 
    1be0:	20 91 c0 00 	lds	r18, 0x00C0
		SBRS  R18                , 0x06                   ;skip if TXC0 is set,   (  2 clocks) 
    1be4:	26 ff       	sbrs	r18, 6
		RJMP  __TXC0_CLEARED                              ;wait until TXC0 is set (  2 clocks) 
    1be6:	fc cf       	rjmp	.-8      	; 0x1be0 <__TXC0_CLEARED>
		LDS   R18                , SRUCSR0A               ;load UCSR0A to R18,    (  2 clocks) 
    1be8:	20 91 c0 00 	lds	r18, 0x00C0
		ORI   R18                , (1<<6)                 ;mask bit 6,            (  1 clock ) 
    1bec:	20 64       	ori	r18, 0x40	; 64
		STS   SRUCSR0A           , R18                    ;write reg with bit msk (  2 clocks) 
    1bee:	20 93 c0 00 	sts	0x00C0, r18
		POP   R18                                         ;restore reg            (  2 clocks) 
    1bf2:	2f 91       	pop	r18
        RET                                               ;return from subroutine (  4 clocks) 
    1bf4:	08 95       	ret

00001bf6 <Debug_Tx_Word_Conf>:


;;==============================debug tx word confirm starting==============================;; 
Debug_Tx_Word_Conf:                                       ;total 6.38uS+LT @8MHz  ( 51 clocks) 
        ;write 2 bytes, (Arg R24, R25), Args retained                                          
		CALL  Debug_Tx_Byte_Conf                          ;send via uart                       
    1bf6:	0e 94 ed 0d 	call	0x1bda	; 0x1bda <Debug_Tx_Byte_Conf>
		PUSH  R24                                         ;save reg               (  2 clocks) 
    1bfa:	8f 93       	push	r24
		MOV   R24                , R25                    ;copy R25 to R24        (  1 clock ) 
    1bfc:	89 2f       	mov	r24, r25
		CALL  Debug_Tx_Byte_Conf                          ;send via uart                       
    1bfe:	0e 94 ed 0d 	call	0x1bda	; 0x1bda <Debug_Tx_Byte_Conf>
		POP   R24                                         ;restore reg            (  2 clocks) 
    1c02:	8f 91       	pop	r24
        RET                                               ;return from subroutine (  4 clocks) 
    1c04:	08 95       	ret

00001c06 <Debug_Tx_DWord_Conf>:


;;==============================debug tx dword confirm starting=============================;; 
Debug_Tx_DWord_Conf:                                      ;total 12.38uS+LT @8MHz ( 99 clocks) 
        ;write 4 bytes, (Arg R22-R25), Args retained                                           
		STS   SRGPIOR1           , R24                    ;store R24 val,           (2 clocks) 
    1c06:	80 93 4a 00 	sts	0x004A, r24
		MOV   R24                , R22                    ;copy R22 to R24          (1 clock ) 
    1c0a:	86 2f       	mov	r24, r22
		CALL  Debug_Tx_Byte_Conf                          ;send via uart                       
    1c0c:	0e 94 ed 0d 	call	0x1bda	; 0x1bda <Debug_Tx_Byte_Conf>
		MOV   R24                , R23                    ;copy R23 to R24          (1 clock ) 
    1c10:	87 2f       	mov	r24, r23
		CALL  Debug_Tx_Byte_Conf                          ;send via uart                       
    1c12:	0e 94 ed 0d 	call	0x1bda	; 0x1bda <Debug_Tx_Byte_Conf>
		LDS   R24                , SRGPIOR1               ;restore R24              (2 clocks) 
    1c16:	80 91 4a 00 	lds	r24, 0x004A
		CALL  Debug_Tx_Byte_Conf                          ;send via uart                       
    1c1a:	0e 94 ed 0d 	call	0x1bda	; 0x1bda <Debug_Tx_Byte_Conf>
		STS   SRGPIOR1           , R24                    ;store R24 val,           (2 clocks) 
    1c1e:	80 93 4a 00 	sts	0x004A, r24
		MOV   R24                , R25                    ;copy R22 to R24          (1 clock ) 
    1c22:	89 2f       	mov	r24, r25
		CALL  Debug_Tx_Byte_Conf                          ;send via uart                       
    1c24:	0e 94 ed 0d 	call	0x1bda	; 0x1bda <Debug_Tx_Byte_Conf>
		LDS   R24                , SRGPIOR1               ;restore R24 val,         (2 clocks) 
    1c28:	80 91 4a 00 	lds	r24, 0x004A
        RET                                               ;return from subroutine,  (4 clocks) 
    1c2c:	08 95       	ret

00001c2e <Debug_Tx_From_RAM>:


;;=============================debug tx confirm from ram starting===========================;; 
Debug_Tx_From_RAM:                                        ;total 4.38uS+LT @8MHz  ( 35 clocks) 
        ;print data from RAM address (Arg R24-R25)                                             
		MOV   R16                , R30                    ;copy R30 to R16          (1 clock ) 
    1c2e:	0e 2f       	mov	r16, r30
		MOV   R17                , R31                    ;copy R31 to R17          (1 clock ) 
    1c30:	1f 2f       	mov	r17, r31
		MOV   R18                , R24                    ;copy R24 to R18          (1 clock ) 
    1c32:	28 2f       	mov	r18, r24
		MOV   R30                , R24                    ;copy R22 to R24          (1 clock ) 
    1c34:	e8 2f       	mov	r30, r24
		MOV   R31                , R25                    ;copy R22 to R24          (1 clock ) 
    1c36:	f9 2f       	mov	r31, r25
		LD    R24                , Z                      ;load val to R24          (2 clocks) 
    1c38:	80 81       	ld	r24, Z
		CALL  Debug_Tx_Byte_Conf                          ;send via uart                       
    1c3a:	0e 94 ed 0d 	call	0x1bda	; 0x1bda <Debug_Tx_Byte_Conf>
		MOV   R30                , R16                    ;copy R16 to R30          (1 clock ) 
    1c3e:	e0 2f       	mov	r30, r16
		MOV   R31                , R17                    ;copy R17 to R31          (1 clock ) 
    1c40:	f1 2f       	mov	r31, r17
		MOV   R24                , R18                    ;copy R18 to R24          (1 clock ) 
    1c42:	82 2f       	mov	r24, r18
        RET                                               ;return from subroutine,  (4 clocks) 
    1c44:	08 95       	ret

00001c46 <Debug_Tx_RAM_Area>:

;;=============================debug tx confirm ram area starting===========================;; 
Debug_Tx_RAM_Area:                                        ;5.5uS+LT x R22 @8MHz   ( 44 clocks) 
        ;print data from RAM address (arguments R24:R25, R22)                                  
	__DUMP_BYTES:                                                                              
	    CALL  Debug_Tx_From_RAM                           ;send via uart from ram              
    1c46:	0e 94 17 0e 	call	0x1c2e	; 0x1c2e <Debug_Tx_From_RAM>
		SUBI  R24                , 0x01                   ;decrement from LSByte               
    1c4a:	81 50       	subi	r24, 0x01	; 1
        SBCI  R25                , 0x00                   ;decrement if carry                  
    1c4c:	90 40       	sbci	r25, 0x00	; 0
		SUBI  R22                , 0x01                   ;decrement                           
    1c4e:	61 50       	subi	r22, 0x01	; 1
		BRNE  __DUMP_BYTES                                                                     
    1c50:	d1 f7       	brne	.-12     	; 0x1c46 <Debug_Tx_RAM_Area>
        RET                                               ;return from subroutine,  (4 clocks) 
    1c52:	08 95       	ret

00001c54 <__mulsi3>:
    1c54:	62 9f       	mul	r22, r18
    1c56:	d0 01       	movw	r26, r0
    1c58:	73 9f       	mul	r23, r19
    1c5a:	f0 01       	movw	r30, r0
    1c5c:	82 9f       	mul	r24, r18
    1c5e:	e0 0d       	add	r30, r0
    1c60:	f1 1d       	adc	r31, r1
    1c62:	64 9f       	mul	r22, r20
    1c64:	e0 0d       	add	r30, r0
    1c66:	f1 1d       	adc	r31, r1
    1c68:	92 9f       	mul	r25, r18
    1c6a:	f0 0d       	add	r31, r0
    1c6c:	83 9f       	mul	r24, r19
    1c6e:	f0 0d       	add	r31, r0
    1c70:	74 9f       	mul	r23, r20
    1c72:	f0 0d       	add	r31, r0
    1c74:	65 9f       	mul	r22, r21
    1c76:	f0 0d       	add	r31, r0
    1c78:	99 27       	eor	r25, r25
    1c7a:	72 9f       	mul	r23, r18
    1c7c:	b0 0d       	add	r27, r0
    1c7e:	e1 1d       	adc	r30, r1
    1c80:	f9 1f       	adc	r31, r25
    1c82:	63 9f       	mul	r22, r19
    1c84:	b0 0d       	add	r27, r0
    1c86:	e1 1d       	adc	r30, r1
    1c88:	f9 1f       	adc	r31, r25
    1c8a:	bd 01       	movw	r22, r26
    1c8c:	cf 01       	movw	r24, r30
    1c8e:	11 24       	eor	r1, r1
    1c90:	08 95       	ret

00001c92 <__udivmodsi4>:
    1c92:	a1 e2       	ldi	r26, 0x21	; 33
    1c94:	1a 2e       	mov	r1, r26
    1c96:	aa 1b       	sub	r26, r26
    1c98:	bb 1b       	sub	r27, r27
    1c9a:	fd 01       	movw	r30, r26
    1c9c:	0d c0       	rjmp	.+26     	; 0x1cb8 <__udivmodsi4_ep>

00001c9e <__udivmodsi4_loop>:
    1c9e:	aa 1f       	adc	r26, r26
    1ca0:	bb 1f       	adc	r27, r27
    1ca2:	ee 1f       	adc	r30, r30
    1ca4:	ff 1f       	adc	r31, r31
    1ca6:	a2 17       	cp	r26, r18
    1ca8:	b3 07       	cpc	r27, r19
    1caa:	e4 07       	cpc	r30, r20
    1cac:	f5 07       	cpc	r31, r21
    1cae:	20 f0       	brcs	.+8      	; 0x1cb8 <__udivmodsi4_ep>
    1cb0:	a2 1b       	sub	r26, r18
    1cb2:	b3 0b       	sbc	r27, r19
    1cb4:	e4 0b       	sbc	r30, r20
    1cb6:	f5 0b       	sbc	r31, r21

00001cb8 <__udivmodsi4_ep>:
    1cb8:	66 1f       	adc	r22, r22
    1cba:	77 1f       	adc	r23, r23
    1cbc:	88 1f       	adc	r24, r24
    1cbe:	99 1f       	adc	r25, r25
    1cc0:	1a 94       	dec	r1
    1cc2:	69 f7       	brne	.-38     	; 0x1c9e <__udivmodsi4_loop>
    1cc4:	60 95       	com	r22
    1cc6:	70 95       	com	r23
    1cc8:	80 95       	com	r24
    1cca:	90 95       	com	r25
    1ccc:	9b 01       	movw	r18, r22
    1cce:	ac 01       	movw	r20, r24
    1cd0:	bd 01       	movw	r22, r26
    1cd2:	cf 01       	movw	r24, r30
    1cd4:	08 95       	ret

00001cd6 <_exit>:
    1cd6:	f8 94       	cli

00001cd8 <__stop_program>:
    1cd8:	ff cf       	rjmp	.-2      	; 0x1cd8 <__stop_program>
