   1               		.file	"nrf24l01p.c"
   2               	__SREG__ = 0x3f
   3               	__SP_H__ = 0x3e
   4               	__SP_L__ = 0x3d
   5               	__CCP__  = 0x34
   6               	__tmp_reg__ = 0
   7               	__zero_reg__ = 1
  15               	.Ltext0:
  16               	.global	nRF24L01P_Struct_Init
  18               	nRF24L01P_Struct_Init:
  19               	.LFB6:
  20               	.LM1:
  21               	/* prologue: function */
  22               	/* frame size = 0 */
  23               	.LM2:
  24 0000 1092 0000 		sts nRF24L01P,__zero_reg__
  25               	.LM3:
  26 0004 91E0      		ldi r25,lo8(1)
  27 0006 9093 0000 		sts nRF24L01P+1,r25
  28               	.LM4:
  29 000a 1092 0000 		sts nRF24L01P+2,__zero_reg__
  30               	.LM5:
  31 000e 1092 0000 		sts nRF24L01P+3,__zero_reg__
  32               	.LM6:
  33 0012 9093 0000 		sts nRF24L01P+4,r25
  34               	.LM7:
  35 0016 82E0      		ldi r24,lo8(2)
  36 0018 8093 0000 		sts nRF24L01P+5,r24
  37               	.LM8:
  38 001c 1092 0000 		sts (nRF24L01P+8)+1,__zero_reg__
  39 0020 1092 0000 		sts nRF24L01P+8,__zero_reg__
  40               	.LM9:
  41 0024 2AE0      		ldi r18,lo8(10)
  42 0026 30E0      		ldi r19,hi8(10)
  43 0028 3093 0000 		sts (nRF24L01P+6)+1,r19
  44 002c 2093 0000 		sts nRF24L01P+6,r18
  45               	.LM10:
  46 0030 84E1      		ldi r24,lo8(20)
  47 0032 8093 0000 		sts nRF24L01P+10,r24
  48               	.LM11:
  49 0036 3093 0000 		sts (nRF24L01P+11)+1,r19
  50 003a 2093 0000 		sts nRF24L01P+11,r18
  51               	.LM12:
  52 003e 1092 0000 		sts (nRF24L01P+13)+1,__zero_reg__
  53 0042 1092 0000 		sts nRF24L01P+13,__zero_reg__
  54               	.LM13:
  55 0046 9093 0000 		sts nRF24L01P+15,r25
  56               	.LM14:
  57 004a 1092 0000 		sts nRF24L01P+16,__zero_reg__
  58               	.LM15:
  59 004e 1092 0000 		sts nRF24L01P+17,__zero_reg__
  60               	.LM16:
  61 0052 9093 0000 		sts nRF24L01P+18,r25
  62               	.LM17:
  63 0056 1092 0000 		sts nRF24L01P+19,__zero_reg__
  64               	.LM18:
  65 005a 1092 0000 		sts nRF24L01P+20,__zero_reg__
  66               	.LM19:
  67 005e 8FE1      		ldi r24,lo8(31)
  68 0060 8093 0000 		sts nRF24L01P+22,r24
  69               	.LM20:
  70 0064 8EE1      		ldi r24,lo8(30)
  71 0066 8093 0000 		sts nRF24L01P+21,r24
  72               	.LM21:
  73 006a 8093 0000 		sts nRF24L01P+28,r24
  74               	.LM22:
  75 006e 8DE1      		ldi r24,lo8(29)
  76 0070 8093 0000 		sts nRF24L01P+23,r24
  77               	.LM23:
  78 0074 8CE1      		ldi r24,lo8(28)
  79 0076 8093 0000 		sts nRF24L01P+24,r24
  80               	.LM24:
  81 007a 8BE1      		ldi r24,lo8(27)
  82 007c 8093 0000 		sts nRF24L01P+25,r24
  83               	.LM25:
  84 0080 8AE1      		ldi r24,lo8(26)
  85 0082 8093 0000 		sts nRF24L01P+26,r24
  86               	.LM26:
  87 0086 89E1      		ldi r24,lo8(25)
  88 0088 8093 0000 		sts nRF24L01P+27,r24
  89               	.LM27:
  90 008c 88E1      		ldi r24,lo8(24)
  91 008e 8093 0000 		sts nRF24L01P+29,r24
  92               	.LM28:
  93 0092 1092 0000 		sts (nRF24L01P+30)+1,__zero_reg__
  94 0096 1092 0000 		sts nRF24L01P+30,__zero_reg__
  95               	.LM29:
  96 009a 1092 0000 		sts nRF24L01P+32,__zero_reg__
  97 009e 1092 0000 		sts nRF24L01P+33,__zero_reg__
  98               	/* epilogue start */
  99               	.LM30:
 100 00a2 0895      		ret
 101               	.LFE6:
 103               	.global	nRF24L01P_Set_SCK_DD
 105               	nRF24L01P_Set_SCK_DD:
 106               	.LFB7:
 107               	.LM31:
 108               	.LVL0:
 109               	/* prologue: function */
 110               	/* frame size = 0 */
 111               	.LM32:
 112 00a4 8823      		tst r24
 113 00a6 01F0      		breq .L4
 114               	.LM33:
 115 00a8 259A      		sbi 36-32,5
 116 00aa 0895      		ret
 117               	.L4:
 118               	.LM34:
 119 00ac 2598      		cbi 36-32,5
 120 00ae 0895      		ret
 121               	.LFE7:
 123               	.global	nRF24L01P_Set_MISO_DD
 125               	nRF24L01P_Set_MISO_DD:
 126               	.LFB8:
 127               	.LM35:
 128               	.LVL1:
 129               	/* prologue: function */
 130               	/* frame size = 0 */
 131               	.LM36:
 132 00b0 8823      		tst r24
 133 00b2 01F0      		breq .L8
 134               	.LM37:
 135 00b4 249A      		sbi 36-32,4
 136 00b6 0895      		ret
 137               	.L8:
 138               	.LM38:
 139 00b8 2498      		cbi 36-32,4
 140 00ba 0895      		ret
 141               	.LFE8:
 143               	.global	nRF24L01P_Set_MOSI_DD
 145               	nRF24L01P_Set_MOSI_DD:
 146               	.LFB9:
 147               	.LM39:
 148               	.LVL2:
 149               	/* prologue: function */
 150               	/* frame size = 0 */
 151               	.LM40:
 152 00bc 8823      		tst r24
 153 00be 01F0      		breq .L12
 154               	.LM41:
 155 00c0 239A      		sbi 36-32,3
 156 00c2 0895      		ret
 157               	.L12:
 158               	.LM42:
 159 00c4 2398      		cbi 36-32,3
 160 00c6 0895      		ret
 161               	.LFE9:
 163               	.global	nRF24L01P_Set_CSN_DD
 165               	nRF24L01P_Set_CSN_DD:
 166               	.LFB10:
 167               	.LM43:
 168               	.LVL3:
 169               	/* prologue: function */
 170               	/* frame size = 0 */
 171               	.LM44:
 172 00c8 8823      		tst r24
 173 00ca 01F0      		breq .L16
 174               	.LM45:
 175 00cc 229A      		sbi 36-32,2
 176 00ce 0895      		ret
 177               	.L16:
 178               	.LM46:
 179 00d0 2298      		cbi 36-32,2
 180 00d2 0895      		ret
 181               	.LFE10:
 183               	.global	nRF24L01P_Set_CE_DD
 185               	nRF24L01P_Set_CE_DD:
 186               	.LFB11:
 187               	.LM47:
 188               	.LVL4:
 189               	/* prologue: function */
 190               	/* frame size = 0 */
 191               	.LM48:
 192 00d4 8823      		tst r24
 193 00d6 01F0      		breq .L20
 194               	.LM49:
 195 00d8 219A      		sbi 36-32,1
 196 00da 0895      		ret
 197               	.L20:
 198               	.LM50:
 199 00dc 2198      		cbi 36-32,1
 200 00de 0895      		ret
 201               	.LFE11:
 203               	.global	nRF24L01P_Set_SCK
 205               	nRF24L01P_Set_SCK:
 206               	.LFB12:
 207               	.LM51:
 208               	.LVL5:
 209               	/* prologue: function */
 210               	/* frame size = 0 */
 211               	.LM52:
 212 00e0 8823      		tst r24
 213 00e2 01F0      		breq .L24
 214               	.LM53:
 215 00e4 2D9A      		sbi 37-32,5
 216 00e6 0895      		ret
 217               	.L24:
 218               	.LM54:
 219 00e8 2D98      		cbi 37-32,5
 220 00ea 0895      		ret
 221               	.LFE12:
 223               	.global	nRF24L01P_Set_MISO
 225               	nRF24L01P_Set_MISO:
 226               	.LFB13:
 227               	.LM55:
 228               	.LVL6:
 229               	/* prologue: function */
 230               	/* frame size = 0 */
 231               	.LM56:
 232 00ec 8823      		tst r24
 233 00ee 01F0      		breq .L28
 234               	.LM57:
 235 00f0 2C9A      		sbi 37-32,4
 236 00f2 0895      		ret
 237               	.L28:
 238               	.LM58:
 239 00f4 2C98      		cbi 37-32,4
 240 00f6 0895      		ret
 241               	.LFE13:
 243               	.global	nRF24L01P_Set_MOSI
 245               	nRF24L01P_Set_MOSI:
 246               	.LFB14:
 247               	.LM59:
 248               	.LVL7:
 249               	/* prologue: function */
 250               	/* frame size = 0 */
 251               	.LM60:
 252 00f8 8823      		tst r24
 253 00fa 01F0      		breq .L32
 254               	.LM61:
 255 00fc 2B9A      		sbi 37-32,3
 256 00fe 0895      		ret
 257               	.L32:
 258               	.LM62:
 259 0100 2B98      		cbi 37-32,3
 260 0102 0895      		ret
 261               	.LFE14:
 263               	.global	nRF24L01P_Set_CSN
 265               	nRF24L01P_Set_CSN:
 266               	.LFB15:
 267               	.LM63:
 268               	.LVL8:
 269               	/* prologue: function */
 270               	/* frame size = 0 */
 271               	.LM64:
 272 0104 8823      		tst r24
 273 0106 01F0      		breq .L36
 274               	.LM65:
 275 0108 2A9A      		sbi 37-32,2
 276 010a 0895      		ret
 277               	.L36:
 278               	.LM66:
 279 010c 2A98      		cbi 37-32,2
 280 010e 0895      		ret
 281               	.LFE15:
 283               	.global	nRF24L01P_Set_CE
 285               	nRF24L01P_Set_CE:
 286               	.LFB16:
 287               	.LM67:
 288               	.LVL9:
 289               	/* prologue: function */
 290               	/* frame size = 0 */
 291               	.LM68:
 292 0110 8823      		tst r24
 293 0112 01F0      		breq .L40
 294               	.LM69:
 295 0114 299A      		sbi 37-32,1
 296 0116 0895      		ret
 297               	.L40:
 298               	.LM70:
 299 0118 2998      		cbi 37-32,1
 300 011a 0895      		ret
 301               	.LFE16:
 303               	.global	nRF24L01P_GPIO_Enable
 305               	nRF24L01P_GPIO_Enable:
 306               	.LFB17:
 307               	.LM71:
 308               	/* prologue: function */
 309               	/* frame size = 0 */
 310               	.LBB247:
 311               	.LBB248:
 312               	.LM72:
 313 011c 259A      		sbi 36-32,5
 314               	.LBE248:
 315               	.LBE247:
 316               	.LBB249:
 317               	.LBB250:
 318               	.LM73:
 319 011e 2498      		cbi 36-32,4
 320               	.LBE250:
 321               	.LBE249:
 322               	.LBB251:
 323               	.LBB252:
 324               	.LM74:
 325 0120 239A      		sbi 36-32,3
 326               	.LBE252:
 327               	.LBE251:
 328               	.LBB253:
 329               	.LBB254:
 330               	.LM75:
 331 0122 229A      		sbi 36-32,2
 332               	.LBE254:
 333               	.LBE253:
 334               	.LBB255:
 335               	.LBB256:
 336               	.LM76:
 337 0124 219A      		sbi 36-32,1
 338               	.LBE256:
 339               	.LBE255:
 340               	.LBB257:
 341               	.LBB258:
 342               	.LM77:
 343 0126 2A9A      		sbi 37-32,2
 344               	.LBE258:
 345               	.LBE257:
 346               	.LBB259:
 347               	.LBB260:
 348               	.LM78:
 349 0128 2998      		cbi 37-32,1
 350               	.LBE260:
 351               	.LBE259:
 352               	.LM79:
 353 012a 229A      		sbi 36-32,2
 354               	/* epilogue start */
 355               	.LM80:
 356 012c 0895      		ret
 357               	.LFE17:
 359               	.global	nRF24L01P_GPIO_Disable
 361               	nRF24L01P_GPIO_Disable:
 362               	.LFB18:
 363               	.LM81:
 364               	/* prologue: function */
 365               	/* frame size = 0 */
 366               	.LBB261:
 367               	.LBB262:
 368               	.LM82:
 369 012e 259A      		sbi 36-32,5
 370               	.LBE262:
 371               	.LBE261:
 372               	.LBB263:
 373               	.LBB264:
 374               	.LM83:
 375 0130 249A      		sbi 36-32,4
 376               	.LBE264:
 377               	.LBE263:
 378               	.LBB265:
 379               	.LBB266:
 380               	.LM84:
 381 0132 239A      		sbi 36-32,3
 382               	.LBE266:
 383               	.LBE265:
 384               	.LBB267:
 385               	.LBB268:
 386               	.LM85:
 387 0134 229A      		sbi 36-32,2
 388               	.LBE268:
 389               	.LBE267:
 390               	.LBB269:
 391               	.LBB270:
 392               	.LM86:
 393 0136 219A      		sbi 36-32,1
 394               	.LBE270:
 395               	.LBE269:
 396               	.LBB271:
 397               	.LBB272:
 398               	.LM87:
 399 0138 2D98      		cbi 37-32,5
 400               	.LBE272:
 401               	.LBE271:
 402               	.LBB273:
 403               	.LBB274:
 404               	.LM88:
 405 013a 2C98      		cbi 37-32,4
 406               	.LBE274:
 407               	.LBE273:
 408               	.LBB275:
 409               	.LBB276:
 410               	.LM89:
 411 013c 2B98      		cbi 37-32,3
 412               	.LBE276:
 413               	.LBE275:
 414               	.LBB277:
 415               	.LBB278:
 416               	.LM90:
 417 013e 2A9A      		sbi 37-32,2
 418               	.LBE278:
 419               	.LBE277:
 420               	.LBB279:
 421               	.LBB280:
 422               	.LM91:
 423 0140 2998      		cbi 37-32,1
 424               	/* epilogue start */
 425               	.LBE280:
 426               	.LBE279:
 427               	.LM92:
 428 0142 0895      		ret
 429               	.LFE18:
 431               	.global	nRF24L01P_SPI_Enable
 433               	nRF24L01P_SPI_Enable:
 434               	.LFB19:
 435               	.LM93:
 436               	/* prologue: function */
 437               	/* frame size = 0 */
 438               	.LM94:
 439 0144 80E5      		ldi r24,lo8(80)
 440 0146 8CBD      		out 76-32,r24
 441               	.LM95:
 442 0148 81E0      		ldi r24,lo8(1)
 443 014a 8DBD      		out 77-32,r24
 444               	.LM96:
 445 014c 1DBC      		out 77-32,__zero_reg__
 446               	/* epilogue start */
 447               	.LM97:
 448 014e 0895      		ret
 449               	.LFE19:
 451               	.global	nRF24L01P_SPI_Disable
 453               	nRF24L01P_SPI_Disable:
 454               	.LFB20:
 455               	.LM98:
 456               	/* prologue: function */
 457               	/* frame size = 0 */
 458               	.LM99:
 459 0150 1CBC      		out 76-32,__zero_reg__
 460               	.LM100:
 461 0152 1DBC      		out 77-32,__zero_reg__
 462               	/* epilogue start */
 463               	.LM101:
 464 0154 0895      		ret
 465               	.LFE20:
 467               	.global	nRF24L01P_Enable
 469               	nRF24L01P_Enable:
 470               	.LFB21:
 471               	.LM102:
 472               	/* prologue: function */
 473               	/* frame size = 0 */
 474               	.LM103:
 475 0156 0E94 0000 		call nRF24L01P_GPIO_Enable
 476               	.LBB281:
 477               	.LBB282:
 478               	.LM104:
 479 015a 80E5      		ldi r24,lo8(80)
 480 015c 8CBD      		out 76-32,r24
 481               	.LM105:
 482 015e 81E0      		ldi r24,lo8(1)
 483 0160 8DBD      		out 77-32,r24
 484               	.LM106:
 485 0162 1DBC      		out 77-32,__zero_reg__
 486               	.LBE282:
 487               	.LBE281:
 488               	.LM107:
 489 0164 8093 0000 		sts nRF24L01P+1,r24
 490               	/* epilogue start */
 491               	.LM108:
 492 0168 0895      		ret
 493               	.LFE21:
 495               	.global	nRF24L01P_Disable
 497               	nRF24L01P_Disable:
 498               	.LFB22:
 499               	.LM109:
 500               	/* prologue: function */
 501               	/* frame size = 0 */
 502               	.LBB283:
 503               	.LBB284:
 504               	.LM110:
 505 016a 1CBC      		out 76-32,__zero_reg__
 506               	.LM111:
 507 016c 1DBC      		out 77-32,__zero_reg__
 508               	.LBE284:
 509               	.LBE283:
 510               	.LM112:
 511 016e 0E94 0000 		call nRF24L01P_GPIO_Disable
 512               	.LM113:
 513 0172 1092 0000 		sts nRF24L01P+1,__zero_reg__
 514               	/* epilogue start */
 515               	.LM114:
 516 0176 0895      		ret
 517               	.LFE22:
 519               	.global	nRF24L01P_Error_Clear
 521               	nRF24L01P_Error_Clear:
 522               	.LFB23:
 523               	.LM115:
 524               	/* prologue: function */
 525               	/* frame size = 0 */
 526               	.LM116:
 527 0178 1092 0000 		sts nRF24L01P+32,__zero_reg__
 528               	/* epilogue start */
 529               	.LM117:
 530 017c 0895      		ret
 531               	.LFE23:
 533               	.global	nRF24L01P_Error_Clear_Ticks
 535               	nRF24L01P_Error_Clear_Ticks:
 536               	.LFB24:
 537               	.LM118:
 538               	/* prologue: function */
 539               	/* frame size = 0 */
 540               	.LM119:
 541 017e 1092 0000 		sts (nRF24L01P+30)+1,__zero_reg__
 542 0182 1092 0000 		sts nRF24L01P+30,__zero_reg__
 543               	/* epilogue start */
 544               	.LM120:
 545 0186 0895      		ret
 546               	.LFE24:
 548               	.global	nRF24L01P_Error_Clear_Buf
 550               	nRF24L01P_Error_Clear_Buf:
 551               	.LFB25:
 552               	.LM121:
 553               	/* prologue: function */
 554               	/* frame size = 0 */
 555               	.LM122:
 556 0188 E0E0      		ldi r30,lo8(nRF24L01P+33)
 557 018a F0E0      		ldi r31,hi8(nRF24L01P+33)
 558               	.L60:
 559               	.LBB285:
 560               	.LM123:
 561 018c 1192      		st Z+,__zero_reg__
 562               	.LM124:
 563 018e 80E0      		ldi r24,hi8(nRF24L01P+43)
 564 0190 E030      		cpi r30,lo8(nRF24L01P+43)
 565 0192 F807      		cpc r31,r24
 566 0194 01F4      		brne .L60
 567               	/* epilogue start */
 568               	.LBE285:
 569               	.LM125:
 570 0196 0895      		ret
 571               	.LFE25:
 573               	.global	nRF24L01P_Error_Clear_All
 575               	nRF24L01P_Error_Clear_All:
 576               	.LFB26:
 577               	.LM126:
 578               	/* prologue: function */
 579               	/* frame size = 0 */
 580               	.LBB286:
 581               	.LBB287:
 582               	.LM127:
 583 0198 1092 0000 		sts nRF24L01P+32,__zero_reg__
 584               	.LBE287:
 585               	.LBE286:
 586               	.LBB288:
 587               	.LBB289:
 588               	.LM128:
 589 019c 1092 0000 		sts (nRF24L01P+30)+1,__zero_reg__
 590 01a0 1092 0000 		sts nRF24L01P+30,__zero_reg__
 591 01a4 E0E0      		ldi r30,lo8(nRF24L01P+33)
 592 01a6 F0E0      		ldi r31,hi8(nRF24L01P+33)
 593               	.L64:
 594               	.LBE289:
 595               	.LBE288:
 596               	.LBB290:
 597               	.LBB291:
 598               	.LBB292:
 599               	.LM129:
 600 01a8 1192      		st Z+,__zero_reg__
 601               	.LM130:
 602 01aa 80E0      		ldi r24,hi8(nRF24L01P+43)
 603 01ac E030      		cpi r30,lo8(nRF24L01P+43)
 604 01ae F807      		cpc r31,r24
 605 01b0 01F4      		brne .L64
 606               	/* epilogue start */
 607               	.LBE292:
 608               	.LBE291:
 609               	.LBE290:
 610               	.LM131:
 611 01b2 0895      		ret
 612               	.LFE26:
 614               	.global	nRF24L01P_Error_Set
 616               	nRF24L01P_Error_Set:
 617               	.LFB27:
 618               	.LM132:
 619               	.LVL10:
 620               	/* prologue: function */
 621               	/* frame size = 0 */
 622               	.LM133:
 623 01b4 8093 0000 		sts nRF24L01P+32,r24
 624               	/* epilogue start */
 625               	.LM134:
 626 01b8 0895      		ret
 627               	.LFE27:
 629               	.global	nRF24L01P_Error_Get
 631               	nRF24L01P_Error_Get:
 632               	.LFB28:
 633               	.LM135:
 634               	/* prologue: function */
 635               	/* frame size = 0 */
 636               	.LM136:
 637 01ba 8091 0000 		lds r24,nRF24L01P+32
 638               	/* epilogue start */
 639 01be 0895      		ret
 640               	.LFE28:
 642               	.global	nRF24L01P_Error_Get_Index
 644               	nRF24L01P_Error_Get_Index:
 645               	.LFB29:
 646               	.LM137:
 647               	.LVL11:
 648               	/* prologue: function */
 649               	/* frame size = 0 */
 650               	.LM138:
 651 01c0 E0E0      		ldi r30,lo8(nRF24L01P)
 652 01c2 F0E0      		ldi r31,hi8(nRF24L01P)
 653 01c4 E80F      		add r30,r24
 654 01c6 F11D      		adc r31,__zero_reg__
 655               	.LM139:
 656 01c8 81A1      		ldd r24,Z+33
 657               	.LVL12:
 658               	/* epilogue start */
 659 01ca 0895      		ret
 660               	.LFE29:
 662               	.global	nRF24L01P_Error_Timeout
 664               	nRF24L01P_Error_Timeout:
 665               	.LFB30:
 666               	.LM140:
 667               	.LVL13:
 668               	/* prologue: function */
 669               	/* frame size = 0 */
 670               	.LBB293:
 671               	.LBB294:
 672               	.LBB295:
 673               	.LBB296:
 674               	.LBB297:
 675               	.LBB298:
 676               	.LM141:
 677 01cc E8EC      		ldi r30,lo8(200)
 678 01ce F0E0      		ldi r31,hi8(200)
 679               	.LVL14:
 680               	/* #APP */
 681               	 ;  105 "c:/winavr-20100110/lib/gcc/../../avr/include/util/delay_basic.h" 1
 682 01d0 3197      		1: sbiw r30,1
 683 01d2 01F4      		brne 1b
 684               	 ;  0 "" 2
 685               	/* #NOAPP */
 686               	.LBE298:
 687               	.LBE297:
 688               	.LBE296:
 689               	.LBE295:
 690               	.LBE294:
 691               	.LBE293:
 692               	.LM142:
 693 01d4 2091 0000 		lds r18,nRF24L01P+30
 694 01d8 3091 0000 		lds r19,(nRF24L01P+30)+1
 695 01dc 2F5F      		subi r18,lo8(-(1))
 696 01de 3F4F      		sbci r19,hi8(-(1))
 697 01e0 3093 0000 		sts (nRF24L01P+30)+1,r19
 698 01e4 2093 0000 		sts nRF24L01P+30,r18
 699 01e8 40E0      		ldi r20,lo8(0)
 700 01ea 8217      		cp r24,r18
 701 01ec 9307      		cpc r25,r19
 702 01ee 00F4      		brsh .L74
 703 01f0 41E0      		ldi r20,lo8(1)
 704               	.L74:
 705               	.LM143:
 706 01f2 842F      		mov r24,r20
 707               	.LVL15:
 708               	/* epilogue start */
 709 01f4 0895      		ret
 710               	.LFE30:
 712               	.global	nRF24L01P_Error_Free
 714               	nRF24L01P_Error_Free:
 715               	.LFB31:
 716               	.LM144:
 717               	/* prologue: function */
 718               	/* frame size = 0 */
 719               	.LM145:
 720 01f6 90E0      		ldi r25,lo8(0)
 721 01f8 8091 0000 		lds r24,nRF24L01P+32
 722 01fc 8823      		tst r24
 723 01fe 01F4      		brne .L77
 724 0200 91E0      		ldi r25,lo8(1)
 725               	.L77:
 726               	.LM146:
 727 0202 892F      		mov r24,r25
 728               	/* epilogue start */
 729 0204 0895      		ret
 730               	.LFE31:
 732               	.global	nRF24L01P_CRC
 734               	nRF24L01P_CRC:
 735               	.LFB32:
 736               	.LM147:
 737               	.LVL16:
 738               	/* prologue: function */
 739               	/* frame size = 0 */
 740               	.LM148:
 741 0206 362F      		mov r19,r22
 742               	.LVL17:
 743 0208 20E0      		ldi r18,lo8(0)
 744               	.LVL18:
 745 020a 2827      		eor r18,r24
 746 020c 3927      		eor r19,r25
 747               	.LVL19:
 748 020e 40E0      		ldi r20,lo8(0)
 749               	.LVL20:
 750               	.LBB299:
 751               	.LM149:
 752 0210 61E2      		ldi r22,lo8(4129)
 753 0212 70E1      		ldi r23,hi8(4129)
 754               	.LVL21:
 755               	.L82:
 756 0214 C901      		movw r24,r18
 757 0216 880F      		lsl r24
 758 0218 991F      		rol r25
 759               	.LVL22:
 760               	.LM150:
 761 021a 37FF      		sbrs r19,7
 762 021c 00C0      		rjmp .L80
 763               	.LVL23:
 764               	.LM151:
 765 021e 9C01      		movw r18,r24
 766 0220 2627      		eor r18,r22
 767 0222 3727      		eor r19,r23
 768 0224 00C0      		rjmp .L81
 769               	.LVL24:
 770               	.L80:
 771               	.LM152:
 772 0226 9C01      		movw r18,r24
 773               	.L81:
 774               	.LM153:
 775 0228 4F5F      		subi r20,lo8(-(1))
 776 022a 4830      		cpi r20,lo8(8)
 777 022c 01F4      		brne .L82
 778               	.LBE299:
 779               	.LM154:
 780 022e C901      		movw r24,r18
 781               	.LVL25:
 782               	/* epilogue start */
 783 0230 0895      		ret
 784               	.LFE32:
 786               	.global	nRF24L01P_CRC_Block
 788               	nRF24L01P_CRC_Block:
 789               	.LFB33:
 790               	.LM155:
 791               	.LVL26:
 792 0232 0F93      		push r16
 793 0234 1F93      		push r17
 794 0236 CF93      		push r28
 795 0238 DF93      		push r29
 796               	/* prologue: function */
 797               	/* frame size = 0 */
 798 023a 062F      		mov r16,r22
 799               	.LM156:
 800 023c EC01      		movw r28,r24
 801               	.LVL27:
 802 023e 20E0      		ldi r18,lo8(0)
 803 0240 30E0      		ldi r19,hi8(0)
 804               	.LVL28:
 805 0242 10E0      		ldi r17,lo8(0)
 806               	.LVL29:
 807 0244 00C0      		rjmp .L86
 808               	.LVL30:
 809               	.L87:
 810               	.LBB300:
 811               	.LM157:
 812 0246 C901      		movw r24,r18
 813 0248 6991      		ld r22,Y+
 814 024a 0E94 0000 		call nRF24L01P_CRC
 815               	.LVL31:
 816 024e 9C01      		movw r18,r24
 817               	.LVL32:
 818               	.LM158:
 819 0250 1F5F      		subi r17,lo8(-(1))
 820               	.LVL33:
 821               	.L86:
 822 0252 1017      		cp r17,r16
 823 0254 00F0      		brlo .L87
 824               	.LBE300:
 825               	.LM159:
 826 0256 C901      		movw r24,r18
 827               	.LVL34:
 828               	/* epilogue start */
 829 0258 DF91      		pop r29
 830 025a CF91      		pop r28
 831 025c 1F91      		pop r17
 832               	.LVL35:
 833 025e 0F91      		pop r16
 834               	.LVL36:
 835 0260 0895      		ret
 836               	.LFE33:
 838               	.global	nRF24L01P_SPI_Transfer
 840               	nRF24L01P_SPI_Transfer:
 841               	.LFB34:
 842               	.LM160:
 843               	.LVL37:
 844               	/* prologue: function */
 845               	/* frame size = 0 */
 846 0262 982F      		mov r25,r24
 847               	.LBB301:
 848               	.LBB302:
 849               	.LM161:
 850 0264 8091 0000 		lds r24,nRF24L01P+32
 851               	.LVL38:
 852 0268 8823      		tst r24
 853 026a 01F4      		brne .L96
 854               	.L90:
 855               	.LBE302:
 856               	.LBE301:
 857               	.LBB303:
 858               	.LM162:
 859 026c 9EBD      		out 78-32,r25
 860 026e 90E0      		ldi r25,lo8(0)
 861               	.LVL39:
 862               	.LBB304:
 863               	.LBB305:
 864               	.LBB306:
 865               	.LBB307:
 866               	.LM163:
 867 0270 2AE1      		ldi r18,lo8(26)
 868 0272 00C0      		rjmp .L92
 869               	.LVL40:
 870               	.L93:
 871 0274 822F      		mov r24,r18
 872               	/* #APP */
 873               	 ;  83 "c:/winavr-20100110/lib/gcc/../../avr/include/util/delay_basic.h" 1
 874 0276 8A95      		1: dec r24
 875 0278 01F4      		brne 1b
 876               	 ;  0 "" 2
 877               	/* #NOAPP */
 878               	.LBE307:
 879               	.LBE306:
 880               	.LBE305:
 881               	.LBE304:
 882               	.LM164:
 883 027a 9F5F      		subi r25,lo8(-(1))
 884               	.LM165:
 885 027c 993C      		cpi r25,lo8(-55)
 886 027e 01F4      		brne .L92
 887               	.LBB308:
 888               	.LBB309:
 889               	.LM166:
 890 0280 81E0      		ldi r24,lo8(1)
 891               	.LVL41:
 892 0282 8093 0000 		sts nRF24L01P+32,r24
 893               	.LVL42:
 894               	.L96:
 895 0286 80E0      		ldi r24,lo8(0)
 896 0288 0895      		ret
 897               	.LVL43:
 898               	.L92:
 899               	.LBE309:
 900               	.LBE308:
 901               	.LM167:
 902 028a 0DB4      		in __tmp_reg__,77-32
 903 028c 07FE      		sbrs __tmp_reg__,7
 904 028e 00C0      		rjmp .L93
 905               	.LM168:
 906 0290 8EB5      		in r24,78-32
 907               	.LVL44:
 908               	.LBE303:
 909               	.LM169:
 910 0292 0895      		ret
 911               	.LFE34:
 913               	.global	nRF24L01P_ReadWrite_Register
 915               	nRF24L01P_ReadWrite_Register:
 916               	.LFB35:
 917               	.LM170:
 918               	.LVL45:
 919 0294 DF92      		push r13
 920 0296 EF92      		push r14
 921 0298 FF92      		push r15
 922 029a 0F93      		push r16
 923 029c 1F93      		push r17
 924 029e CF93      		push r28
 925 02a0 DF93      		push r29
 926               	/* prologue: function */
 927               	/* frame size = 0 */
 928 02a2 182F      		mov r17,r24
 929 02a4 062F      		mov r16,r22
 930 02a6 F42E      		mov r15,r20
 931 02a8 E52E      		mov r14,r21
 932               	.LVL46:
 933 02aa D22E      		mov r13,r18
 934               	.LBB310:
 935               	.LBB311:
 936               	.LM171:
 937 02ac 8091 0000 		lds r24,nRF24L01P+32
 938               	.LVL47:
 939 02b0 8823      		tst r24
 940 02b2 01F4      		brne .L106
 941               	.LVL48:
 942               	.LBE311:
 943               	.LBE310:
 944               	.LM172:
 945 02b4 8091 0000 		lds r24,nRF24L01P+1
 946 02b8 8823      		tst r24
 947 02ba 01F4      		brne .L99
 948               	.LM173:
 949 02bc 0E94 0000 		call nRF24L01P_Enable
 950               	.LVL49:
 951               	.L99:
 952               	.LBB312:
 953               	.LBB313:
 954               	.LM174:
 955 02c0 2A98      		cbi 37-32,2
 956               	.LBE313:
 957               	.LBE312:
 958               	.LM175:
 959 02c2 0023      		tst r16
 960 02c4 01F4      		brne .L100
 961               	.LM176:
 962 02c6 812F      		mov r24,r17
 963 02c8 8062      		ori r24,lo8(32)
 964 02ca 0E94 0000 		call nRF24L01P_SPI_Transfer
 965 02ce 8F2D      		mov r24,r15
 966 02d0 9E2D      		mov r25,r14
 967 02d2 9C01      		movw r18,r24
 968 02d4 E901      		movw r28,r18
 969 02d6 10E0      		ldi r17,lo8(0)
 970               	.LVL50:
 971 02d8 00C0      		rjmp .L101
 972               	.L102:
 973               	.LBB314:
 974               	.LM177:
 975 02da 8991      		ld r24,Y+
 976 02dc 0E94 0000 		call nRF24L01P_SPI_Transfer
 977               	.LM178:
 978 02e0 1F5F      		subi r17,lo8(-(1))
 979               	.L101:
 980 02e2 1D15      		cp r17,r13
 981 02e4 00F0      		brlo .L102
 982 02e6 00C0      		rjmp .L103
 983               	.LVL51:
 984               	.L100:
 985               	.LBE314:
 986               	.LM179:
 987 02e8 812F      		mov r24,r17
 988 02ea 0E94 0000 		call nRF24L01P_SPI_Transfer
 989 02ee 8F2D      		mov r24,r15
 990 02f0 9E2D      		mov r25,r14
 991 02f2 9C01      		movw r18,r24
 992 02f4 E901      		movw r28,r18
 993 02f6 10E0      		ldi r17,lo8(0)
 994               	.LVL52:
 995 02f8 00C0      		rjmp .L104
 996               	.L105:
 997               	.LBB315:
 998               	.LM180:
 999 02fa 8FEF      		ldi r24,lo8(-1)
 1000 02fc 0E94 0000 		call nRF24L01P_SPI_Transfer
 1001 0300 8993      		st Y+,r24
 1002               	.LM181:
 1003 0302 1F5F      		subi r17,lo8(-(1))
 1004               	.L104:
 1005 0304 1D15      		cp r17,r13
 1006 0306 00F0      		brlo .L105
 1007               	.LVL53:
 1008               	.L103:
 1009               	.LBE315:
 1010               	.LBB316:
 1011               	.LBB317:
 1012               	.LM182:
 1013 0308 2A9A      		sbi 37-32,2
 1014               	.LVL54:
 1015               	.L106:
 1016               	/* epilogue start */
 1017               	.LBE317:
 1018               	.LBE316:
 1019               	.LM183:
 1020 030a DF91      		pop r29
 1021 030c CF91      		pop r28
 1022 030e 1F91      		pop r17
 1023               	.LVL55:
 1024 0310 0F91      		pop r16
 1025               	.LVL56:
 1026 0312 FF90      		pop r15
 1027               	.LVL57:
 1028 0314 EF90      		pop r14
 1029               	.LVL58:
 1030 0316 DF90      		pop r13
 1031               	.LVL59:
 1032 0318 0895      		ret
 1033               	.LFE35:
 1035               	.global	nRF24L01P_ReadModifyWrite_Register
 1037               	nRF24L01P_ReadModifyWrite_Register:
 1038               	.LFB36:
 1039               	.LM184:
 1040               	.LVL60:
 1041 031a FF92      		push r15
 1042 031c 0F93      		push r16
 1043 031e 1F93      		push r17
 1044               	/* prologue: function */
 1045               	/* frame size = 0 */
 1046 0320 F82E      		mov r15,r24
 1047 0322 062F      		mov r16,r22
 1048 0324 142F      		mov r17,r20
 1049               	.LBB318:
 1050               	.LBB319:
 1051               	.LM185:
 1052 0326 8091 0000 		lds r24,nRF24L01P+32
 1053               	.LVL61:
 1054 032a 8823      		tst r24
 1055 032c 01F4      		brne .L111
 1056               	.LVL62:
 1057               	.LBE319:
 1058               	.LBE318:
 1059               	.LM186:
 1060 032e 8F2D      		mov r24,r15
 1061 0330 61E0      		ldi r22,lo8(1)
 1062 0332 40E0      		ldi r20,lo8(nRF24L01P+2)
 1063 0334 50E0      		ldi r21,hi8(nRF24L01P+2)
 1064 0336 21E0      		ldi r18,lo8(1)
 1065 0338 0E94 0000 		call nRF24L01P_ReadWrite_Register
 1066 033c 2091 0000 		lds r18,nRF24L01P+2
 1067               	.LM187:
 1068 0340 1123      		tst r17
 1069 0342 01F0      		breq .L109
 1070               	.LM188:
 1071 0344 81E0      		ldi r24,lo8(1)
 1072 0346 90E0      		ldi r25,hi8(1)
 1073 0348 00C0      		rjmp 2f
 1074 034a 880F      	1:	lsl r24
 1075 034c 991F      		rol r25
 1076 034e 0A95      	2:	dec r16
 1077 0350 02F4      		brpl 1b
 1078 0352 282B      		or r18,r24
 1079 0354 2093 0000 		sts nRF24L01P+2,r18
 1080 0358 00C0      		rjmp .L110
 1081               	.L109:
 1082               	.LM189:
 1083 035a 81E0      		ldi r24,lo8(1)
 1084 035c 90E0      		ldi r25,hi8(1)
 1085 035e 00C0      		rjmp 2f
 1086 0360 880F      	1:	lsl r24
 1087 0362 991F      		rol r25
 1088 0364 0A95      	2:	dec r16
 1089 0366 02F4      		brpl 1b
 1090 0368 8095      		com r24
 1091 036a 8223      		and r24,r18
 1092 036c 8093 0000 		sts nRF24L01P+2,r24
 1093               	.L110:
 1094               	.LM190:
 1095 0370 8F2D      		mov r24,r15
 1096 0372 60E0      		ldi r22,lo8(0)
 1097 0374 40E0      		ldi r20,lo8(nRF24L01P+2)
 1098 0376 50E0      		ldi r21,hi8(nRF24L01P+2)
 1099 0378 21E0      		ldi r18,lo8(1)
 1100 037a 0E94 0000 		call nRF24L01P_ReadWrite_Register
 1101               	.LVL63:
 1102               	.L111:
 1103               	/* epilogue start */
 1104               	.LM191:
 1105 037e 1F91      		pop r17
 1106               	.LVL64:
 1107 0380 0F91      		pop r16
 1108               	.LVL65:
 1109 0382 FF90      		pop r15
 1110               	.LVL66:
 1111 0384 0895      		ret
 1112               	.LFE36:
 1114               	.global	nRF24L01P_Flush_Tx_Buf
 1116               	nRF24L01P_Flush_Tx_Buf:
 1117               	.LFB37:
 1118               	.LM192:
 1119               	/* prologue: function */
 1120               	/* frame size = 0 */
 1121               	.LM193:
 1122 0386 81EE      		ldi r24,lo8(-31)
 1123 0388 60E0      		ldi r22,lo8(0)
 1124 038a 40E0      		ldi r20,lo8(nRF24L01P+2)
 1125 038c 50E0      		ldi r21,hi8(nRF24L01P+2)
 1126 038e 20E0      		ldi r18,lo8(0)
 1127 0390 0E94 0000 		call nRF24L01P_ReadWrite_Register
 1128               	.LBB320:
 1129               	.LBB321:
 1130               	.LM194:
 1131 0394 8091 0000 		lds r24,nRF24L01P+32
 1132 0398 8823      		tst r24
 1133 039a 01F0      		breq .L115
 1134               	.LBE321:
 1135               	.LBE320:
 1136               	.LBB322:
 1137               	.LBB323:
 1138               	.LM195:
 1139 039c 82E0      		ldi r24,lo8(2)
 1140 039e 8093 0000 		sts nRF24L01P+32,r24
 1141               	.L115:
 1142 03a2 0895      		ret
 1143               	.LBE323:
 1144               	.LBE322:
 1145               	.LFE37:
 1147               	.global	nRF24L01P_Flush_Rx_Buf
 1149               	nRF24L01P_Flush_Rx_Buf:
 1150               	.LFB38:
 1151               	.LM196:
 1152               	/* prologue: function */
 1153               	/* frame size = 0 */
 1154               	.LM197:
 1155 03a4 82EE      		ldi r24,lo8(-30)
 1156 03a6 60E0      		ldi r22,lo8(0)
 1157 03a8 40E0      		ldi r20,lo8(nRF24L01P+2)
 1158 03aa 50E0      		ldi r21,hi8(nRF24L01P+2)
 1159 03ac 20E0      		ldi r18,lo8(0)
 1160 03ae 0E94 0000 		call nRF24L01P_ReadWrite_Register
 1161               	.LBB324:
 1162               	.LBB325:
 1163               	.LM198:
 1164 03b2 8091 0000 		lds r24,nRF24L01P+32
 1165 03b6 8823      		tst r24
 1166 03b8 01F0      		breq .L119
 1167               	.LBE325:
 1168               	.LBE324:
 1169               	.LBB326:
 1170               	.LBB327:
 1171               	.LM199:
 1172 03ba 83E0      		ldi r24,lo8(3)
 1173 03bc 8093 0000 		sts nRF24L01P+32,r24
 1174               	.L119:
 1175 03c0 0895      		ret
 1176               	.LBE327:
 1177               	.LBE326:
 1178               	.LFE38:
 1180               	.global	nRF24L01P_Write_Data_Tx_Buf
 1182               	nRF24L01P_Write_Data_Tx_Buf:
 1183               	.LFB39:
 1184               	.LM200:
 1185               	.LVL67:
 1186               	/* prologue: function */
 1187               	/* frame size = 0 */
 1188 03c2 AC01      		movw r20,r24
 1189               	.LM201:
 1190 03c4 80EA      		ldi r24,lo8(-96)
 1191               	.LVL68:
 1192 03c6 60E0      		ldi r22,lo8(0)
 1193 03c8 20E2      		ldi r18,lo8(32)
 1194 03ca 0E94 0000 		call nRF24L01P_ReadWrite_Register
 1195               	.LVL69:
 1196               	.LBB328:
 1197               	.LBB329:
 1198               	.LM202:
 1199 03ce 8091 0000 		lds r24,nRF24L01P+32
 1200 03d2 8823      		tst r24
 1201 03d4 01F0      		breq .L123
 1202               	.LBE329:
 1203               	.LBE328:
 1204               	.LBB330:
 1205               	.LBB331:
 1206               	.LM203:
 1207 03d6 84E0      		ldi r24,lo8(4)
 1208 03d8 8093 0000 		sts nRF24L01P+32,r24
 1209               	.L123:
 1210 03dc 0895      		ret
 1211               	.LBE331:
 1212               	.LBE330:
 1213               	.LFE39:
 1215               	.global	nRF24L01P_Read_Data_Rx_Buf
 1217               	nRF24L01P_Read_Data_Rx_Buf:
 1218               	.LFB40:
 1219               	.LM204:
 1220               	.LVL70:
 1221               	/* prologue: function */
 1222               	/* frame size = 0 */
 1223 03de AC01      		movw r20,r24
 1224               	.LM205:
 1225 03e0 81E6      		ldi r24,lo8(97)
 1226               	.LVL71:
 1227 03e2 61E0      		ldi r22,lo8(1)
 1228 03e4 20E2      		ldi r18,lo8(32)
 1229 03e6 0E94 0000 		call nRF24L01P_ReadWrite_Register
 1230               	.LVL72:
 1231               	.LBB332:
 1232               	.LBB333:
 1233               	.LM206:
 1234 03ea 8091 0000 		lds r24,nRF24L01P+32
 1235 03ee 8823      		tst r24
 1236 03f0 01F0      		breq .L127
 1237               	.LBE333:
 1238               	.LBE332:
 1239               	.LBB334:
 1240               	.LBB335:
 1241               	.LM207:
 1242 03f2 85E0      		ldi r24,lo8(5)
 1243 03f4 8093 0000 		sts nRF24L01P+32,r24
 1244               	.L127:
 1245 03f8 0895      		ret
 1246               	.LBE335:
 1247               	.LBE334:
 1248               	.LFE40:
 1250               	.global	nRF24L01P_Tx_Buf_Empty
 1252               	nRF24L01P_Tx_Buf_Empty:
 1253               	.LFB41:
 1254               	.LM208:
 1255               	/* prologue: function */
 1256               	/* frame size = 0 */
 1257               	.LBB336:
 1258               	.LBB337:
 1259               	.LM209:
 1260 03fa 8091 0000 		lds r24,nRF24L01P+32
 1261 03fe 8823      		tst r24
 1262 0400 01F0      		breq .L129
 1263 0402 80E0      		ldi r24,lo8(0)
 1264 0404 0895      		ret
 1265               	.L129:
 1266               	.LBE337:
 1267               	.LBE336:
 1268               	.LM210:
 1269 0406 1092 0000 		sts nRF24L01P+2,__zero_reg__
 1270               	.LM211:
 1271 040a 87E1      		ldi r24,lo8(23)
 1272 040c 61E0      		ldi r22,lo8(1)
 1273 040e 40E0      		ldi r20,lo8(nRF24L01P+2)
 1274 0410 50E0      		ldi r21,hi8(nRF24L01P+2)
 1275 0412 21E0      		ldi r18,lo8(1)
 1276 0414 0E94 0000 		call nRF24L01P_ReadWrite_Register
 1277 0418 8091 0000 		lds r24,nRF24L01P+2
 1278 041c 90E0      		ldi r25,lo8(0)
 1279 041e 64E0      		ldi r22,4
 1280 0420 9695      	1:	lsr r25
 1281 0422 8795      		ror r24
 1282 0424 6A95      		dec r22
 1283 0426 01F4      		brne 1b
 1284 0428 8170      		andi r24,lo8(1)
 1285               	.LM212:
 1286 042a 0895      		ret
 1287               	.LFE41:
 1289               	.global	nRF24L01P_Rx_Buf_Not_Empty
 1291               	nRF24L01P_Rx_Buf_Not_Empty:
 1292               	.LFB42:
 1293               	.LM213:
 1294               	/* prologue: function */
 1295               	/* frame size = 0 */
 1296               	.LBB338:
 1297               	.LBB339:
 1298               	.LM214:
 1299 042c 8091 0000 		lds r24,nRF24L01P+32
 1300 0430 8823      		tst r24
 1301 0432 01F0      		breq .L133
 1302 0434 80E0      		ldi r24,lo8(0)
 1303 0436 0895      		ret
 1304               	.L133:
 1305               	.LBE339:
 1306               	.LBE338:
 1307               	.LM215:
 1308 0438 1092 0000 		sts nRF24L01P+2,__zero_reg__
 1309               	.LM216:
 1310 043c 87E1      		ldi r24,lo8(23)
 1311 043e 61E0      		ldi r22,lo8(1)
 1312 0440 40E0      		ldi r20,lo8(nRF24L01P+2)
 1313 0442 50E0      		ldi r21,hi8(nRF24L01P+2)
 1314 0444 21E0      		ldi r18,lo8(1)
 1315 0446 0E94 0000 		call nRF24L01P_ReadWrite_Register
 1316 044a 8091 0000 		lds r24,nRF24L01P+2
 1317 044e 8095      		com r24
 1318 0450 8170      		andi r24,lo8(1)
 1319               	.LM217:
 1320 0452 0895      		ret
 1321               	.LFE42:
 1323               	.global	nRF24L01P_Wait_Tx_Complete
 1325               	nRF24L01P_Wait_Tx_Complete:
 1326               	.LFB43:
 1327               	.LM218:
 1328 0454 CF93      		push r28
 1329 0456 DF93      		push r29
 1330               	/* prologue: function */
 1331               	/* frame size = 0 */
 1332               	.LBB340:
 1333               	.LBB341:
 1334               	.LM219:
 1335 0458 8091 0000 		lds r24,nRF24L01P+32
 1336 045c 8823      		tst r24
 1337 045e 01F4      		brne .L143
 1338               	.L137:
 1339               	.LBE341:
 1340               	.LBE340:
 1341               	.LBB342:
 1342               	.LBB343:
 1343               	.LM220:
 1344 0460 1092 0000 		sts (nRF24L01P+30)+1,__zero_reg__
 1345 0464 1092 0000 		sts nRF24L01P+30,__zero_reg__
 1346               	.LBE343:
 1347               	.LBE342:
 1348               	.LBB344:
 1349               	.LBB345:
 1350               	.LBB346:
 1351               	.LBB347:
 1352               	.LBB348:
 1353               	.LBB349:
 1354               	.LBB350:
 1355               	.LBB351:
 1356               	.LM221:
 1357 0468 C8EC      		ldi r28,lo8(200)
 1358 046a D0E0      		ldi r29,hi8(200)
 1359 046c 00C0      		rjmp .L139
 1360               	.L140:
 1361 046e CE01      		movw r24,r28
 1362               	.LVL73:
 1363               	/* #APP */
 1364               	 ;  105 "c:/winavr-20100110/lib/gcc/../../avr/include/util/delay_basic.h" 1
 1365 0470 0197      		1: sbiw r24,1
 1366 0472 01F4      		brne 1b
 1367               	 ;  0 "" 2
 1368               	/* #NOAPP */
 1369               	.LBE351:
 1370               	.LBE350:
 1371               	.LBE349:
 1372               	.LBE348:
 1373               	.LBE347:
 1374               	.LBE346:
 1375               	.LM222:
 1376 0474 8091 0000 		lds r24,nRF24L01P+30
 1377 0478 9091 0000 		lds r25,(nRF24L01P+30)+1
 1378               	.LVL74:
 1379 047c 0196      		adiw r24,1
 1380 047e 9093 0000 		sts (nRF24L01P+30)+1,r25
 1381 0482 8093 0000 		sts nRF24L01P+30,r24
 1382               	.LM223:
 1383 0486 8536      		cpi r24,101
 1384 0488 9105      		cpc r25,__zero_reg__
 1385 048a 00F0      		brlo .L139
 1386               	.LBE345:
 1387               	.LBE344:
 1388               	.LBB352:
 1389               	.LBB353:
 1390               	.LM224:
 1391 048c 86E0      		ldi r24,lo8(6)
 1392 048e 8093 0000 		sts nRF24L01P+32,r24
 1393               	.L143:
 1394 0492 80E0      		ldi r24,lo8(0)
 1395 0494 00C0      		rjmp .L138
 1396               	.L139:
 1397               	.LBE353:
 1398               	.LBE352:
 1399               	.LM225:
 1400 0496 0E94 0000 		call nRF24L01P_Tx_Buf_Empty
 1401 049a 8823      		tst r24
 1402 049c 01F0      		breq .L140
 1403 049e 81E0      		ldi r24,lo8(1)
 1404               	.L138:
 1405               	/* epilogue start */
 1406               	.LM226:
 1407 04a0 DF91      		pop r29
 1408 04a2 CF91      		pop r28
 1409 04a4 0895      		ret
 1410               	.LFE43:
 1412               	.global	nRF24L01P_Mode_Set_DeepSleep
 1414               	nRF24L01P_Mode_Set_DeepSleep:
 1415               	.LFB44:
 1416               	.LM227:
 1417               	/* prologue: function */
 1418               	/* frame size = 0 */
 1419               	.LBB354:
 1420               	.LBB355:
 1421               	.LM228:
 1422 04a6 8091 0000 		lds r24,nRF24L01P+32
 1423 04aa 8823      		tst r24
 1424 04ac 01F4      		brne .L145
 1425               	.LBE355:
 1426               	.LBE354:
 1427               	.LM229:
 1428 04ae 1092 0000 		sts nRF24L01P+2,__zero_reg__
 1429               	.LM230:
 1430 04b2 60E0      		ldi r22,lo8(0)
 1431 04b4 40E0      		ldi r20,lo8(nRF24L01P+2)
 1432 04b6 50E0      		ldi r21,hi8(nRF24L01P+2)
 1433 04b8 21E0      		ldi r18,lo8(1)
 1434 04ba 0E94 0000 		call nRF24L01P_ReadWrite_Register
 1435               	.LM231:
 1436 04be 1092 0000 		sts nRF24L01P,__zero_reg__
 1437               	.L145:
 1438               	.LM232:
 1439 04c2 0E94 0000 		call nRF24L01P_Disable
 1440               	/* epilogue start */
 1441               	.LM233:
 1442 04c6 0895      		ret
 1443               	.LFE44:
 1445               	.global	nRF24L01P_Mode_Set_Sleep
 1447               	nRF24L01P_Mode_Set_Sleep:
 1448               	.LFB45:
 1449               	.LM234:
 1450               	/* prologue: function */
 1451               	/* frame size = 0 */
 1452               	.LM235:
 1453 04c8 8091 0000 		lds r24,nRF24L01P+1
 1454 04cc 8823      		tst r24
 1455 04ce 01F4      		brne .L148
 1456               	.LM236:
 1457 04d0 0E94 0000 		call nRF24L01P_Enable
 1458               	.L148:
 1459               	.LBB356:
 1460               	.LBB357:
 1461               	.LM237:
 1462 04d4 8091 0000 		lds r24,nRF24L01P+32
 1463 04d8 8823      		tst r24
 1464 04da 01F4      		brne .L150
 1465               	.LBE357:
 1466               	.LBE356:
 1467               	.LM238:
 1468 04dc 1092 0000 		sts nRF24L01P+2,__zero_reg__
 1469               	.LBB358:
 1470               	.LBB359:
 1471               	.LM239:
 1472 04e0 2998      		cbi 37-32,1
 1473               	.LBE359:
 1474               	.LBE358:
 1475               	.LM240:
 1476 04e2 60E0      		ldi r22,lo8(0)
 1477 04e4 40E0      		ldi r20,lo8(nRF24L01P+2)
 1478 04e6 50E0      		ldi r21,hi8(nRF24L01P+2)
 1479 04e8 21E0      		ldi r18,lo8(1)
 1480 04ea 0E94 0000 		call nRF24L01P_ReadWrite_Register
 1481               	.LM241:
 1482 04ee 81E0      		ldi r24,lo8(1)
 1483 04f0 8093 0000 		sts nRF24L01P,r24
 1484               	.L150:
 1485 04f4 0895      		ret
 1486               	.LFE45:
 1488               	.global	nRF24L01P_Mode_Set_Rx
 1490               	nRF24L01P_Mode_Set_Rx:
 1491               	.LFB46:
 1492               	.LM242:
 1493               	/* prologue: function */
 1494               	/* frame size = 0 */
 1495               	.LM243:
 1496 04f6 8091 0000 		lds r24,nRF24L01P+1
 1497 04fa 8823      		tst r24
 1498 04fc 01F4      		brne .L152
 1499               	.LM244:
 1500 04fe 0E94 0000 		call nRF24L01P_Enable
 1501               	.L152:
 1502               	.LBB360:
 1503               	.LBB361:
 1504               	.LM245:
 1505 0502 8091 0000 		lds r24,nRF24L01P+32
 1506 0506 8823      		tst r24
 1507 0508 01F4      		brne .L154
 1508               	.LBE361:
 1509               	.LBE360:
 1510               	.LM246:
 1511 050a 83E7      		ldi r24,lo8(115)
 1512 050c 8093 0000 		sts nRF24L01P+2,r24
 1513               	.LBB362:
 1514               	.LBB363:
 1515               	.LM247:
 1516 0510 299A      		sbi 37-32,1
 1517               	.LBE363:
 1518               	.LBE362:
 1519               	.LM248:
 1520 0512 80E0      		ldi r24,lo8(0)
 1521 0514 60E0      		ldi r22,lo8(0)
 1522 0516 40E0      		ldi r20,lo8(nRF24L01P+2)
 1523 0518 50E0      		ldi r21,hi8(nRF24L01P+2)
 1524 051a 21E0      		ldi r18,lo8(1)
 1525 051c 0E94 0000 		call nRF24L01P_ReadWrite_Register
 1526               	.LM249:
 1527 0520 82E0      		ldi r24,lo8(2)
 1528 0522 8093 0000 		sts nRF24L01P,r24
 1529               	.L154:
 1530 0526 0895      		ret
 1531               	.LFE46:
 1533               	.global	nRF24L01P_Mode_Set_Tx
 1535               	nRF24L01P_Mode_Set_Tx:
 1536               	.LFB47:
 1537               	.LM250:
 1538               	/* prologue: function */
 1539               	/* frame size = 0 */
 1540               	.LM251:
 1541 0528 8091 0000 		lds r24,nRF24L01P+1
 1542 052c 8823      		tst r24
 1543 052e 01F4      		brne .L156
 1544               	.LM252:
 1545 0530 0E94 0000 		call nRF24L01P_Enable
 1546               	.L156:
 1547               	.LBB364:
 1548               	.LBB365:
 1549               	.LM253:
 1550 0534 8091 0000 		lds r24,nRF24L01P+32
 1551 0538 8823      		tst r24
 1552 053a 01F4      		brne .L158
 1553               	.LBE365:
 1554               	.LBE364:
 1555               	.LM254:
 1556 053c 82E7      		ldi r24,lo8(114)
 1557 053e 8093 0000 		sts nRF24L01P+2,r24
 1558               	.LBB366:
 1559               	.LBB367:
 1560               	.LM255:
 1561 0542 2998      		cbi 37-32,1
 1562               	.LBE367:
 1563               	.LBE366:
 1564               	.LM256:
 1565 0544 80E0      		ldi r24,lo8(0)
 1566 0546 60E0      		ldi r22,lo8(0)
 1567 0548 40E0      		ldi r20,lo8(nRF24L01P+2)
 1568 054a 50E0      		ldi r21,hi8(nRF24L01P+2)
 1569 054c 21E0      		ldi r18,lo8(1)
 1570 054e 0E94 0000 		call nRF24L01P_ReadWrite_Register
 1571               	.LBB368:
 1572               	.LBB369:
 1573               	.LM257:
 1574 0552 299A      		sbi 37-32,1
 1575               	.LBE369:
 1576               	.LBE368:
 1577               	.LM258:
 1578 0554 83E0      		ldi r24,lo8(3)
 1579 0556 8093 0000 		sts nRF24L01P,r24
 1580               	.L158:
 1581 055a 0895      		ret
 1582               	.LFE47:
 1584               	.global	nRF24L01P_Mode_Set
 1586               	nRF24L01P_Mode_Set:
 1587               	.LFB48:
 1588               	.LM259:
 1589               	.LVL75:
 1590               	/* prologue: function */
 1591               	/* frame size = 0 */
 1592 055c 982F      		mov r25,r24
 1593               	.LBB370:
 1594               	.LBB371:
 1595               	.LM260:
 1596 055e 8091 0000 		lds r24,nRF24L01P+32
 1597               	.LVL76:
 1598 0562 8823      		tst r24
 1599 0564 01F4      		brne .L165
 1600               	.LBE371:
 1601               	.LBE370:
 1602               	.LM261:
 1603 0566 9923      		tst r25
 1604 0568 01F4      		brne .L161
 1605               	.LM262:
 1606 056a 0E94 0000 		call nRF24L01P_Mode_Set_DeepSleep
 1607               	.LVL77:
 1608 056e 0895      		ret
 1609               	.LVL78:
 1610               	.L161:
 1611               	.LM263:
 1612 0570 9130      		cpi r25,lo8(1)
 1613 0572 01F4      		brne .L162
 1614               	.LM264:
 1615 0574 0E94 0000 		call nRF24L01P_Mode_Set_Sleep
 1616               	.LVL79:
 1617 0578 0895      		ret
 1618               	.LVL80:
 1619               	.L162:
 1620               	.LM265:
 1621 057a 9230      		cpi r25,lo8(2)
 1622 057c 01F4      		brne .L163
 1623               	.LM266:
 1624 057e 0E94 0000 		call nRF24L01P_Mode_Set_Rx
 1625               	.LVL81:
 1626 0582 0895      		ret
 1627               	.LVL82:
 1628               	.L163:
 1629               	.LM267:
 1630 0584 9330      		cpi r25,lo8(3)
 1631 0586 01F4      		brne .L164
 1632               	.LM268:
 1633 0588 0E94 0000 		call nRF24L01P_Mode_Set_Tx
 1634               	.LVL83:
 1635 058c 0895      		ret
 1636               	.LVL84:
 1637               	.L164:
 1638               	.LM269:
 1639 058e 0E94 0000 		call nRF24L01P_Mode_Set_Rx
 1640               	.LVL85:
 1641               	.L165:
 1642 0592 0895      		ret
 1643               	.LFE48:
 1645               	.global	nRF24L01P_Mode_Get
 1647               	nRF24L01P_Mode_Get:
 1648               	.LFB49:
 1649               	.LM270:
 1650               	/* prologue: function */
 1651               	/* frame size = 0 */
 1652               	.LBB372:
 1653               	.LBB373:
 1654               	.LM271:
 1655 0594 8091 0000 		lds r24,nRF24L01P+32
 1656 0598 8823      		tst r24
 1657 059a 01F0      		breq .L167
 1658 059c 80E0      		ldi r24,lo8(0)
 1659 059e 0895      		ret
 1660               	.L167:
 1661               	.LBE373:
 1662               	.LBE372:
 1663               	.LM272:
 1664 05a0 80E0      		ldi r24,lo8(0)
 1665 05a2 61E0      		ldi r22,lo8(1)
 1666 05a4 40E0      		ldi r20,lo8(nRF24L01P+2)
 1667 05a6 50E0      		ldi r21,hi8(nRF24L01P+2)
 1668 05a8 21E0      		ldi r18,lo8(1)
 1669 05aa 0E94 0000 		call nRF24L01P_ReadWrite_Register
 1670               	.LM273:
 1671 05ae 8091 0000 		lds r24,nRF24L01P+2
 1672 05b2 81FF      		sbrs r24,1
 1673 05b4 00C0      		rjmp .L169
 1674               	.LM274:
 1675 05b6 80FF      		sbrs r24,0
 1676 05b8 00C0      		rjmp .L170
 1677               	.LM275:
 1678 05ba 82E0      		ldi r24,lo8(2)
 1679 05bc 00C0      		rjmp .L172
 1680               	.L170:
 1681               	.LM276:
 1682 05be 83E0      		ldi r24,lo8(3)
 1683               	.L172:
 1684 05c0 8093 0000 		sts nRF24L01P,r24
 1685 05c4 0895      		ret
 1686               	.L169:
 1687               	.LM277:
 1688 05c6 81E0      		ldi r24,lo8(1)
 1689 05c8 8093 0000 		sts nRF24L01P,r24
 1690               	.LM278:
 1691 05cc 0895      		ret
 1692               	.LFE49:
 1694               	.global	nRF24L01P_Channel_Set
 1696               	nRF24L01P_Channel_Set:
 1697               	.LFB50:
 1698               	.LM279:
 1699               	.LVL86:
 1700               	/* prologue: function */
 1701               	/* frame size = 0 */
 1702 05ce 982F      		mov r25,r24
 1703               	.LBB374:
 1704               	.LBB375:
 1705               	.LM280:
 1706 05d0 8091 0000 		lds r24,nRF24L01P+32
 1707               	.LVL87:
 1708 05d4 8823      		tst r24
 1709 05d6 01F4      		brne .L176
 1710               	.LBE375:
 1711               	.LBE374:
 1712               	.LM281:
 1713 05d8 892F      		mov r24,r25
 1714 05da 9937      		cpi r25,lo8(121)
 1715 05dc 00F0      		brlo .L175
 1716 05de 88E7      		ldi r24,lo8(120)
 1717               	.LVL88:
 1718               	.L175:
 1719 05e0 8093 0000 		sts nRF24L01P+2,r24
 1720               	.LM282:
 1721 05e4 85E0      		ldi r24,lo8(5)
 1722               	.LVL89:
 1723 05e6 60E0      		ldi r22,lo8(0)
 1724 05e8 40E0      		ldi r20,lo8(nRF24L01P+2)
 1725 05ea 50E0      		ldi r21,hi8(nRF24L01P+2)
 1726 05ec 21E0      		ldi r18,lo8(1)
 1727 05ee 0E94 0000 		call nRF24L01P_ReadWrite_Register
 1728               	.LVL90:
 1729               	.L176:
 1730 05f2 0895      		ret
 1731               	.LFE50:
 1733               	.global	nRF24L01P_Channel_Get
 1735               	nRF24L01P_Channel_Get:
 1736               	.LFB51:
 1737               	.LM283:
 1738               	/* prologue: function */
 1739               	/* frame size = 0 */
 1740               	.LBB376:
 1741               	.LBB377:
 1742               	.LM284:
 1743 05f4 8091 0000 		lds r24,nRF24L01P+32
 1744 05f8 8823      		tst r24
 1745 05fa 01F0      		breq .L178
 1746 05fc 80E0      		ldi r24,lo8(0)
 1747 05fe 0895      		ret
 1748               	.L178:
 1749               	.LBE377:
 1750               	.LBE376:
 1751               	.LM285:
 1752 0600 85E0      		ldi r24,lo8(5)
 1753 0602 61E0      		ldi r22,lo8(1)
 1754 0604 40E0      		ldi r20,lo8(nRF24L01P+2)
 1755 0606 50E0      		ldi r21,hi8(nRF24L01P+2)
 1756 0608 21E0      		ldi r18,lo8(1)
 1757 060a 0E94 0000 		call nRF24L01P_ReadWrite_Register
 1758               	.LM286:
 1759 060e 8091 0000 		lds r24,nRF24L01P+2
 1760               	.LM287:
 1761 0612 0895      		ret
 1762               	.LFE51:
 1764               	.global	nRF24L01P_Speed_Set
 1766               	nRF24L01P_Speed_Set:
 1767               	.LFB52:
 1768               	.LM288:
 1769               	.LVL91:
 1770               	/* prologue: function */
 1771               	/* frame size = 0 */
 1772               	.LM289:
 1773 0614 8823      		tst r24
 1774 0616 01F4      		brne .L182
 1775               	.LM290:
 1776 0618 86E0      		ldi r24,lo8(6)
 1777               	.LVL92:
 1778 061a 65E0      		ldi r22,lo8(5)
 1779 061c 41E0      		ldi r20,lo8(1)
 1780 061e 00C0      		rjmp .L188
 1781               	.LVL93:
 1782               	.L182:
 1783               	.LM291:
 1784 0620 8130      		cpi r24,lo8(1)
 1785 0622 01F4      		brne .L184
 1786               	.LM292:
 1787 0624 86E0      		ldi r24,lo8(6)
 1788               	.LVL94:
 1789 0626 65E0      		ldi r22,lo8(5)
 1790 0628 40E0      		ldi r20,lo8(0)
 1791               	.L188:
 1792 062a 0E94 0000 		call nRF24L01P_ReadModifyWrite_Register
 1793               	.LM293:
 1794 062e 86E0      		ldi r24,lo8(6)
 1795 0630 63E0      		ldi r22,lo8(3)
 1796 0632 40E0      		ldi r20,lo8(0)
 1797 0634 00C0      		rjmp .L187
 1798               	.LVL95:
 1799               	.L184:
 1800               	.LM294:
 1801 0636 86E0      		ldi r24,lo8(6)
 1802               	.LVL96:
 1803 0638 65E0      		ldi r22,lo8(5)
 1804 063a 40E0      		ldi r20,lo8(0)
 1805 063c 0E94 0000 		call nRF24L01P_ReadModifyWrite_Register
 1806               	.LM295:
 1807 0640 86E0      		ldi r24,lo8(6)
 1808 0642 63E0      		ldi r22,lo8(3)
 1809 0644 41E0      		ldi r20,lo8(1)
 1810               	.L187:
 1811 0646 0E94 0000 		call nRF24L01P_ReadModifyWrite_Register
 1812 064a 0895      		ret
 1813               	.LFE52:
 1815               	.global	nRF24L01P_Speed_Get
 1817               	nRF24L01P_Speed_Get:
 1818               	.LFB53:
 1819               	.LM296:
 1820               	/* prologue: function */
 1821               	/* frame size = 0 */
 1822               	.LBB378:
 1823               	.LBB379:
 1824               	.LM297:
 1825 064c 8091 0000 		lds r24,nRF24L01P+32
 1826 0650 8823      		tst r24
 1827 0652 01F0      		breq .L190
 1828 0654 80E0      		ldi r24,lo8(0)
 1829 0656 0895      		ret
 1830               	.L190:
 1831               	.LBE379:
 1832               	.LBE378:
 1833               	.LM298:
 1834 0658 86E0      		ldi r24,lo8(6)
 1835 065a 61E0      		ldi r22,lo8(1)
 1836 065c 40E0      		ldi r20,lo8(nRF24L01P+2)
 1837 065e 50E0      		ldi r21,hi8(nRF24L01P+2)
 1838 0660 21E0      		ldi r18,lo8(1)
 1839 0662 0E94 0000 		call nRF24L01P_ReadWrite_Register
 1840               	.LM299:
 1841 0666 9091 0000 		lds r25,nRF24L01P+2
 1842               	.LM300:
 1843 066a 892F      		mov r24,r25
 1844 066c 8295      		swap r24
 1845 066e 8270      		andi r24,lo8(2)
 1846 0670 8093 0000 		sts nRF24L01P+2,r24
 1847               	.LM301:
 1848 0674 9695      		lsr r25
 1849 0676 9695      		lsr r25
 1850 0678 9695      		lsr r25
 1851 067a 9170      		andi r25,lo8(1)
 1852 067c 982B      		or r25,r24
 1853 067e 9093 0000 		sts nRF24L01P+3,r25
 1854               	.LM302:
 1855 0682 9230      		cpi r25,lo8(2)
 1856 0684 01F4      		brne .L192
 1857               	.LM303:
 1858 0686 1092 0000 		sts nRF24L01P+2,__zero_reg__
 1859 068a 00C0      		rjmp .L193
 1860               	.L192:
 1861               	.LM304:
 1862 068c 9130      		cpi r25,lo8(1)
 1863 068e 01F4      		brne .L194
 1864               	.LM305:
 1865 0690 9093 0000 		sts nRF24L01P+2,r25
 1866 0694 00C0      		rjmp .L193
 1867               	.L194:
 1868               	.LM306:
 1869 0696 9923      		tst r25
 1870 0698 01F4      		brne .L193
 1871               	.LM307:
 1872 069a 82E0      		ldi r24,lo8(2)
 1873 069c 8093 0000 		sts nRF24L01P+2,r24
 1874               	.L193:
 1875               	.LM308:
 1876 06a0 8091 0000 		lds r24,nRF24L01P+2
 1877               	.LM309:
 1878 06a4 0895      		ret
 1879               	.LFE53:
 1881               	.global	nRF24L01P_Tx_Power_Set
 1883               	nRF24L01P_Tx_Power_Set:
 1884               	.LFB54:
 1885               	.LM310:
 1886               	.LVL97:
 1887               	/* prologue: function */
 1888               	/* frame size = 0 */
 1889 06a6 982F      		mov r25,r24
 1890               	.LBB380:
 1891               	.LBB381:
 1892               	.LM311:
 1893 06a8 8091 0000 		lds r24,nRF24L01P+32
 1894               	.LVL98:
 1895 06ac 8823      		tst r24
 1896 06ae 01F4      		brne .L202
 1897               	.LBE381:
 1898               	.LBE380:
 1899               	.LM312:
 1900 06b0 9923      		tst r25
 1901 06b2 01F4      		brne .L198
 1902               	.LM313:
 1903 06b4 86E0      		ldi r24,lo8(6)
 1904 06b6 62E0      		ldi r22,lo8(2)
 1905 06b8 40E0      		ldi r20,lo8(0)
 1906 06ba 00C0      		rjmp .L204
 1907               	.L198:
 1908               	.LM314:
 1909 06bc 9130      		cpi r25,lo8(1)
 1910 06be 01F4      		brne .L199
 1911               	.LM315:
 1912 06c0 86E0      		ldi r24,lo8(6)
 1913 06c2 62E0      		ldi r22,lo8(2)
 1914 06c4 40E0      		ldi r20,lo8(0)
 1915 06c6 00C0      		rjmp .L205
 1916               	.L199:
 1917               	.LM316:
 1918 06c8 9230      		cpi r25,lo8(2)
 1919 06ca 01F4      		brne .L200
 1920               	.LM317:
 1921 06cc 86E0      		ldi r24,lo8(6)
 1922 06ce 62E0      		ldi r22,lo8(2)
 1923 06d0 41E0      		ldi r20,lo8(1)
 1924               	.L204:
 1925 06d2 0E94 0000 		call nRF24L01P_ReadModifyWrite_Register
 1926               	.LVL99:
 1927               	.LM318:
 1928 06d6 86E0      		ldi r24,lo8(6)
 1929 06d8 61E0      		ldi r22,lo8(1)
 1930 06da 40E0      		ldi r20,lo8(0)
 1931 06dc 00C0      		rjmp .L203
 1932               	.LVL100:
 1933               	.L200:
 1934               	.LM319:
 1935 06de 9330      		cpi r25,lo8(3)
 1936 06e0 01F4      		brne .L201
 1937               	.LM320:
 1938 06e2 86E0      		ldi r24,lo8(6)
 1939 06e4 62E0      		ldi r22,lo8(2)
 1940 06e6 41E0      		ldi r20,lo8(1)
 1941               	.L205:
 1942 06e8 0E94 0000 		call nRF24L01P_ReadModifyWrite_Register
 1943               	.LVL101:
 1944               	.LM321:
 1945 06ec 86E0      		ldi r24,lo8(6)
 1946 06ee 61E0      		ldi r22,lo8(1)
 1947 06f0 41E0      		ldi r20,lo8(1)
 1948               	.L203:
 1949 06f2 0E94 0000 		call nRF24L01P_ReadModifyWrite_Register
 1950 06f6 0895      		ret
 1951               	.LVL102:
 1952               	.L201:
 1953               	.LM322:
 1954 06f8 86E0      		ldi r24,lo8(6)
 1955 06fa 62E0      		ldi r22,lo8(2)
 1956 06fc 41E0      		ldi r20,lo8(1)
 1957 06fe 0E94 0000 		call nRF24L01P_ReadModifyWrite_Register
 1958               	.LVL103:
 1959               	.LM323:
 1960 0702 86E0      		ldi r24,lo8(6)
 1961 0704 61E0      		ldi r22,lo8(1)
 1962 0706 41E0      		ldi r20,lo8(1)
 1963 0708 0E94 0000 		call nRF24L01P_ReadModifyWrite_Register
 1964               	.LVL104:
 1965               	.L202:
 1966 070c 0895      		ret
 1967               	.LFE54:
 1969               	.global	nRF24L01P_Tx_Power_Get
 1971               	nRF24L01P_Tx_Power_Get:
 1972               	.LFB55:
 1973               	.LM324:
 1974               	/* prologue: function */
 1975               	/* frame size = 0 */
 1976               	.LBB382:
 1977               	.LBB383:
 1978               	.LM325:
 1979 070e 8091 0000 		lds r24,nRF24L01P+32
 1980 0712 8823      		tst r24
 1981 0714 01F0      		breq .L207
 1982 0716 80E0      		ldi r24,lo8(0)
 1983 0718 0895      		ret
 1984               	.L207:
 1985               	.LBE383:
 1986               	.LBE382:
 1987               	.LM326:
 1988 071a 86E0      		ldi r24,lo8(6)
 1989 071c 61E0      		ldi r22,lo8(1)
 1990 071e 40E0      		ldi r20,lo8(nRF24L01P+2)
 1991 0720 50E0      		ldi r21,hi8(nRF24L01P+2)
 1992 0722 21E0      		ldi r18,lo8(1)
 1993 0724 0E94 0000 		call nRF24L01P_ReadWrite_Register
 1994               	.LM327:
 1995 0728 8091 0000 		lds r24,nRF24L01P+2
 1996 072c 8695      		lsr r24
 1997 072e 8370      		andi r24,lo8(3)
 1998 0730 8093 0000 		sts nRF24L01P+2,r24
 1999               	.LM328:
 2000 0734 0895      		ret
 2001               	.LFE55:
 2003               	.global	nRF24L01P_Own_Addr_Set
 2005               	nRF24L01P_Own_Addr_Set:
 2006               	.LFB56:
 2007               	.LM329:
 2008               	.LVL105:
 2009               	/* prologue: function */
 2010               	/* frame size = 0 */
 2011               	.LM330:
 2012 0736 8093 0000 		sts nRF24L01P+4,r24
 2013               	/* epilogue start */
 2014               	.LM331:
 2015 073a 0895      		ret
 2016               	.LFE56:
 2018               	.global	nRF24L01P_Own_Addr_Get
 2020               	nRF24L01P_Own_Addr_Get:
 2021               	.LFB57:
 2022               	.LM332:
 2023               	/* prologue: function */
 2024               	/* frame size = 0 */
 2025               	.LM333:
 2026 073c 8091 0000 		lds r24,nRF24L01P+4
 2027               	/* epilogue start */
 2028 0740 0895      		ret
 2029               	.LFE57:
 2031               	.global	nRF24L01P_Dest_Addr_Set
 2033               	nRF24L01P_Dest_Addr_Set:
 2034               	.LFB58:
 2035               	.LM334:
 2036               	.LVL106:
 2037               	/* prologue: function */
 2038               	/* frame size = 0 */
 2039               	.LM335:
 2040 0742 8093 0000 		sts nRF24L01P+5,r24
 2041               	/* epilogue start */
 2042               	.LM336:
 2043 0746 0895      		ret
 2044               	.LFE58:
 2046               	.global	nRF24L01P_Dest_Addr_Get
 2048               	nRF24L01P_Dest_Addr_Get:
 2049               	.LFB59:
 2050               	.LM337:
 2051               	/* prologue: function */
 2052               	/* frame size = 0 */
 2053               	.LM338:
 2054 0748 8091 0000 		lds r24,nRF24L01P+5
 2055               	/* epilogue start */
 2056 074c 0895      		ret
 2057               	.LFE59:
 2059               	.global	nRF24L01P_RxTicks_Set
 2061               	nRF24L01P_RxTicks_Set:
 2062               	.LFB60:
 2063               	.LM339:
 2064               	.LVL107:
 2065               	/* prologue: function */
 2066               	/* frame size = 0 */
 2067               	.LM340:
 2068 074e 9093 0000 		sts (nRF24L01P+8)+1,r25
 2069 0752 8093 0000 		sts nRF24L01P+8,r24
 2070               	/* epilogue start */
 2071               	.LM341:
 2072 0756 0895      		ret
 2073               	.LFE60:
 2075               	.global	nRF24L01P_RxTicks_Get
 2077               	nRF24L01P_RxTicks_Get:
 2078               	.LFB61:
 2079               	.LM342:
 2080               	/* prologue: function */
 2081               	/* frame size = 0 */
 2082               	.LM343:
 2083 0758 8091 0000 		lds r24,nRF24L01P+8
 2084 075c 9091 0000 		lds r25,nRF24L01P+9
 2085               	/* epilogue start */
 2086 0760 0895      		ret
 2087               	.LFE61:
 2089               	.global	nRF24L01P_RxTimeout_Set
 2091               	nRF24L01P_RxTimeout_Set:
 2092               	.LFB62:
 2093               	.LM344:
 2094               	.LVL108:
 2095               	/* prologue: function */
 2096               	/* frame size = 0 */
 2097               	.LM345:
 2098 0762 9093 0000 		sts (nRF24L01P+6)+1,r25
 2099 0766 8093 0000 		sts nRF24L01P+6,r24
 2100               	/* epilogue start */
 2101               	.LM346:
 2102 076a 0895      		ret
 2103               	.LFE62:
 2105               	.global	nRF24L01P_RxTimeout_Get
 2107               	nRF24L01P_RxTimeout_Get:
 2108               	.LFB63:
 2109               	.LM347:
 2110               	/* prologue: function */
 2111               	/* frame size = 0 */
 2112               	.LM348:
 2113 076c 8091 0000 		lds r24,nRF24L01P+6
 2114 0770 9091 0000 		lds r25,nRF24L01P+7
 2115               	/* epilogue start */
 2116 0774 0895      		ret
 2117               	.LFE63:
 2119               	.global	nRF24L01P_MaxRetransmission_Set
 2121               	nRF24L01P_MaxRetransmission_Set:
 2122               	.LFB64:
 2123               	.LM349:
 2124               	.LVL109:
 2125               	/* prologue: function */
 2126               	/* frame size = 0 */
 2127               	.LM350:
 2128 0776 9093 0000 		sts (nRF24L01P+11)+1,r25
 2129 077a 8093 0000 		sts nRF24L01P+11,r24
 2130               	/* epilogue start */
 2131               	.LM351:
 2132 077e 0895      		ret
 2133               	.LFE64:
 2135               	.global	nRF24L01P_MaxRetransmission_Get
 2137               	nRF24L01P_MaxRetransmission_Get:
 2138               	.LFB65:
 2139               	.LM352:
 2140               	/* prologue: function */
 2141               	/* frame size = 0 */
 2142               	.LM353:
 2143 0780 8091 0000 		lds r24,nRF24L01P+11
 2144 0784 9091 0000 		lds r25,nRF24L01P+12
 2145               	/* epilogue start */
 2146 0788 0895      		ret
 2147               	.LFE65:
 2149               	.global	nRF24L01P_Tx_Basic
 2151               	nRF24L01P_Tx_Basic:
 2152               	.LFB66:
 2153               	.LM354:
 2154               	.LVL110:
 2155 078a FF92      		push r15
 2156 078c 0F93      		push r16
 2157 078e 1F93      		push r17
 2158               	/* prologue: function */
 2159               	/* frame size = 0 */
 2160 0790 8C01      		movw r16,r24
 2161 0792 F62E      		mov r15,r22
 2162               	.LBB384:
 2163               	.LBB385:
 2164               	.LM355:
 2165 0794 1092 0000 		sts nRF24L01P+32,__zero_reg__
 2166               	.LBE385:
 2167               	.LBE384:
 2168               	.LM356:
 2169 0798 0E94 0000 		call nRF24L01P_Flush_Tx_Buf
 2170               	.LVL111:
 2171               	.LM357:
 2172 079c 8091 0000 		lds r24,nRF24L01P+29
 2173 07a0 F801      		movw r30,r16
 2174 07a2 E80F      		add r30,r24
 2175 07a4 F11D      		adc r31,__zero_reg__
 2176 07a6 8091 0000 		lds r24,nRF24L01P+19
 2177 07aa 8083      		st Z,r24
 2178               	.LM358:
 2179 07ac 8091 0000 		lds r24,nRF24L01P+27
 2180 07b0 F801      		movw r30,r16
 2181 07b2 E80F      		add r30,r24
 2182 07b4 F11D      		adc r31,__zero_reg__
 2183 07b6 8091 0000 		lds r24,nRF24L01P+15
 2184 07ba 8083      		st Z,r24
 2185               	.LM359:
 2186 07bc 8091 0000 		lds r24,nRF24L01P+26
 2187 07c0 F801      		movw r30,r16
 2188 07c2 E80F      		add r30,r24
 2189 07c4 F11D      		adc r31,__zero_reg__
 2190 07c6 8091 0000 		lds r24,nRF24L01P+18
 2191 07ca 8083      		st Z,r24
 2192               	.LM360:
 2193 07cc 8091 0000 		lds r24,nRF24L01P+25
 2194 07d0 F801      		movw r30,r16
 2195 07d2 E80F      		add r30,r24
 2196 07d4 F11D      		adc r31,__zero_reg__
 2197 07d6 8091 0000 		lds r24,nRF24L01P+4
 2198 07da 8083      		st Z,r24
 2199               	.LM361:
 2200 07dc 8091 0000 		lds r24,nRF24L01P+24
 2201 07e0 F801      		movw r30,r16
 2202 07e2 E80F      		add r30,r24
 2203 07e4 F11D      		adc r31,__zero_reg__
 2204 07e6 8091 0000 		lds r24,nRF24L01P+5
 2205 07ea 8083      		st Z,r24
 2206               	.LM362:
 2207 07ec 8091 0000 		lds r24,nRF24L01P+23
 2208 07f0 F801      		movw r30,r16
 2209 07f2 E80F      		add r30,r24
 2210 07f4 F11D      		adc r31,__zero_reg__
 2211 07f6 F082      		st Z,r15
 2212               	.LM363:
 2213 07f8 C801      		movw r24,r16
 2214 07fa 6091 0000 		lds r22,nRF24L01P+28
 2215 07fe 0E94 0000 		call nRF24L01P_CRC_Block
 2216               	.LM364:
 2217 0802 2091 0000 		lds r18,nRF24L01P+21
 2218 0806 F801      		movw r30,r16
 2219 0808 E20F      		add r30,r18
 2220 080a F11D      		adc r31,__zero_reg__
 2221 080c 9083      		st Z,r25
 2222               	.LM365:
 2223 080e 9091 0000 		lds r25,nRF24L01P+22
 2224 0812 F801      		movw r30,r16
 2225 0814 E90F      		add r30,r25
 2226 0816 F11D      		adc r31,__zero_reg__
 2227 0818 8083      		st Z,r24
 2228               	.LM366:
 2229 081a C801      		movw r24,r16
 2230 081c 0E94 0000 		call nRF24L01P_Write_Data_Tx_Buf
 2231               	.LM367:
 2232 0820 83E0      		ldi r24,lo8(3)
 2233 0822 0E94 0000 		call nRF24L01P_Mode_Set
 2234               	.LM368:
 2235 0826 0E94 0000 		call nRF24L01P_Wait_Tx_Complete
 2236               	/* epilogue start */
 2237               	.LM369:
 2238 082a 1F91      		pop r17
 2239 082c 0F91      		pop r16
 2240               	.LVL112:
 2241 082e FF90      		pop r15
 2242               	.LVL113:
 2243 0830 0895      		ret
 2244               	.LFE66:
 2246               	.global	nRF24L01P_Rx_Basic
 2248               	nRF24L01P_Rx_Basic:
 2249               	.LFB67:
 2250               	.LM370:
 2251               	.LVL114:
 2252 0832 CF92      		push r12
 2253 0834 DF92      		push r13
 2254 0836 EF92      		push r14
 2255 0838 FF92      		push r15
 2256 083a 0F93      		push r16
 2257 083c 1F93      		push r17
 2258 083e CF93      		push r28
 2259 0840 DF93      		push r29
 2260               	/* prologue: function */
 2261               	/* frame size = 0 */
 2262 0842 EC01      		movw r28,r24
 2263               	.LBB386:
 2264               	.LBB387:
 2265               	.LM371:
 2266 0844 1092 0000 		sts nRF24L01P+32,__zero_reg__
 2267               	.LBE387:
 2268               	.LBE386:
 2269               	.LBB388:
 2270               	.LBB389:
 2271               	.LM372:
 2272 0848 1092 0000 		sts (nRF24L01P+8)+1,__zero_reg__
 2273 084c 1092 0000 		sts nRF24L01P+8,__zero_reg__
 2274               	.LBE389:
 2275               	.LBE388:
 2276               	.LBB390:
 2277               	.LBB391:
 2278               	.LBB392:
 2279               	.LBB393:
 2280               	.LBB394:
 2281               	.LBB395:
 2282               	.LM373:
 2283 0850 78EC      		ldi r23,lo8(200)
 2284 0852 C72E      		mov r12,r23
 2285 0854 D12C      		mov r13,__zero_reg__
 2286 0856 00C0      		rjmp .L240
 2287               	.LVL115:
 2288               	.L236:
 2289               	.LBE395:
 2290               	.LBE394:
 2291               	.LBE393:
 2292               	.LBE392:
 2293               	.LBE391:
 2294               	.LBE390:
 2295               	.LM374:
 2296 0858 0E94 0000 		call nRF24L01P_Rx_Buf_Not_Empty
 2297 085c 8823      		tst r24
 2298 085e 01F0      		breq .L234
 2299               	.LBB401:
 2300               	.LM375:
 2301 0860 CE01      		movw r24,r28
 2302 0862 0E94 0000 		call nRF24L01P_Read_Data_Rx_Buf
 2303               	.LM376:
 2304 0866 8091 0000 		lds r24,nRF24L01P+21
 2305 086a FE01      		movw r30,r28
 2306 086c E80F      		add r30,r24
 2307 086e F11D      		adc r31,__zero_reg__
 2308               	.LM377:
 2309 0870 F080      		ld r15,Z
 2310               	.LVL116:
 2311 0872 EE24      		clr r14
 2312               	.LVL117:
 2313               	.LM378:
 2314 0874 8091 0000 		lds r24,nRF24L01P+22
 2315 0878 FE01      		movw r30,r28
 2316 087a E80F      		add r30,r24
 2317 087c F11D      		adc r31,__zero_reg__
 2318 087e 0081      		ld r16,Z
 2319 0880 10E0      		ldi r17,lo8(0)
 2320               	.LVL118:
 2321 0882 0E29      		or r16,r14
 2322 0884 1F29      		or r17,r15
 2323               	.LVL119:
 2324               	.LM379:
 2325 0886 CE01      		movw r24,r28
 2326 0888 6091 0000 		lds r22,nRF24L01P+28
 2327 088c 0E94 0000 		call nRF24L01P_CRC_Block
 2328               	.LM380:
 2329 0890 0817      		cp r16,r24
 2330 0892 1907      		cpc r17,r25
 2331 0894 01F4      		brne .L240
 2332               	.LM381:
 2333 0896 8091 0000 		lds r24,nRF24L01P+27
 2334 089a FE01      		movw r30,r28
 2335 089c E80F      		add r30,r24
 2336 089e F11D      		adc r31,__zero_reg__
 2337 08a0 8081      		ld r24,Z
 2338 08a2 8093 0000 		sts nRF24L01P+16,r24
 2339               	.LM382:
 2340 08a6 8091 0000 		lds r24,nRF24L01P+29
 2341 08aa C80F      		add r28,r24
 2342 08ac D11D      		adc r29,__zero_reg__
 2343 08ae 8881      		ld r24,Y
 2344 08b0 8093 0000 		sts nRF24L01P+19,r24
 2345 08b4 81E0      		ldi r24,lo8(1)
 2346               	.LVL120:
 2347 08b6 00C0      		rjmp .L235
 2348               	.LVL121:
 2349               	.L234:
 2350               	.LBE401:
 2351               	.LBB402:
 2352               	.LBB400:
 2353               	.LBB399:
 2354               	.LBB398:
 2355               	.LBB397:
 2356               	.LBB396:
 2357               	.LM383:
 2358 08b8 C601      		movw r24,r12
 2359               	.LVL122:
 2360               	/* #APP */
 2361               	 ;  105 "c:/winavr-20100110/lib/gcc/../../avr/include/util/delay_basic.h" 1
 2362 08ba 0197      		1: sbiw r24,1
 2363 08bc 01F4      		brne 1b
 2364               	 ;  0 "" 2
 2365               	/* #NOAPP */
 2366               	.LBE396:
 2367               	.LBE397:
 2368               	.LBE398:
 2369               	.LBE399:
 2370               	.LBE400:
 2371               	.LBE402:
 2372               	.LM384:
 2373 08be 8091 0000 		lds r24,nRF24L01P+8
 2374 08c2 9091 0000 		lds r25,(nRF24L01P+8)+1
 2375               	.LVL123:
 2376 08c6 0196      		adiw r24,1
 2377 08c8 9093 0000 		sts (nRF24L01P+8)+1,r25
 2378 08cc 8093 0000 		sts nRF24L01P+8,r24
 2379               	.LVL124:
 2380               	.L240:
 2381               	.LM385:
 2382 08d0 2091 0000 		lds r18,nRF24L01P+8
 2383 08d4 3091 0000 		lds r19,(nRF24L01P+8)+1
 2384 08d8 8091 0000 		lds r24,nRF24L01P+6
 2385 08dc 9091 0000 		lds r25,(nRF24L01P+6)+1
 2386 08e0 2817      		cp r18,r24
 2387 08e2 3907      		cpc r19,r25
 2388 08e4 00F4      		brsh .+2
 2389 08e6 00C0      		rjmp .L236
 2390 08e8 80E0      		ldi r24,lo8(0)
 2391               	.LVL125:
 2392               	.L235:
 2393               	.LVL126:
 2394               	/* epilogue start */
 2395               	.LM386:
 2396 08ea DF91      		pop r29
 2397 08ec CF91      		pop r28
 2398               	.LVL127:
 2399 08ee 1F91      		pop r17
 2400               	.LVL128:
 2401 08f0 0F91      		pop r16
 2402               	.LVL129:
 2403 08f2 FF90      		pop r15
 2404 08f4 EF90      		pop r14
 2405 08f6 DF90      		pop r13
 2406 08f8 CF90      		pop r12
 2407 08fa 0895      		ret
 2408               	.LFE67:
 2410               	.global	nRF24L01P_Tx_With_Ack
 2412               	nRF24L01P_Tx_With_Ack:
 2413               	.LFB68:
 2414               	.LM387:
 2415               	.LVL130:
 2416 08fc EF92      		push r14
 2417 08fe FF92      		push r15
 2418 0900 0F93      		push r16
 2419 0902 1F93      		push r17
 2420 0904 DF93      		push r29
 2421 0906 CF93      		push r28
 2422 0908 CDB7      		in r28,__SP_L__
 2423 090a DEB7      		in r29,__SP_H__
 2424 090c A097      		sbiw r28,32
 2425 090e 0FB6      		in __tmp_reg__,__SREG__
 2426 0910 F894      		cli
 2427 0912 DEBF      		out __SP_H__,r29
 2428 0914 0FBE      		out __SREG__,__tmp_reg__
 2429 0916 CDBF      		out __SP_L__,r28
 2430               	/* prologue: function */
 2431               	/* frame size = 32 */
 2432               	.LBB403:
 2433               	.LBB404:
 2434               	.LM388:
 2435 0918 E090 0000 		lds r14,nRF24L01P+6
 2436 091c F090 0000 		lds r15,(nRF24L01P+6)+1
 2437               	.LVL131:
 2438               	.LBE404:
 2439               	.LBE403:
 2440               	.LBB405:
 2441               	.LBB406:
 2442               	.LM389:
 2443 0920 25E0      		ldi r18,lo8(5)
 2444 0922 30E0      		ldi r19,hi8(5)
 2445 0924 3093 0000 		sts (nRF24L01P+6)+1,r19
 2446 0928 2093 0000 		sts nRF24L01P+6,r18
 2447               	.LBE406:
 2448               	.LBE405:
 2449               	.LM390:
 2450 092c 0E94 0000 		call nRF24L01P_Tx_Basic
 2451               	.LVL132:
 2452               	.LM391:
 2453 0930 8091 0000 		lds r24,nRF24L01P+18
 2454 0934 8823      		tst r24
 2455 0936 01F0      		breq .L242
 2456               	.LM392:
 2457 0938 8E01      		movw r16,r28
 2458 093a 0F5F      		subi r16,lo8(-(1))
 2459 093c 1F4F      		sbci r17,hi8(-(1))
 2460 093e C801      		movw r24,r16
 2461 0940 0E94 0000 		call nRF24L01P_Rx_Basic
 2462 0944 8823      		tst r24
 2463 0946 01F0      		breq .L242
 2464               	.LM393:
 2465 0948 8091 0000 		lds r24,nRF24L01P+24
 2466 094c 080F      		add r16,r24
 2467 094e 111D      		adc r17,__zero_reg__
 2468 0950 9091 0000 		lds r25,nRF24L01P+4
 2469 0954 F801      		movw r30,r16
 2470 0956 8081      		ld r24,Z
 2471 0958 9817      		cp r25,r24
 2472 095a 01F4      		brne .L242
 2473 095c 81E0      		ldi r24,lo8(1)
 2474               	.LVL133:
 2475 095e 00C0      		rjmp .L243
 2476               	.LVL134:
 2477               	.L242:
 2478 0960 80E0      		ldi r24,lo8(0)
 2479               	.LVL135:
 2480               	.L243:
 2481               	.LBB407:
 2482               	.LBB408:
 2483               	.LM394:
 2484 0962 F092 0000 		sts (nRF24L01P+6)+1,r15
 2485 0966 E092 0000 		sts nRF24L01P+6,r14
 2486               	.LVL136:
 2487               	/* epilogue start */
 2488               	.LBE408:
 2489               	.LBE407:
 2490               	.LM395:
 2491 096a A096      		adiw r28,32
 2492 096c 0FB6      		in __tmp_reg__,__SREG__
 2493 096e F894      		cli
 2494 0970 DEBF      		out __SP_H__,r29
 2495 0972 0FBE      		out __SREG__,__tmp_reg__
 2496 0974 CDBF      		out __SP_L__,r28
 2497 0976 CF91      		pop r28
 2498 0978 DF91      		pop r29
 2499 097a 1F91      		pop r17
 2500 097c 0F91      		pop r16
 2501 097e FF90      		pop r15
 2502 0980 EF90      		pop r14
 2503               	.LVL137:
 2504 0982 0895      		ret
 2505               	.LFE68:
 2507               	.global	nRF24L01P_Rx_With_Ack
 2509               	nRF24L01P_Rx_With_Ack:
 2510               	.LFB69:
 2511               	.LM396:
 2512               	.LVL138:
 2513 0984 0F93      		push r16
 2514 0986 1F93      		push r17
 2515 0988 DF93      		push r29
 2516 098a CF93      		push r28
 2517 098c CDB7      		in r28,__SP_L__
 2518 098e DEB7      		in r29,__SP_H__
 2519 0990 A097      		sbiw r28,32
 2520 0992 0FB6      		in __tmp_reg__,__SREG__
 2521 0994 F894      		cli
 2522 0996 DEBF      		out __SP_H__,r29
 2523 0998 0FBE      		out __SREG__,__tmp_reg__
 2524 099a CDBF      		out __SP_L__,r28
 2525               	/* prologue: function */
 2526               	/* frame size = 32 */
 2527 099c 8C01      		movw r16,r24
 2528               	.LM397:
 2529 099e 8EE7      		ldi r24,lo8(8281726)
 2530 09a0 9EE5      		ldi r25,hi8(8281726)
 2531 09a2 AEE7      		ldi r26,hlo8(8281726)
 2532 09a4 B0E0      		ldi r27,hhi8(8281726)
 2533               	.LVL139:
 2534 09a6 8983      		std Y+1,r24
 2535 09a8 9A83      		std Y+2,r25
 2536 09aa AB83      		std Y+3,r26
 2537 09ac BC83      		std Y+4,r27
 2538 09ae FE01      		movw r30,r28
 2539 09b0 3596      		adiw r30,5
 2540 09b2 8CE1      		ldi r24,lo8(28)
 2541 09b4 DF01      		movw r26,r30
 2542 09b6 1D92      		st X+,__zero_reg__
 2543 09b8 8A95      	        dec r24
 2544 09ba 01F4      		brne .-6
 2545               	.LM398:
 2546 09bc C801      		movw r24,r16
 2547 09be 0E94 0000 		call nRF24L01P_Rx_Basic
 2548 09c2 8823      		tst r24
 2549 09c4 01F0      		breq .L246
 2550               	.LM399:
 2551 09c6 8091 0000 		lds r24,nRF24L01P+26
 2552 09ca F801      		movw r30,r16
 2553 09cc E80F      		add r30,r24
 2554 09ce F11D      		adc r31,__zero_reg__
 2555 09d0 8081      		ld r24,Z
 2556 09d2 80FF      		sbrs r24,0
 2557 09d4 00C0      		rjmp .L246
 2558 09d6 8091 0000 		lds r24,nRF24L01P+24
 2559 09da F801      		movw r30,r16
 2560 09dc E80F      		add r30,r24
 2561 09de F11D      		adc r31,__zero_reg__
 2562 09e0 9091 0000 		lds r25,nRF24L01P+4
 2563 09e4 8081      		ld r24,Z
 2564 09e6 9817      		cp r25,r24
 2565 09e8 01F4      		brne .L246
 2566               	.LBB409:
 2567               	.LBB410:
 2568               	.LBB411:
 2569               	.LBB412:
 2570               	.LBB413:
 2571               	.LBB414:
 2572               	.LM400:
 2573 09ea 88EE      		ldi r24,lo8(1000)
 2574 09ec 93E0      		ldi r25,hi8(1000)
 2575               	.LVL140:
 2576               	/* #APP */
 2577               	 ;  105 "c:/winavr-20100110/lib/gcc/../../avr/include/util/delay_basic.h" 1
 2578 09ee 0197      		1: sbiw r24,1
 2579 09f0 01F4      		brne 1b
 2580               	 ;  0 "" 2
 2581               	/* #NOAPP */
 2582               	.LBE414:
 2583               	.LBE413:
 2584               	.LBE412:
 2585               	.LBE411:
 2586               	.LBE410:
 2587               	.LBE409:
 2588               	.LBB415:
 2589               	.LBB416:
 2590               	.LM401:
 2591 09f2 8091 0000 		lds r24,nRF24L01P+25
 2592               	.LVL141:
 2593 09f6 F801      		movw r30,r16
 2594 09f8 E80F      		add r30,r24
 2595 09fa F11D      		adc r31,__zero_reg__
 2596 09fc 8081      		ld r24,Z
 2597 09fe 8093 0000 		sts nRF24L01P+5,r24
 2598               	.LBE416:
 2599               	.LBE415:
 2600               	.LM402:
 2601 0a02 8091 0000 		lds r24,nRF24L01P+27
 2602 0a06 F801      		movw r30,r16
 2603 0a08 E80F      		add r30,r24
 2604 0a0a F11D      		adc r31,__zero_reg__
 2605 0a0c 8081      		ld r24,Z
 2606 0a0e 8093 0000 		sts nRF24L01P+15,r24
 2607               	.LM403:
 2608 0a12 8091 0000 		lds r24,nRF24L01P+29
 2609 0a16 080F      		add r16,r24
 2610 0a18 111D      		adc r17,__zero_reg__
 2611 0a1a F801      		movw r30,r16
 2612 0a1c 8081      		ld r24,Z
 2613 0a1e 8093 0000 		sts nRF24L01P+19,r24
 2614               	.LM404:
 2615 0a22 CE01      		movw r24,r28
 2616 0a24 0196      		adiw r24,1
 2617 0a26 63E0      		ldi r22,lo8(3)
 2618 0a28 0E94 0000 		call nRF24L01P_Tx_Basic
 2619 0a2c 81E0      		ldi r24,lo8(1)
 2620               	.LVL142:
 2621 0a2e 00C0      		rjmp .L247
 2622               	.LVL143:
 2623               	.L246:
 2624 0a30 80E0      		ldi r24,lo8(0)
 2625               	.LVL144:
 2626               	.L247:
 2627               	.LVL145:
 2628               	/* epilogue start */
 2629               	.LM405:
 2630 0a32 A096      		adiw r28,32
 2631 0a34 0FB6      		in __tmp_reg__,__SREG__
 2632 0a36 F894      		cli
 2633 0a38 DEBF      		out __SP_H__,r29
 2634 0a3a 0FBE      		out __SREG__,__tmp_reg__
 2635 0a3c CDBF      		out __SP_L__,r28
 2636 0a3e CF91      		pop r28
 2637 0a40 DF91      		pop r29
 2638 0a42 1F91      		pop r17
 2639 0a44 0F91      		pop r16
 2640               	.LVL146:
 2641 0a46 0895      		ret
 2642               	.LFE69:
 2644               		.data
 2645               	.LC0:
 2646 0000 4143 4B30 		.string	"ACK00"
 2646      3000 
 2647               		.text
 2648               	.global	nRF24L01P_Init
 2650               	nRF24L01P_Init:
 2651               	.LFB70:
 2652               	.LM406:
 2653 0a48 FF92      		push r15
 2654 0a4a 0F93      		push r16
 2655 0a4c 1F93      		push r17
 2656               	/* prologue: function */
 2657               	/* frame size = 0 */
 2658               	.LM407:
 2659 0a4e 0E94 0000 		call nRF24L01P_Struct_Init
 2660               	.LM408:
 2661 0a52 0E94 0000 		call nRF24L01P_Enable
 2662               	.LM409:
 2663 0a56 00E0      		ldi r16,lo8(nRF24L01P+2)
 2664 0a58 10E0      		ldi r17,hi8(nRF24L01P+2)
 2665 0a5a 1092 0000 		sts nRF24L01P+2,__zero_reg__
 2666 0a5e 80E0      		ldi r24,lo8(0)
 2667 0a60 60E0      		ldi r22,lo8(0)
 2668 0a62 A801      		movw r20,r16
 2669 0a64 21E0      		ldi r18,lo8(1)
 2670 0a66 0E94 0000 		call nRF24L01P_ReadWrite_Register
 2671               	.LM410:
 2672 0a6a 1092 0000 		sts nRF24L01P+2,__zero_reg__
 2673 0a6e 81E0      		ldi r24,lo8(1)
 2674 0a70 60E0      		ldi r22,lo8(0)
 2675 0a72 A801      		movw r20,r16
 2676 0a74 21E0      		ldi r18,lo8(1)
 2677 0a76 0E94 0000 		call nRF24L01P_ReadWrite_Register
 2678               	.LM411:
 2679 0a7a 83E0      		ldi r24,lo8(3)
 2680 0a7c 8093 0000 		sts nRF24L01P+2,r24
 2681 0a80 82E0      		ldi r24,lo8(2)
 2682 0a82 60E0      		ldi r22,lo8(0)
 2683 0a84 A801      		movw r20,r16
 2684 0a86 21E0      		ldi r18,lo8(1)
 2685 0a88 0E94 0000 		call nRF24L01P_ReadWrite_Register
 2686               	.LM412:
 2687 0a8c 81E0      		ldi r24,lo8(1)
 2688 0a8e 8093 0000 		sts nRF24L01P+2,r24
 2689 0a92 83E0      		ldi r24,lo8(3)
 2690 0a94 60E0      		ldi r22,lo8(0)
 2691 0a96 A801      		movw r20,r16
 2692 0a98 21E0      		ldi r18,lo8(1)
 2693 0a9a 0E94 0000 		call nRF24L01P_ReadWrite_Register
 2694               	.LM413:
 2695 0a9e 1092 0000 		sts nRF24L01P+2,__zero_reg__
 2696 0aa2 84E0      		ldi r24,lo8(4)
 2697 0aa4 60E0      		ldi r22,lo8(0)
 2698 0aa6 A801      		movw r20,r16
 2699 0aa8 21E0      		ldi r18,lo8(1)
 2700 0aaa 0E94 0000 		call nRF24L01P_ReadWrite_Register
 2701               	.LM414:
 2702 0aae 82E0      		ldi r24,lo8(2)
 2703 0ab0 8093 0000 		sts nRF24L01P+2,r24
 2704 0ab4 85E0      		ldi r24,lo8(5)
 2705 0ab6 60E0      		ldi r22,lo8(0)
 2706 0ab8 A801      		movw r20,r16
 2707 0aba 21E0      		ldi r18,lo8(1)
 2708 0abc 0E94 0000 		call nRF24L01P_ReadWrite_Register
 2709               	.LM415:
 2710 0ac0 86E2      		ldi r24,lo8(38)
 2711 0ac2 8093 0000 		sts nRF24L01P+2,r24
 2712 0ac6 86E0      		ldi r24,lo8(6)
 2713 0ac8 60E0      		ldi r22,lo8(0)
 2714 0aca A801      		movw r20,r16
 2715 0acc 21E0      		ldi r18,lo8(1)
 2716 0ace 0E94 0000 		call nRF24L01P_ReadWrite_Register
 2717               	.LM416:
 2718 0ad2 80E7      		ldi r24,lo8(112)
 2719 0ad4 8093 0000 		sts nRF24L01P+2,r24
 2720 0ad8 87E0      		ldi r24,lo8(7)
 2721 0ada 60E0      		ldi r22,lo8(0)
 2722 0adc A801      		movw r20,r16
 2723 0ade 21E0      		ldi r18,lo8(1)
 2724 0ae0 0E94 0000 		call nRF24L01P_ReadWrite_Register
 2725               	.LM417:
 2726 0ae4 E0E2      		ldi r30,lo8(32)
 2727 0ae6 FE2E      		mov r15,r30
 2728 0ae8 F092 0000 		sts nRF24L01P+2,r15
 2729               	.LM418:
 2730 0aec 81E1      		ldi r24,lo8(17)
 2731 0aee 60E0      		ldi r22,lo8(0)
 2732 0af0 A801      		movw r20,r16
 2733 0af2 21E0      		ldi r18,lo8(1)
 2734 0af4 0E94 0000 		call nRF24L01P_ReadWrite_Register
 2735               	.LM419:
 2736 0af8 F092 0000 		sts nRF24L01P+2,r15
 2737               	.LM420:
 2738 0afc 82E1      		ldi r24,lo8(18)
 2739 0afe 60E0      		ldi r22,lo8(0)
 2740 0b00 A801      		movw r20,r16
 2741 0b02 21E0      		ldi r18,lo8(1)
 2742 0b04 0E94 0000 		call nRF24L01P_ReadWrite_Register
 2743               	.LM421:
 2744 0b08 1092 0000 		sts nRF24L01P+2,__zero_reg__
 2745 0b0c 8CE1      		ldi r24,lo8(28)
 2746 0b0e 60E0      		ldi r22,lo8(0)
 2747 0b10 A801      		movw r20,r16
 2748 0b12 21E0      		ldi r18,lo8(1)
 2749 0b14 0E94 0000 		call nRF24L01P_ReadWrite_Register
 2750               	.LM422:
 2751 0b18 1092 0000 		sts nRF24L01P+2,__zero_reg__
 2752 0b1c 8DE1      		ldi r24,lo8(29)
 2753 0b1e 60E0      		ldi r22,lo8(0)
 2754 0b20 A801      		movw r20,r16
 2755 0b22 21E0      		ldi r18,lo8(1)
 2756 0b24 0E94 0000 		call nRF24L01P_ReadWrite_Register
 2757               	.LM423:
 2758 0b28 00E0      		ldi r16,lo8(.LC0)
 2759 0b2a 10E0      		ldi r17,hi8(.LC0)
 2760 0b2c 80E1      		ldi r24,lo8(16)
 2761 0b2e 60E0      		ldi r22,lo8(0)
 2762 0b30 A801      		movw r20,r16
 2763 0b32 25E0      		ldi r18,lo8(5)
 2764 0b34 0E94 0000 		call nRF24L01P_ReadWrite_Register
 2765               	.LM424:
 2766 0b38 8AE0      		ldi r24,lo8(10)
 2767 0b3a 60E0      		ldi r22,lo8(0)
 2768 0b3c A801      		movw r20,r16
 2769 0b3e 25E0      		ldi r18,lo8(5)
 2770 0b40 0E94 0000 		call nRF24L01P_ReadWrite_Register
 2771               	.LM425:
 2772 0b44 84E0      		ldi r24,lo8(4)
 2773 0b46 0E94 0000 		call nRF24L01P_Speed_Set
 2774               	.LM426:
 2775 0b4a 80E0      		ldi r24,lo8(0)
 2776 0b4c 0E94 0000 		call nRF24L01P_Mode_Set
 2777               	/* epilogue start */
 2778               	.LM427:
 2779 0b50 1F91      		pop r17
 2780 0b52 0F91      		pop r16
 2781 0b54 FF90      		pop r15
 2782 0b56 0895      		ret
 2783               	.LFE70:
 2785               		.comm nRF24L01P,43,1
 3322               	.Letext0:
DEFINED SYMBOLS
                            *ABS*:00000000 nrf24l01p.c
C:\Users\farid\AppData\Local\Temp/ccOwBOGc.s:2      *ABS*:0000003f __SREG__
C:\Users\farid\AppData\Local\Temp/ccOwBOGc.s:3      *ABS*:0000003e __SP_H__
C:\Users\farid\AppData\Local\Temp/ccOwBOGc.s:4      *ABS*:0000003d __SP_L__
C:\Users\farid\AppData\Local\Temp/ccOwBOGc.s:5      *ABS*:00000034 __CCP__
C:\Users\farid\AppData\Local\Temp/ccOwBOGc.s:6      *ABS*:00000000 __tmp_reg__
C:\Users\farid\AppData\Local\Temp/ccOwBOGc.s:7      *ABS*:00000001 __zero_reg__
C:\Users\farid\AppData\Local\Temp/ccOwBOGc.s:18     .text:00000000 nRF24L01P_Struct_Init
                            *COM*:0000002b nRF24L01P
C:\Users\farid\AppData\Local\Temp/ccOwBOGc.s:105    .text:000000a4 nRF24L01P_Set_SCK_DD
C:\Users\farid\AppData\Local\Temp/ccOwBOGc.s:125    .text:000000b0 nRF24L01P_Set_MISO_DD
C:\Users\farid\AppData\Local\Temp/ccOwBOGc.s:145    .text:000000bc nRF24L01P_Set_MOSI_DD
C:\Users\farid\AppData\Local\Temp/ccOwBOGc.s:165    .text:000000c8 nRF24L01P_Set_CSN_DD
C:\Users\farid\AppData\Local\Temp/ccOwBOGc.s:185    .text:000000d4 nRF24L01P_Set_CE_DD
C:\Users\farid\AppData\Local\Temp/ccOwBOGc.s:205    .text:000000e0 nRF24L01P_Set_SCK
C:\Users\farid\AppData\Local\Temp/ccOwBOGc.s:225    .text:000000ec nRF24L01P_Set_MISO
C:\Users\farid\AppData\Local\Temp/ccOwBOGc.s:245    .text:000000f8 nRF24L01P_Set_MOSI
C:\Users\farid\AppData\Local\Temp/ccOwBOGc.s:265    .text:00000104 nRF24L01P_Set_CSN
C:\Users\farid\AppData\Local\Temp/ccOwBOGc.s:285    .text:00000110 nRF24L01P_Set_CE
C:\Users\farid\AppData\Local\Temp/ccOwBOGc.s:305    .text:0000011c nRF24L01P_GPIO_Enable
C:\Users\farid\AppData\Local\Temp/ccOwBOGc.s:361    .text:0000012e nRF24L01P_GPIO_Disable
C:\Users\farid\AppData\Local\Temp/ccOwBOGc.s:433    .text:00000144 nRF24L01P_SPI_Enable
C:\Users\farid\AppData\Local\Temp/ccOwBOGc.s:453    .text:00000150 nRF24L01P_SPI_Disable
C:\Users\farid\AppData\Local\Temp/ccOwBOGc.s:469    .text:00000156 nRF24L01P_Enable
C:\Users\farid\AppData\Local\Temp/ccOwBOGc.s:497    .text:0000016a nRF24L01P_Disable
C:\Users\farid\AppData\Local\Temp/ccOwBOGc.s:521    .text:00000178 nRF24L01P_Error_Clear
C:\Users\farid\AppData\Local\Temp/ccOwBOGc.s:535    .text:0000017e nRF24L01P_Error_Clear_Ticks
C:\Users\farid\AppData\Local\Temp/ccOwBOGc.s:550    .text:00000188 nRF24L01P_Error_Clear_Buf
C:\Users\farid\AppData\Local\Temp/ccOwBOGc.s:575    .text:00000198 nRF24L01P_Error_Clear_All
C:\Users\farid\AppData\Local\Temp/ccOwBOGc.s:616    .text:000001b4 nRF24L01P_Error_Set
C:\Users\farid\AppData\Local\Temp/ccOwBOGc.s:631    .text:000001ba nRF24L01P_Error_Get
C:\Users\farid\AppData\Local\Temp/ccOwBOGc.s:644    .text:000001c0 nRF24L01P_Error_Get_Index
C:\Users\farid\AppData\Local\Temp/ccOwBOGc.s:664    .text:000001cc nRF24L01P_Error_Timeout
C:\Users\farid\AppData\Local\Temp/ccOwBOGc.s:714    .text:000001f6 nRF24L01P_Error_Free
C:\Users\farid\AppData\Local\Temp/ccOwBOGc.s:734    .text:00000206 nRF24L01P_CRC
C:\Users\farid\AppData\Local\Temp/ccOwBOGc.s:788    .text:00000232 nRF24L01P_CRC_Block
C:\Users\farid\AppData\Local\Temp/ccOwBOGc.s:840    .text:00000262 nRF24L01P_SPI_Transfer
C:\Users\farid\AppData\Local\Temp/ccOwBOGc.s:915    .text:00000294 nRF24L01P_ReadWrite_Register
C:\Users\farid\AppData\Local\Temp/ccOwBOGc.s:1037   .text:0000031a nRF24L01P_ReadModifyWrite_Register
C:\Users\farid\AppData\Local\Temp/ccOwBOGc.s:1116   .text:00000386 nRF24L01P_Flush_Tx_Buf
C:\Users\farid\AppData\Local\Temp/ccOwBOGc.s:1149   .text:000003a4 nRF24L01P_Flush_Rx_Buf
C:\Users\farid\AppData\Local\Temp/ccOwBOGc.s:1182   .text:000003c2 nRF24L01P_Write_Data_Tx_Buf
C:\Users\farid\AppData\Local\Temp/ccOwBOGc.s:1217   .text:000003de nRF24L01P_Read_Data_Rx_Buf
C:\Users\farid\AppData\Local\Temp/ccOwBOGc.s:1252   .text:000003fa nRF24L01P_Tx_Buf_Empty
C:\Users\farid\AppData\Local\Temp/ccOwBOGc.s:1291   .text:0000042c nRF24L01P_Rx_Buf_Not_Empty
C:\Users\farid\AppData\Local\Temp/ccOwBOGc.s:1325   .text:00000454 nRF24L01P_Wait_Tx_Complete
C:\Users\farid\AppData\Local\Temp/ccOwBOGc.s:1414   .text:000004a6 nRF24L01P_Mode_Set_DeepSleep
C:\Users\farid\AppData\Local\Temp/ccOwBOGc.s:1447   .text:000004c8 nRF24L01P_Mode_Set_Sleep
C:\Users\farid\AppData\Local\Temp/ccOwBOGc.s:1490   .text:000004f6 nRF24L01P_Mode_Set_Rx
C:\Users\farid\AppData\Local\Temp/ccOwBOGc.s:1535   .text:00000528 nRF24L01P_Mode_Set_Tx
C:\Users\farid\AppData\Local\Temp/ccOwBOGc.s:1586   .text:0000055c nRF24L01P_Mode_Set
C:\Users\farid\AppData\Local\Temp/ccOwBOGc.s:1647   .text:00000594 nRF24L01P_Mode_Get
C:\Users\farid\AppData\Local\Temp/ccOwBOGc.s:1696   .text:000005ce nRF24L01P_Channel_Set
C:\Users\farid\AppData\Local\Temp/ccOwBOGc.s:1735   .text:000005f4 nRF24L01P_Channel_Get
C:\Users\farid\AppData\Local\Temp/ccOwBOGc.s:1766   .text:00000614 nRF24L01P_Speed_Set
C:\Users\farid\AppData\Local\Temp/ccOwBOGc.s:1817   .text:0000064c nRF24L01P_Speed_Get
C:\Users\farid\AppData\Local\Temp/ccOwBOGc.s:1883   .text:000006a6 nRF24L01P_Tx_Power_Set
C:\Users\farid\AppData\Local\Temp/ccOwBOGc.s:1971   .text:0000070e nRF24L01P_Tx_Power_Get
C:\Users\farid\AppData\Local\Temp/ccOwBOGc.s:2005   .text:00000736 nRF24L01P_Own_Addr_Set
C:\Users\farid\AppData\Local\Temp/ccOwBOGc.s:2020   .text:0000073c nRF24L01P_Own_Addr_Get
C:\Users\farid\AppData\Local\Temp/ccOwBOGc.s:2033   .text:00000742 nRF24L01P_Dest_Addr_Set
C:\Users\farid\AppData\Local\Temp/ccOwBOGc.s:2048   .text:00000748 nRF24L01P_Dest_Addr_Get
C:\Users\farid\AppData\Local\Temp/ccOwBOGc.s:2061   .text:0000074e nRF24L01P_RxTicks_Set
C:\Users\farid\AppData\Local\Temp/ccOwBOGc.s:2077   .text:00000758 nRF24L01P_RxTicks_Get
C:\Users\farid\AppData\Local\Temp/ccOwBOGc.s:2091   .text:00000762 nRF24L01P_RxTimeout_Set
C:\Users\farid\AppData\Local\Temp/ccOwBOGc.s:2107   .text:0000076c nRF24L01P_RxTimeout_Get
C:\Users\farid\AppData\Local\Temp/ccOwBOGc.s:2121   .text:00000776 nRF24L01P_MaxRetransmission_Set
C:\Users\farid\AppData\Local\Temp/ccOwBOGc.s:2137   .text:00000780 nRF24L01P_MaxRetransmission_Get
C:\Users\farid\AppData\Local\Temp/ccOwBOGc.s:2151   .text:0000078a nRF24L01P_Tx_Basic
C:\Users\farid\AppData\Local\Temp/ccOwBOGc.s:2248   .text:00000832 nRF24L01P_Rx_Basic
C:\Users\farid\AppData\Local\Temp/ccOwBOGc.s:2412   .text:000008fc nRF24L01P_Tx_With_Ack
C:\Users\farid\AppData\Local\Temp/ccOwBOGc.s:2509   .text:00000984 nRF24L01P_Rx_With_Ack
C:\Users\farid\AppData\Local\Temp/ccOwBOGc.s:2650   .text:00000a48 nRF24L01P_Init

UNDEFINED SYMBOLS
__do_copy_data
__do_clear_bss
