   1               		.file	"nrf24l01p.c"
   2               	__SREG__ = 0x3f
   3               	__SP_H__ = 0x3e
   4               	__SP_L__ = 0x3d
   5               	__CCP__  = 0x34
   6               	__tmp_reg__ = 0
   7               	__zero_reg__ = 1
  15               	.Ltext0:
  16               	.global	nRF24L01P_Struct_Init
  18               	nRF24L01P_Struct_Init:
  19               	.LFB6:
  20               	.LM1:
  21               	/* prologue: function */
  22               	/* frame size = 0 */
  23               	.LM2:
  24 0000 80E0      		ldi r24,lo8(nRF24L01P_type)
  25 0002 90E0      		ldi r25,hi8(nRF24L01P_type)
  26 0004 9093 0000 		sts (nRF24L01P)+1,r25
  27 0008 8093 0000 		sts nRF24L01P,r24
  28               	.LM3:
  29 000c 84E0      		ldi r24,lo8(4)
  30 000e 8093 0000 		sts nRF24L01P_type,r24
  31               	.LM4:
  32 0012 1092 0000 		sts nRF24L01P_type+1,__zero_reg__
  33               	.LM5:
  34 0016 1092 0000 		sts nRF24L01P_type+2,__zero_reg__
  35               	.LM6:
  36 001a 1092 0000 		sts nRF24L01P_type+3,__zero_reg__
  37               	.LM7:
  38 001e 21E0      		ldi r18,lo8(1)
  39 0020 2093 0000 		sts nRF24L01P_type+4,r18
  40               	.LM8:
  41 0024 8AE0      		ldi r24,lo8(10)
  42 0026 90E0      		ldi r25,hi8(10)
  43 0028 9093 0000 		sts (nRF24L01P_type+5)+1,r25
  44 002c 8093 0000 		sts nRF24L01P_type+5,r24
  45               	.LM9:
  46 0030 1092 0000 		sts (nRF24L01P_type+7)+1,__zero_reg__
  47 0034 1092 0000 		sts nRF24L01P_type+7,__zero_reg__
  48               	.LM10:
  49 0038 1092 0000 		sts nRF24L01P_type+9,__zero_reg__
  50               	.LM11:
  51 003c 1092 0000 		sts (nRF24L01P_type+10)+1,__zero_reg__
  52 0040 1092 0000 		sts nRF24L01P_type+10,__zero_reg__
  53               	.LM12:
  54 0044 1092 0000 		sts (nRF24L01P_type+12)+1,__zero_reg__
  55 0048 1092 0000 		sts nRF24L01P_type+12,__zero_reg__
  56               	.LM13:
  57 004c 1092 0000 		sts nRF24L01P_type+14,__zero_reg__
  58               	.LM14:
  59 0050 2093 0000 		sts nRF24L01P_type+15,r18
  60               	.LM15:
  61 0054 1092 0000 		sts (nRF24L01P_type+16)+1,__zero_reg__
  62 0058 1092 0000 		sts nRF24L01P_type+16,__zero_reg__
  63               	.LM16:
  64 005c 1092 0000 		sts nRF24L01P_type+18,__zero_reg__
  65               	/* epilogue start */
  66               	.LM17:
  67 0060 0895      		ret
  68               	.LFE6:
  70               	.global	nRF24L01P_CSN_High
  72               	nRF24L01P_CSN_High:
  73               	.LFB7:
  74               	.LM18:
  75               	/* prologue: function */
  76               	/* frame size = 0 */
  77               	.LM19:
  78 0062 2A9A      		sbi 37-32,2
  79               	/* epilogue start */
  80               	.LM20:
  81 0064 0895      		ret
  82               	.LFE7:
  84               	.global	nRF24L01P_CSN_Low
  86               	nRF24L01P_CSN_Low:
  87               	.LFB8:
  88               	.LM21:
  89               	/* prologue: function */
  90               	/* frame size = 0 */
  91               	.LM22:
  92 0066 2A98      		cbi 37-32,2
  93               	/* epilogue start */
  94               	.LM23:
  95 0068 0895      		ret
  96               	.LFE8:
  98               	.global	nRF24L01P_CE_High
 100               	nRF24L01P_CE_High:
 101               	.LFB9:
 102               	.LM24:
 103               	/* prologue: function */
 104               	/* frame size = 0 */
 105               	.LM25:
 106 006a 299A      		sbi 37-32,1
 107               	/* epilogue start */
 108               	.LM26:
 109 006c 0895      		ret
 110               	.LFE9:
 112               	.global	nRF24L01P_CE_Low
 114               	nRF24L01P_CE_Low:
 115               	.LFB10:
 116               	.LM27:
 117               	/* prologue: function */
 118               	/* frame size = 0 */
 119               	.LM28:
 120 006e 2998      		cbi 37-32,1
 121               	/* epilogue start */
 122               	.LM29:
 123 0070 0895      		ret
 124               	.LFE10:
 126               	.global	nRF24L01P_Enable_GPIO
 128               	nRF24L01P_Enable_GPIO:
 129               	.LFB11:
 130               	.LM30:
 131               	/* prologue: function */
 132               	/* frame size = 0 */
 133               	.LM31:
 134 0072 84B1      		in r24,36-32
 135 0074 8C62      		ori r24,lo8(44)
 136 0076 84B9      		out 36-32,r24
 137               	.LM32:
 138 0078 2498      		cbi 36-32,4
 139               	.LM33:
 140 007a 229A      		sbi 36-32,2
 141               	.LM34:
 142 007c 219A      		sbi 36-32,1
 143               	.LBB182:
 144               	.LBB183:
 145               	.LM35:
 146 007e 2A9A      		sbi 37-32,2
 147               	.LBE183:
 148               	.LBE182:
 149               	.LBB184:
 150               	.LBB185:
 151               	.LM36:
 152 0080 2998      		cbi 37-32,1
 153               	/* epilogue start */
 154               	.LBE185:
 155               	.LBE184:
 156               	.LM37:
 157 0082 0895      		ret
 158               	.LFE11:
 160               	.global	nRF24L01P_Disable_GPIO
 162               	nRF24L01P_Disable_GPIO:
 163               	.LFB12:
 164               	.LM38:
 165               	/* prologue: function */
 166               	/* frame size = 0 */
 167               	.LM39:
 168 0084 249A      		sbi 36-32,4
 169               	.LM40:
 170 0086 85B1      		in r24,37-32
 171 0088 837C      		andi r24,lo8(-61)
 172 008a 85B9      		out 37-32,r24
 173               	.LBB186:
 174               	.LBB187:
 175               	.LM41:
 176 008c 2A9A      		sbi 37-32,2
 177               	.LBE187:
 178               	.LBE186:
 179               	.LBB188:
 180               	.LBB189:
 181               	.LM42:
 182 008e 2998      		cbi 37-32,1
 183               	/* epilogue start */
 184               	.LBE189:
 185               	.LBE188:
 186               	.LM43:
 187 0090 0895      		ret
 188               	.LFE12:
 190               	.global	nRF24L01P_Enable_SPI
 192               	nRF24L01P_Enable_SPI:
 193               	.LFB13:
 194               	.LM44:
 195               	/* prologue: function */
 196               	/* frame size = 0 */
 197               	.LM45:
 198 0092 80E5      		ldi r24,lo8(80)
 199 0094 8CBD      		out 76-32,r24
 200               	.LM46:
 201 0096 81E0      		ldi r24,lo8(1)
 202 0098 8DBD      		out 77-32,r24
 203               	/* epilogue start */
 204               	.LM47:
 205 009a 0895      		ret
 206               	.LFE13:
 208               	.global	nRF24L01P_Disable_SPI
 210               	nRF24L01P_Disable_SPI:
 211               	.LFB14:
 212               	.LM48:
 213               	/* prologue: function */
 214               	/* frame size = 0 */
 215               	.LM49:
 216 009c 1CBC      		out 76-32,__zero_reg__
 217               	.LM50:
 218 009e 1DBC      		out 77-32,__zero_reg__
 219               	/* epilogue start */
 220               	.LM51:
 221 00a0 0895      		ret
 222               	.LFE14:
 224               	.global	nRF24L01P_Enable
 226               	nRF24L01P_Enable:
 227               	.LFB15:
 228               	.LM52:
 229               	/* prologue: function */
 230               	/* frame size = 0 */
 231               	.LM53:
 232 00a2 0E94 0000 		call nRF24L01P_Enable_GPIO
 233               	.LBB190:
 234               	.LBB191:
 235               	.LM54:
 236 00a6 80E5      		ldi r24,lo8(80)
 237 00a8 8CBD      		out 76-32,r24
 238               	.LM55:
 239 00aa 81E0      		ldi r24,lo8(1)
 240 00ac 8DBD      		out 77-32,r24
 241               	/* epilogue start */
 242               	.LBE191:
 243               	.LBE190:
 244               	.LM56:
 245 00ae 0895      		ret
 246               	.LFE15:
 248               	.global	nRF24L01P_Disable
 250               	nRF24L01P_Disable:
 251               	.LFB16:
 252               	.LM57:
 253               	/* prologue: function */
 254               	/* frame size = 0 */
 255               	.LBB192:
 256               	.LBB193:
 257               	.LM58:
 258 00b0 1CBC      		out 76-32,__zero_reg__
 259               	.LM59:
 260 00b2 1DBC      		out 77-32,__zero_reg__
 261               	.LBE193:
 262               	.LBE192:
 263               	.LM60:
 264 00b4 0E94 0000 		call nRF24L01P_Disable_GPIO
 265               	/* epilogue start */
 266               	.LM61:
 267 00b8 0895      		ret
 268               	.LFE16:
 270               	.global	nRF24L01P_Error_Clear
 272               	nRF24L01P_Error_Clear:
 273               	.LFB17:
 274               	.LM62:
 275               	/* prologue: function */
 276               	/* frame size = 0 */
 277               	.LM63:
 278 00ba E091 0000 		lds r30,nRF24L01P
 279 00be F091 0000 		lds r31,(nRF24L01P)+1
 280 00c2 118A      		std Z+17,__zero_reg__
 281 00c4 108A      		std Z+16,__zero_reg__
 282               	.LM64:
 283 00c6 128A      		std Z+18,__zero_reg__
 284               	/* epilogue start */
 285               	.LM65:
 286 00c8 0895      		ret
 287               	.LFE17:
 289               	.global	nRF24L01P_Get_Error
 291               	nRF24L01P_Get_Error:
 292               	.LFB18:
 293               	.LM66:
 294               	/* prologue: function */
 295               	/* frame size = 0 */
 296               	.LM67:
 297 00ca E091 0000 		lds r30,nRF24L01P
 298 00ce F091 0000 		lds r31,(nRF24L01P)+1
 299               	.LM68:
 300 00d2 8289      		ldd r24,Z+18
 301               	/* epilogue start */
 302 00d4 0895      		ret
 303               	.LFE18:
 305               	.global	nRF24L01P_No_Error
 307               	nRF24L01P_No_Error:
 308               	.LFB19:
 309               	.LM69:
 310               	/* prologue: function */
 311               	/* frame size = 0 */
 312               	.LM70:
 313 00d6 90E0      		ldi r25,lo8(0)
 314 00d8 E091 0000 		lds r30,nRF24L01P
 315 00dc F091 0000 		lds r31,(nRF24L01P)+1
 316 00e0 8289      		ldd r24,Z+18
 317 00e2 8823      		tst r24
 318 00e4 01F4      		brne .L28
 319 00e6 91E0      		ldi r25,lo8(1)
 320               	.L28:
 321               	.LM71:
 322 00e8 892F      		mov r24,r25
 323               	/* epilogue start */
 324 00ea 0895      		ret
 325               	.LFE19:
 327               	.global	nRF24L01P_Error_Timeout
 329               	nRF24L01P_Error_Timeout:
 330               	.LFB20:
 331               	.LM72:
 332               	/* prologue: function */
 333               	/* frame size = 0 */
 334               	.LBB194:
 335               	.LBB195:
 336               	.LBB196:
 337               	.LBB197:
 338               	.LM73:
 339 00ec 81E0      		ldi r24,lo8(1)
 340               	.LVL0:
 341               	/* #APP */
 342               	 ;  83 "c:/winavr-20100110/lib/gcc/../../avr/include/util/delay_basic.h" 1
 343 00ee 8A95      		1: dec r24
 344 00f0 01F4      		brne 1b
 345               	 ;  0 "" 2
 346               	/* #NOAPP */
 347               	.LBE197:
 348               	.LBE196:
 349               	.LBE195:
 350               	.LBE194:
 351               	.LM74:
 352 00f2 E091 0000 		lds r30,nRF24L01P
 353 00f6 F091 0000 		lds r31,(nRF24L01P)+1
 354 00fa 8089      		ldd r24,Z+16
 355 00fc 9189      		ldd r25,Z+17
 356               	.LVL1:
 357 00fe 0196      		adiw r24,1
 358 0100 918B      		std Z+17,r25
 359 0102 808B      		std Z+16,r24
 360               	.LM75:
 361 0104 895E      		subi r24,lo8(1001)
 362 0106 9340      		sbci r25,hi8(1001)
 363 0108 00F0      		brlo .L31
 364               	.LM76:
 365 010a 118A      		std Z+17,__zero_reg__
 366 010c 108A      		std Z+16,__zero_reg__
 367               	.LM77:
 368 010e 80E1      		ldi r24,lo8(16)
 369 0110 828B      		std Z+18,r24
 370               	.L31:
 371               	.LM78:
 372 0112 8289      		ldd r24,Z+18
 373               	/* epilogue start */
 374 0114 0895      		ret
 375               	.LFE20:
 377               	.global	nRF24L01P_SPI_Transfer
 379               	nRF24L01P_SPI_Transfer:
 380               	.LFB21:
 381               	.LM79:
 382               	.LVL2:
 383               	/* prologue: function */
 384               	/* frame size = 0 */
 385 0116 982F      		mov r25,r24
 386               	.LBB198:
 387               	.LBB199:
 388               	.LBB200:
 389               	.LBB201:
 390               	.LM80:
 391 0118 E091 0000 		lds r30,nRF24L01P
 392 011c F091 0000 		lds r31,(nRF24L01P)+1
 393               	.LBE201:
 394               	.LBE200:
 395               	.LM81:
 396 0120 8289      		ldd r24,Z+18
 397               	.LVL3:
 398 0122 8823      		tst r24
 399 0124 01F4      		brne .L34
 400               	.LBE199:
 401               	.LBE198:
 402               	.LM82:
 403 0126 9EBD      		out 78-32,r25
 404               	.LBB202:
 405               	.LBB203:
 406               	.LM83:
 407 0128 118A      		std Z+17,__zero_reg__
 408 012a 108A      		std Z+16,__zero_reg__
 409               	.LM84:
 410 012c 128A      		std Z+18,__zero_reg__
 411 012e 00C0      		rjmp .L35
 412               	.L37:
 413               	.LBE203:
 414               	.LBE202:
 415               	.LM85:
 416 0130 0E94 0000 		call nRF24L01P_Error_Timeout
 417               	.LVL4:
 418 0134 8823      		tst r24
 419 0136 01F4      		brne .L36
 420               	.LVL5:
 421               	.L35:
 422               	.LM86:
 423 0138 0DB4      		in __tmp_reg__,77-32
 424 013a 07FE      		sbrs __tmp_reg__,7
 425 013c 00C0      		rjmp .L37
 426               	.L36:
 427               	.LBB204:
 428               	.LBB205:
 429               	.LM87:
 430 013e E091 0000 		lds r30,nRF24L01P
 431 0142 F091 0000 		lds r31,(nRF24L01P)+1
 432 0146 8289      		ldd r24,Z+18
 433 0148 8823      		tst r24
 434 014a 01F4      		brne .L34
 435               	.LBE205:
 436               	.LBE204:
 437               	.LM88:
 438 014c 8EB5      		in r24,78-32
 439               	.LVL6:
 440 014e 0895      		ret
 441               	.LVL7:
 442               	.L34:
 443 0150 80E0      		ldi r24,lo8(0)
 444               	.LVL8:
 445               	.LVL9:
 446               	.LM89:
 447 0152 0895      		ret
 448               	.LFE21:
 450               	.global	nRF24L01P_Calcuate_CRC
 452               	nRF24L01P_Calcuate_CRC:
 453               	.LFB22:
 454               	.LM90:
 455               	.LVL10:
 456               	/* prologue: function */
 457               	/* frame size = 0 */
 458               	.LM91:
 459 0154 362F      		mov r19,r22
 460               	.LVL11:
 461 0156 20E0      		ldi r18,lo8(0)
 462               	.LVL12:
 463 0158 2827      		eor r18,r24
 464 015a 3927      		eor r19,r25
 465               	.LVL13:
 466 015c 40E0      		ldi r20,lo8(0)
 467               	.LVL14:
 468               	.LBB206:
 469               	.LM92:
 470 015e 61E2      		ldi r22,lo8(4129)
 471 0160 70E1      		ldi r23,hi8(4129)
 472               	.LVL15:
 473               	.L43:
 474 0162 C901      		movw r24,r18
 475 0164 880F      		lsl r24
 476 0166 991F      		rol r25
 477               	.LVL16:
 478               	.LM93:
 479 0168 37FF      		sbrs r19,7
 480 016a 00C0      		rjmp .L41
 481               	.LVL17:
 482               	.LM94:
 483 016c 9C01      		movw r18,r24
 484 016e 2627      		eor r18,r22
 485 0170 3727      		eor r19,r23
 486 0172 00C0      		rjmp .L42
 487               	.LVL18:
 488               	.L41:
 489               	.LM95:
 490 0174 9C01      		movw r18,r24
 491               	.L42:
 492               	.LM96:
 493 0176 4F5F      		subi r20,lo8(-(1))
 494 0178 4830      		cpi r20,lo8(8)
 495 017a 01F4      		brne .L43
 496               	.LBE206:
 497               	.LM97:
 498 017c C901      		movw r24,r18
 499               	.LVL19:
 500               	/* epilogue start */
 501 017e 0895      		ret
 502               	.LFE22:
 504               	.global	nRF24L01P_Calcuate_CRC_Block
 506               	nRF24L01P_Calcuate_CRC_Block:
 507               	.LFB23:
 508               	.LM98:
 509               	.LVL20:
 510 0180 0F93      		push r16
 511 0182 1F93      		push r17
 512 0184 CF93      		push r28
 513 0186 DF93      		push r29
 514               	/* prologue: function */
 515               	/* frame size = 0 */
 516 0188 062F      		mov r16,r22
 517               	.LM99:
 518 018a EC01      		movw r28,r24
 519               	.LVL21:
 520 018c 20E0      		ldi r18,lo8(0)
 521 018e 30E0      		ldi r19,hi8(0)
 522               	.LVL22:
 523 0190 10E0      		ldi r17,lo8(0)
 524               	.LVL23:
 525 0192 00C0      		rjmp .L47
 526               	.LVL24:
 527               	.L48:
 528               	.LBB207:
 529               	.LM100:
 530 0194 C901      		movw r24,r18
 531 0196 6991      		ld r22,Y+
 532 0198 0E94 0000 		call nRF24L01P_Calcuate_CRC
 533               	.LVL25:
 534 019c 9C01      		movw r18,r24
 535               	.LVL26:
 536               	.LM101:
 537 019e 1F5F      		subi r17,lo8(-(1))
 538               	.LVL27:
 539               	.L47:
 540 01a0 1017      		cp r17,r16
 541 01a2 00F0      		brlo .L48
 542               	.LBE207:
 543               	.LM102:
 544 01a4 C901      		movw r24,r18
 545               	.LVL28:
 546               	/* epilogue start */
 547 01a6 DF91      		pop r29
 548 01a8 CF91      		pop r28
 549 01aa 1F91      		pop r17
 550               	.LVL29:
 551 01ac 0F91      		pop r16
 552               	.LVL30:
 553 01ae 0895      		ret
 554               	.LFE23:
 556               	.global	nRF24L01P_ReadWrite_Register
 558               	nRF24L01P_ReadWrite_Register:
 559               	.LFB24:
 560               	.LM103:
 561               	.LVL31:
 562 01b0 FF92      		push r15
 563 01b2 0F93      		push r16
 564 01b4 1F93      		push r17
 565 01b6 CF93      		push r28
 566 01b8 DF93      		push r29
 567               	/* prologue: function */
 568               	/* frame size = 0 */
 569 01ba 982F      		mov r25,r24
 570 01bc 142F      		mov r17,r20
 571 01be 052F      		mov r16,r21
 572               	.LVL32:
 573 01c0 F22E      		mov r15,r18
 574               	.LBB208:
 575               	.LBB209:
 576               	.LM104:
 577 01c2 E091 0000 		lds r30,nRF24L01P
 578 01c6 F091 0000 		lds r31,(nRF24L01P)+1
 579 01ca 8289      		ldd r24,Z+18
 580               	.LVL33:
 581 01cc 8823      		tst r24
 582 01ce 01F4      		brne .L58
 583               	.LVL34:
 584               	.LBE209:
 585               	.LBE208:
 586               	.LBB210:
 587               	.LBB211:
 588               	.LM105:
 589 01d0 2A98      		cbi 37-32,2
 590               	.LBE211:
 591               	.LBE210:
 592               	.LM106:
 593 01d2 6623      		tst r22
 594 01d4 01F4      		brne .L52
 595               	.LM107:
 596 01d6 892F      		mov r24,r25
 597 01d8 8062      		ori r24,lo8(32)
 598 01da 0E94 0000 		call nRF24L01P_SPI_Transfer
 599               	.LVL35:
 600 01de 812F      		mov r24,r17
 601 01e0 902F      		mov r25,r16
 602 01e2 9C01      		movw r18,r24
 603 01e4 E901      		movw r28,r18
 604 01e6 10E0      		ldi r17,lo8(0)
 605               	.LVL36:
 606 01e8 00C0      		rjmp .L53
 607               	.L54:
 608               	.LBB212:
 609               	.LM108:
 610 01ea 8991      		ld r24,Y+
 611 01ec 0E94 0000 		call nRF24L01P_SPI_Transfer
 612               	.LM109:
 613 01f0 1F5F      		subi r17,lo8(-(1))
 614               	.L53:
 615 01f2 1F15      		cp r17,r15
 616 01f4 00F0      		brlo .L54
 617 01f6 00C0      		rjmp .L55
 618               	.LVL37:
 619               	.L52:
 620               	.LBE212:
 621               	.LM110:
 622 01f8 892F      		mov r24,r25
 623 01fa 0E94 0000 		call nRF24L01P_SPI_Transfer
 624               	.LVL38:
 625 01fe 812F      		mov r24,r17
 626 0200 902F      		mov r25,r16
 627 0202 9C01      		movw r18,r24
 628 0204 E901      		movw r28,r18
 629 0206 10E0      		ldi r17,lo8(0)
 630               	.LVL39:
 631 0208 00C0      		rjmp .L56
 632               	.L57:
 633               	.LBB213:
 634               	.LM111:
 635 020a 8FEF      		ldi r24,lo8(-1)
 636 020c 0E94 0000 		call nRF24L01P_SPI_Transfer
 637 0210 8993      		st Y+,r24
 638               	.LM112:
 639 0212 1F5F      		subi r17,lo8(-(1))
 640               	.L56:
 641 0214 1F15      		cp r17,r15
 642 0216 00F0      		brlo .L57
 643               	.LVL40:
 644               	.L55:
 645               	.LBE213:
 646               	.LBB214:
 647               	.LBB215:
 648               	.LM113:
 649 0218 2A9A      		sbi 37-32,2
 650               	.LVL41:
 651               	.L58:
 652               	/* epilogue start */
 653               	.LBE215:
 654               	.LBE214:
 655               	.LM114:
 656 021a DF91      		pop r29
 657 021c CF91      		pop r28
 658 021e 1F91      		pop r17
 659               	.LVL42:
 660 0220 0F91      		pop r16
 661               	.LVL43:
 662 0222 FF90      		pop r15
 663               	.LVL44:
 664 0224 0895      		ret
 665               	.LFE24:
 667               	.global	nRF24L01P_Flush_Transmit_Buffer
 669               	nRF24L01P_Flush_Transmit_Buffer:
 670               	.LFB25:
 671               	.LM115:
 672               	/* prologue: function */
 673               	/* frame size = 0 */
 674               	.LBB216:
 675               	.LBB217:
 676               	.LBB218:
 677               	.LBB219:
 678               	.LM116:
 679 0226 E091 0000 		lds r30,nRF24L01P
 680 022a F091 0000 		lds r31,(nRF24L01P)+1
 681               	.LBE219:
 682               	.LBE218:
 683               	.LM117:
 684 022e 8289      		ldd r24,Z+18
 685 0230 8823      		tst r24
 686 0232 01F4      		brne .L61
 687               	.LBE217:
 688               	.LBE216:
 689               	.LM118:
 690 0234 3196      		adiw r30,1
 691 0236 81EE      		ldi r24,lo8(-31)
 692 0238 60E0      		ldi r22,lo8(0)
 693 023a AF01      		movw r20,r30
 694 023c 20E0      		ldi r18,lo8(0)
 695 023e 0E94 0000 		call nRF24L01P_ReadWrite_Register
 696               	.L61:
 697 0242 0895      		ret
 698               	.LFE25:
 700               	.global	nRF24L01P_Write_Data_To_Transmit_Buffer
 702               	nRF24L01P_Write_Data_To_Transmit_Buffer:
 703               	.LFB26:
 704               	.LM119:
 705               	.LVL45:
 706               	/* prologue: function */
 707               	/* frame size = 0 */
 708 0244 AC01      		movw r20,r24
 709               	.LBB220:
 710               	.LBB221:
 711               	.LM120:
 712 0246 E091 0000 		lds r30,nRF24L01P
 713 024a F091 0000 		lds r31,(nRF24L01P)+1
 714 024e 8289      		ldd r24,Z+18
 715               	.LVL46:
 716 0250 8823      		tst r24
 717 0252 01F4      		brne .L64
 718               	.LBE221:
 719               	.LBE220:
 720               	.LM121:
 721 0254 80EA      		ldi r24,lo8(-96)
 722 0256 60E0      		ldi r22,lo8(0)
 723 0258 20E2      		ldi r18,lo8(32)
 724 025a 0E94 0000 		call nRF24L01P_ReadWrite_Register
 725               	.LVL47:
 726               	.L64:
 727 025e 0895      		ret
 728               	.LFE26:
 730               	.global	nRF24L01P_Transmit_Buffer_Empty
 732               	nRF24L01P_Transmit_Buffer_Empty:
 733               	.LFB27:
 734               	.LM122:
 735               	/* prologue: function */
 736               	/* frame size = 0 */
 737               	.LBB222:
 738               	.LBB223:
 739               	.LBB224:
 740               	.LBB225:
 741               	.LM123:
 742 0260 E091 0000 		lds r30,nRF24L01P
 743 0264 F091 0000 		lds r31,(nRF24L01P)+1
 744               	.LBE225:
 745               	.LBE224:
 746               	.LM124:
 747 0268 8289      		ldd r24,Z+18
 748 026a 8823      		tst r24
 749 026c 01F0      		breq .L66
 750 026e 80E0      		ldi r24,lo8(0)
 751 0270 0895      		ret
 752               	.L66:
 753               	.LBE223:
 754               	.LBE222:
 755               	.LM125:
 756 0272 1182      		std Z+1,__zero_reg__
 757               	.LM126:
 758 0274 3196      		adiw r30,1
 759 0276 87E1      		ldi r24,lo8(23)
 760 0278 61E0      		ldi r22,lo8(1)
 761 027a AF01      		movw r20,r30
 762 027c 21E0      		ldi r18,lo8(1)
 763 027e 0E94 0000 		call nRF24L01P_ReadWrite_Register
 764 0282 E091 0000 		lds r30,nRF24L01P
 765 0286 F091 0000 		lds r31,(nRF24L01P)+1
 766 028a 8181      		ldd r24,Z+1
 767 028c 90E0      		ldi r25,lo8(0)
 768 028e 64E0      		ldi r22,4
 769 0290 9695      	1:	lsr r25
 770 0292 8795      		ror r24
 771 0294 6A95      		dec r22
 772 0296 01F4      		brne 1b
 773 0298 8170      		andi r24,lo8(1)
 774               	.LM127:
 775 029a 0895      		ret
 776               	.LFE27:
 778               	.global	nRF24L01P_Wait_Till_Transmission_Completes
 780               	nRF24L01P_Wait_Till_Transmission_Completes:
 781               	.LFB28:
 782               	.LM128:
 783 029c 1F93      		push r17
 784               	/* prologue: function */
 785               	/* frame size = 0 */
 786               	.LBB226:
 787               	.LBB227:
 788               	.LM129:
 789 029e E091 0000 		lds r30,nRF24L01P
 790 02a2 F091 0000 		lds r31,(nRF24L01P)+1
 791 02a6 8289      		ldd r24,Z+18
 792 02a8 8823      		tst r24
 793 02aa 01F0      		breq .L70
 794 02ac 00C0      		rjmp .L73
 795               	.L72:
 796               	.LBE227:
 797               	.LBE226:
 798               	.LBB228:
 799               	.LBB229:
 800               	.LBB230:
 801               	.LBB231:
 802               	.LM130:
 803 02ae 812F      		mov r24,r17
 804               	.LVL48:
 805               	/* #APP */
 806               	 ;  83 "c:/winavr-20100110/lib/gcc/../../avr/include/util/delay_basic.h" 1
 807 02b0 8A95      		1: dec r24
 808 02b2 01F4      		brne 1b
 809               	 ;  0 "" 2
 810               	/* #NOAPP */
 811 02b4 00C0      		rjmp .L74
 812               	.LVL49:
 813               	.L70:
 814 02b6 15E8      		ldi r17,lo8(-123)
 815               	.LVL50:
 816               	.L74:
 817               	.LBE231:
 818               	.LBE230:
 819               	.LBE229:
 820               	.LBE228:
 821               	.LM131:
 822 02b8 0E94 0000 		call nRF24L01P_Transmit_Buffer_Empty
 823               	.LVL51:
 824 02bc 8823      		tst r24
 825 02be 01F0      		breq .L72
 826               	.L73:
 827               	/* epilogue start */
 828               	.LM132:
 829 02c0 1F91      		pop r17
 830 02c2 0895      		ret
 831               	.LFE28:
 833               	.global	nRF24L01P_Flush_Receive_Buffer
 835               	nRF24L01P_Flush_Receive_Buffer:
 836               	.LFB29:
 837               	.LM133:
 838               	/* prologue: function */
 839               	/* frame size = 0 */
 840               	.LBB232:
 841               	.LBB233:
 842               	.LBB234:
 843               	.LBB235:
 844               	.LM134:
 845 02c4 E091 0000 		lds r30,nRF24L01P
 846 02c8 F091 0000 		lds r31,(nRF24L01P)+1
 847               	.LBE235:
 848               	.LBE234:
 849               	.LM135:
 850 02cc 8289      		ldd r24,Z+18
 851 02ce 8823      		tst r24
 852 02d0 01F4      		brne .L77
 853               	.LBE233:
 854               	.LBE232:
 855               	.LM136:
 856 02d2 3196      		adiw r30,1
 857 02d4 82EE      		ldi r24,lo8(-30)
 858 02d6 60E0      		ldi r22,lo8(0)
 859 02d8 AF01      		movw r20,r30
 860 02da 20E0      		ldi r18,lo8(0)
 861 02dc 0E94 0000 		call nRF24L01P_ReadWrite_Register
 862               	.L77:
 863 02e0 0895      		ret
 864               	.LFE29:
 866               	.global	nRF24L01P_Read_Data_From_Receive_Buffer
 868               	nRF24L01P_Read_Data_From_Receive_Buffer:
 869               	.LFB30:
 870               	.LM137:
 871               	.LVL52:
 872               	/* prologue: function */
 873               	/* frame size = 0 */
 874 02e2 AC01      		movw r20,r24
 875               	.LBB236:
 876               	.LBB237:
 877               	.LM138:
 878 02e4 E091 0000 		lds r30,nRF24L01P
 879 02e8 F091 0000 		lds r31,(nRF24L01P)+1
 880 02ec 8289      		ldd r24,Z+18
 881               	.LVL53:
 882 02ee 8823      		tst r24
 883 02f0 01F4      		brne .L80
 884               	.LBE237:
 885               	.LBE236:
 886               	.LM139:
 887 02f2 81E6      		ldi r24,lo8(97)
 888 02f4 61E0      		ldi r22,lo8(1)
 889 02f6 20E2      		ldi r18,lo8(32)
 890 02f8 0E94 0000 		call nRF24L01P_ReadWrite_Register
 891               	.LVL54:
 892               	.L80:
 893 02fc 0895      		ret
 894               	.LFE30:
 896               	.global	nRF24L01P_Receive_Buffer_Not_Empty
 898               	nRF24L01P_Receive_Buffer_Not_Empty:
 899               	.LFB31:
 900               	.LM140:
 901               	/* prologue: function */
 902               	/* frame size = 0 */
 903               	.LBB238:
 904               	.LBB239:
 905               	.LBB240:
 906               	.LBB241:
 907               	.LM141:
 908 02fe E091 0000 		lds r30,nRF24L01P
 909 0302 F091 0000 		lds r31,(nRF24L01P)+1
 910               	.LBE241:
 911               	.LBE240:
 912               	.LM142:
 913 0306 8289      		ldd r24,Z+18
 914 0308 8823      		tst r24
 915 030a 01F0      		breq .L82
 916 030c 80E0      		ldi r24,lo8(0)
 917 030e 0895      		ret
 918               	.L82:
 919               	.LBE239:
 920               	.LBE238:
 921               	.LM143:
 922 0310 1182      		std Z+1,__zero_reg__
 923               	.LM144:
 924 0312 3196      		adiw r30,1
 925 0314 87E1      		ldi r24,lo8(23)
 926 0316 61E0      		ldi r22,lo8(1)
 927 0318 AF01      		movw r20,r30
 928 031a 21E0      		ldi r18,lo8(1)
 929 031c 0E94 0000 		call nRF24L01P_ReadWrite_Register
 930 0320 E091 0000 		lds r30,nRF24L01P
 931 0324 F091 0000 		lds r31,(nRF24L01P)+1
 932 0328 8181      		ldd r24,Z+1
 933 032a 8095      		com r24
 934 032c 8170      		andi r24,lo8(1)
 935               	.LM145:
 936 032e 0895      		ret
 937               	.LFE31:
 939               	.global	nRF24L01P_Get_Mode
 941               	nRF24L01P_Get_Mode:
 942               	.LFB32:
 943               	.LM146:
 944               	/* prologue: function */
 945               	/* frame size = 0 */
 946               	.LBB242:
 947               	.LBB243:
 948               	.LBB244:
 949               	.LBB245:
 950               	.LM147:
 951 0330 E091 0000 		lds r30,nRF24L01P
 952 0334 F091 0000 		lds r31,(nRF24L01P)+1
 953               	.LBE245:
 954               	.LBE244:
 955               	.LM148:
 956 0338 8289      		ldd r24,Z+18
 957 033a 8823      		tst r24
 958 033c 01F0      		breq .L86
 959 033e 80E0      		ldi r24,lo8(0)
 960 0340 0895      		ret
 961               	.L86:
 962               	.LBE243:
 963               	.LBE242:
 964               	.LM149:
 965 0342 3196      		adiw r30,1
 966 0344 80E0      		ldi r24,lo8(0)
 967 0346 61E0      		ldi r22,lo8(1)
 968 0348 AF01      		movw r20,r30
 969 034a 21E0      		ldi r18,lo8(1)
 970 034c 0E94 0000 		call nRF24L01P_ReadWrite_Register
 971               	.LM150:
 972 0350 E091 0000 		lds r30,nRF24L01P
 973 0354 F091 0000 		lds r31,(nRF24L01P)+1
 974 0358 8181      		ldd r24,Z+1
 975 035a 81FF      		sbrs r24,1
 976 035c 00C0      		rjmp .L88
 977               	.LM151:
 978 035e 80FF      		sbrs r24,0
 979 0360 00C0      		rjmp .L89
 980               	.LM152:
 981 0362 81E0      		ldi r24,lo8(1)
 982 0364 00C0      		rjmp .L91
 983               	.L89:
 984               	.LM153:
 985 0366 82E0      		ldi r24,lo8(2)
 986               	.L91:
 987 0368 8083      		st Z,r24
 988 036a 0895      		ret
 989               	.L88:
 990               	.LM154:
 991 036c 1082      		st Z,__zero_reg__
 992 036e 80E0      		ldi r24,lo8(0)
 993               	.LM155:
 994 0370 0895      		ret
 995               	.LFE32:
 997               	.global	nRF24L01P_Set_Mode_Sleep
 999               	nRF24L01P_Set_Mode_Sleep:
 1000               	.LFB33:
 1001               	.LM156:
 1002               	/* prologue: function */
 1003               	/* frame size = 0 */
 1004               	.LBB246:
 1005               	.LBB247:
 1006               	.LBB248:
 1007               	.LBB249:
 1008               	.LM157:
 1009 0372 E091 0000 		lds r30,nRF24L01P
 1010 0376 F091 0000 		lds r31,(nRF24L01P)+1
 1011               	.LBE249:
 1012               	.LBE248:
 1013               	.LM158:
 1014 037a 8289      		ldd r24,Z+18
 1015 037c 8823      		tst r24
 1016 037e 01F4      		brne .L94
 1017               	.LBE247:
 1018               	.LBE246:
 1019               	.LM159:
 1020 0380 1182      		std Z+1,__zero_reg__
 1021               	.LM160:
 1022 0382 3196      		adiw r30,1
 1023 0384 60E0      		ldi r22,lo8(0)
 1024 0386 AF01      		movw r20,r30
 1025 0388 21E0      		ldi r18,lo8(1)
 1026 038a 0E94 0000 		call nRF24L01P_ReadWrite_Register
 1027               	.LM161:
 1028 038e E091 0000 		lds r30,nRF24L01P
 1029 0392 F091 0000 		lds r31,(nRF24L01P)+1
 1030 0396 1082      		st Z,__zero_reg__
 1031               	.L94:
 1032 0398 0895      		ret
 1033               	.LFE33:
 1035               	.global	nRF24L01P_Set_Mode_Tx
 1037               	nRF24L01P_Set_Mode_Tx:
 1038               	.LFB34:
 1039               	.LM162:
 1040               	/* prologue: function */
 1041               	/* frame size = 0 */
 1042               	.LBB250:
 1043               	.LBB251:
 1044               	.LBB252:
 1045               	.LBB253:
 1046               	.LM163:
 1047 039a E091 0000 		lds r30,nRF24L01P
 1048 039e F091 0000 		lds r31,(nRF24L01P)+1
 1049               	.LBE253:
 1050               	.LBE252:
 1051               	.LM164:
 1052 03a2 8289      		ldd r24,Z+18
 1053 03a4 8823      		tst r24
 1054 03a6 01F4      		brne .L97
 1055               	.LBE251:
 1056               	.LBE250:
 1057               	.LM165:
 1058 03a8 82E7      		ldi r24,lo8(114)
 1059 03aa 8183      		std Z+1,r24
 1060               	.LBB254:
 1061               	.LBB255:
 1062               	.LM166:
 1063 03ac 2998      		cbi 37-32,1
 1064               	.LBE255:
 1065               	.LBE254:
 1066               	.LM167:
 1067 03ae 3196      		adiw r30,1
 1068 03b0 80E0      		ldi r24,lo8(0)
 1069 03b2 60E0      		ldi r22,lo8(0)
 1070 03b4 AF01      		movw r20,r30
 1071 03b6 21E0      		ldi r18,lo8(1)
 1072 03b8 0E94 0000 		call nRF24L01P_ReadWrite_Register
 1073               	.LM168:
 1074 03bc 0E94 0000 		call nRF24L01P_Flush_Transmit_Buffer
 1075               	.LM169:
 1076 03c0 E091 0000 		lds r30,nRF24L01P
 1077 03c4 F091 0000 		lds r31,(nRF24L01P)+1
 1078 03c8 82E0      		ldi r24,lo8(2)
 1079 03ca 8083      		st Z,r24
 1080               	.L97:
 1081 03cc 0895      		ret
 1082               	.LFE34:
 1084               	.global	nRF24L01P_Set_Mode_Rx
 1086               	nRF24L01P_Set_Mode_Rx:
 1087               	.LFB35:
 1088               	.LM170:
 1089               	/* prologue: function */
 1090               	/* frame size = 0 */
 1091               	.LBB256:
 1092               	.LBB257:
 1093               	.LBB258:
 1094               	.LBB259:
 1095               	.LM171:
 1096 03ce E091 0000 		lds r30,nRF24L01P
 1097 03d2 F091 0000 		lds r31,(nRF24L01P)+1
 1098               	.LBE259:
 1099               	.LBE258:
 1100               	.LM172:
 1101 03d6 8289      		ldd r24,Z+18
 1102 03d8 8823      		tst r24
 1103 03da 01F4      		brne .L100
 1104               	.LBE257:
 1105               	.LBE256:
 1106               	.LM173:
 1107 03dc 83E7      		ldi r24,lo8(115)
 1108 03de 8183      		std Z+1,r24
 1109               	.LBB260:
 1110               	.LBB261:
 1111               	.LM174:
 1112 03e0 299A      		sbi 37-32,1
 1113               	.LBE261:
 1114               	.LBE260:
 1115               	.LM175:
 1116 03e2 3196      		adiw r30,1
 1117 03e4 80E0      		ldi r24,lo8(0)
 1118 03e6 60E0      		ldi r22,lo8(0)
 1119 03e8 AF01      		movw r20,r30
 1120 03ea 21E0      		ldi r18,lo8(1)
 1121 03ec 0E94 0000 		call nRF24L01P_ReadWrite_Register
 1122               	.LM176:
 1123 03f0 E091 0000 		lds r30,nRF24L01P
 1124 03f4 F091 0000 		lds r31,(nRF24L01P)+1
 1125 03f8 81E0      		ldi r24,lo8(1)
 1126 03fa 8083      		st Z,r24
 1127               	.L100:
 1128 03fc 0895      		ret
 1129               	.LFE35:
 1131               	.global	nRF24L01P_ReadModifyWrite
 1133               	nRF24L01P_ReadModifyWrite:
 1134               	.LFB36:
 1135               	.LM177:
 1136               	.LVL55:
 1137 03fe FF92      		push r15
 1138 0400 0F93      		push r16
 1139 0402 1F93      		push r17
 1140               	/* prologue: function */
 1141               	/* frame size = 0 */
 1142 0404 F82E      		mov r15,r24
 1143 0406 162F      		mov r17,r22
 1144 0408 042F      		mov r16,r20
 1145               	.LBB262:
 1146               	.LBB263:
 1147               	.LBB264:
 1148               	.LBB265:
 1149               	.LM178:
 1150 040a E091 0000 		lds r30,nRF24L01P
 1151 040e F091 0000 		lds r31,(nRF24L01P)+1
 1152               	.LBE265:
 1153               	.LBE264:
 1154               	.LM179:
 1155 0412 8289      		ldd r24,Z+18
 1156               	.LVL56:
 1157 0414 8823      		tst r24
 1158 0416 01F4      		brne .L105
 1159               	.LVL57:
 1160               	.LBE263:
 1161               	.LBE262:
 1162               	.LM180:
 1163 0418 3196      		adiw r30,1
 1164 041a 8F2D      		mov r24,r15
 1165 041c 61E0      		ldi r22,lo8(1)
 1166 041e AF01      		movw r20,r30
 1167 0420 21E0      		ldi r18,lo8(1)
 1168 0422 0E94 0000 		call nRF24L01P_ReadWrite_Register
 1169 0426 E091 0000 		lds r30,nRF24L01P
 1170 042a F091 0000 		lds r31,(nRF24L01P)+1
 1171               	.LM181:
 1172 042e 0023      		tst r16
 1173 0430 01F0      		breq .L103
 1174               	.LM182:
 1175 0432 81E0      		ldi r24,lo8(1)
 1176 0434 90E0      		ldi r25,hi8(1)
 1177 0436 00C0      		rjmp 2f
 1178 0438 880F      	1:	lsl r24
 1179 043a 991F      		rol r25
 1180 043c 1A95      	2:	dec r17
 1181 043e 02F4      		brpl 1b
 1182 0440 2181      		ldd r18,Z+1
 1183 0442 282B      		or r18,r24
 1184 0444 00C0      		rjmp .L106
 1185               	.L103:
 1186               	.LM183:
 1187 0446 81E0      		ldi r24,lo8(1)
 1188 0448 90E0      		ldi r25,hi8(1)
 1189 044a 00C0      		rjmp 2f
 1190 044c 880F      	1:	lsl r24
 1191 044e 991F      		rol r25
 1192 0450 1A95      	2:	dec r17
 1193 0452 02F4      		brpl 1b
 1194 0454 8095      		com r24
 1195 0456 2181      		ldd r18,Z+1
 1196 0458 2823      		and r18,r24
 1197               	.L106:
 1198 045a 2183      		std Z+1,r18
 1199               	.LM184:
 1200 045c 4091 0000 		lds r20,nRF24L01P
 1201 0460 5091 0000 		lds r21,(nRF24L01P)+1
 1202 0464 4F5F      		subi r20,lo8(-(1))
 1203 0466 5F4F      		sbci r21,hi8(-(1))
 1204 0468 8F2D      		mov r24,r15
 1205 046a 60E0      		ldi r22,lo8(0)
 1206 046c 21E0      		ldi r18,lo8(1)
 1207 046e 0E94 0000 		call nRF24L01P_ReadWrite_Register
 1208               	.LVL58:
 1209               	.L105:
 1210               	/* epilogue start */
 1211               	.LM185:
 1212 0472 1F91      		pop r17
 1213               	.LVL59:
 1214 0474 0F91      		pop r16
 1215               	.LVL60:
 1216 0476 FF90      		pop r15
 1217               	.LVL61:
 1218 0478 0895      		ret
 1219               	.LFE36:
 1221               	.global	nRF24L01P_Get_Channel
 1223               	nRF24L01P_Get_Channel:
 1224               	.LFB37:
 1225               	.LM186:
 1226               	/* prologue: function */
 1227               	/* frame size = 0 */
 1228               	.LBB266:
 1229               	.LBB267:
 1230               	.LBB268:
 1231               	.LBB269:
 1232               	.LM187:
 1233 047a E091 0000 		lds r30,nRF24L01P
 1234 047e F091 0000 		lds r31,(nRF24L01P)+1
 1235               	.LBE269:
 1236               	.LBE268:
 1237               	.LM188:
 1238 0482 8289      		ldd r24,Z+18
 1239 0484 8823      		tst r24
 1240 0486 01F0      		breq .L108
 1241 0488 80E0      		ldi r24,lo8(0)
 1242 048a 0895      		ret
 1243               	.L108:
 1244               	.LBE267:
 1245               	.LBE266:
 1246               	.LM189:
 1247 048c 3196      		adiw r30,1
 1248 048e 85E0      		ldi r24,lo8(5)
 1249 0490 61E0      		ldi r22,lo8(1)
 1250 0492 AF01      		movw r20,r30
 1251 0494 21E0      		ldi r18,lo8(1)
 1252 0496 0E94 0000 		call nRF24L01P_ReadWrite_Register
 1253               	.LM190:
 1254 049a E091 0000 		lds r30,nRF24L01P
 1255 049e F091 0000 		lds r31,(nRF24L01P)+1
 1256 04a2 8181      		ldd r24,Z+1
 1257               	.LM191:
 1258 04a4 0895      		ret
 1259               	.LFE37:
 1261               	.global	nRF24L01P_Set_Channel
 1263               	nRF24L01P_Set_Channel:
 1264               	.LFB38:
 1265               	.LM192:
 1266               	.LVL62:
 1267               	/* prologue: function */
 1268               	/* frame size = 0 */
 1269 04a6 982F      		mov r25,r24
 1270               	.LBB270:
 1271               	.LBB271:
 1272               	.LBB272:
 1273               	.LBB273:
 1274               	.LM193:
 1275 04a8 E091 0000 		lds r30,nRF24L01P
 1276 04ac F091 0000 		lds r31,(nRF24L01P)+1
 1277               	.LBE273:
 1278               	.LBE272:
 1279               	.LM194:
 1280 04b0 8289      		ldd r24,Z+18
 1281               	.LVL63:
 1282 04b2 8823      		tst r24
 1283 04b4 01F4      		brne .L114
 1284               	.LBE271:
 1285               	.LBE270:
 1286               	.LM195:
 1287 04b6 892F      		mov r24,r25
 1288 04b8 9E37      		cpi r25,lo8(126)
 1289 04ba 00F0      		brlo .L113
 1290 04bc 8DE7      		ldi r24,lo8(125)
 1291               	.LVL64:
 1292               	.L113:
 1293 04be 8183      		std Z+1,r24
 1294               	.LM196:
 1295 04c0 3196      		adiw r30,1
 1296 04c2 85E0      		ldi r24,lo8(5)
 1297               	.LVL65:
 1298 04c4 60E0      		ldi r22,lo8(0)
 1299 04c6 AF01      		movw r20,r30
 1300 04c8 21E0      		ldi r18,lo8(1)
 1301 04ca 0E94 0000 		call nRF24L01P_ReadWrite_Register
 1302               	.LVL66:
 1303               	.L114:
 1304 04ce 0895      		ret
 1305               	.LFE38:
 1307               	.global	nRF24L01P_Get_Speed
 1309               	nRF24L01P_Get_Speed:
 1310               	.LFB39:
 1311               	.LM197:
 1312               	/* prologue: function */
 1313               	/* frame size = 0 */
 1314               	.LBB274:
 1315               	.LBB275:
 1316               	.LBB276:
 1317               	.LBB277:
 1318               	.LM198:
 1319 04d0 E091 0000 		lds r30,nRF24L01P
 1320 04d4 F091 0000 		lds r31,(nRF24L01P)+1
 1321               	.LBE277:
 1322               	.LBE276:
 1323               	.LM199:
 1324 04d8 8289      		ldd r24,Z+18
 1325 04da 8823      		tst r24
 1326 04dc 01F0      		breq .L116
 1327 04de 80E0      		ldi r24,lo8(0)
 1328 04e0 0895      		ret
 1329               	.L116:
 1330               	.LBE275:
 1331               	.LBE274:
 1332               	.LM200:
 1333 04e2 3196      		adiw r30,1
 1334 04e4 86E0      		ldi r24,lo8(6)
 1335 04e6 61E0      		ldi r22,lo8(1)
 1336 04e8 AF01      		movw r20,r30
 1337 04ea 21E0      		ldi r18,lo8(1)
 1338 04ec 0E94 0000 		call nRF24L01P_ReadWrite_Register
 1339               	.LM201:
 1340 04f0 E091 0000 		lds r30,nRF24L01P
 1341 04f4 F091 0000 		lds r31,(nRF24L01P)+1
 1342 04f8 9181      		ldd r25,Z+1
 1343 04fa 9695      		lsr r25
 1344 04fc 9695      		lsr r25
 1345 04fe 9695      		lsr r25
 1346               	.LM202:
 1347 0500 892F      		mov r24,r25
 1348 0502 8695      		lsr r24
 1349 0504 8270      		andi r24,lo8(2)
 1350 0506 8183      		std Z+1,r24
 1351               	.LM203:
 1352 0508 9170      		andi r25,lo8(1)
 1353               	.LM204:
 1354 050a 892B      		or r24,r25
 1355 050c 8283      		std Z+2,r24
 1356               	.LM205:
 1357 050e 8230      		cpi r24,lo8(2)
 1358 0510 01F4      		brne .L118
 1359               	.LM206:
 1360 0512 1182      		std Z+1,__zero_reg__
 1361 0514 00C0      		rjmp .L119
 1362               	.L118:
 1363               	.LM207:
 1364 0516 8130      		cpi r24,lo8(1)
 1365 0518 01F0      		breq .L122
 1366               	.L120:
 1367               	.LM208:
 1368 051a 8823      		tst r24
 1369 051c 01F4      		brne .L119
 1370               	.LM209:
 1371 051e 82E0      		ldi r24,lo8(2)
 1372               	.L122:
 1373 0520 8183      		std Z+1,r24
 1374               	.L119:
 1375               	.LM210:
 1376 0522 8181      		ldd r24,Z+1
 1377               	.LM211:
 1378 0524 0895      		ret
 1379               	.LFE39:
 1381               	.global	nRF24L01P_Set_Speed
 1383               	nRF24L01P_Set_Speed:
 1384               	.LFB40:
 1385               	.LM212:
 1386               	.LVL67:
 1387               	/* prologue: function */
 1388               	/* frame size = 0 */
 1389 0526 982F      		mov r25,r24
 1390               	.LBB278:
 1391               	.LBB279:
 1392               	.LM213:
 1393 0528 E091 0000 		lds r30,nRF24L01P
 1394 052c F091 0000 		lds r31,(nRF24L01P)+1
 1395 0530 8289      		ldd r24,Z+18
 1396               	.LVL68:
 1397 0532 8823      		tst r24
 1398 0534 01F4      		brne .L128
 1399               	.LBE279:
 1400               	.LBE278:
 1401               	.LM214:
 1402 0536 9923      		tst r25
 1403 0538 01F4      		brne .L125
 1404               	.LM215:
 1405 053a 86E0      		ldi r24,lo8(6)
 1406 053c 65E0      		ldi r22,lo8(5)
 1407 053e 41E0      		ldi r20,lo8(1)
 1408 0540 00C0      		rjmp .L130
 1409               	.L125:
 1410               	.LM216:
 1411 0542 9130      		cpi r25,lo8(1)
 1412 0544 01F4      		brne .L126
 1413               	.LM217:
 1414 0546 86E0      		ldi r24,lo8(6)
 1415 0548 65E0      		ldi r22,lo8(5)
 1416 054a 40E0      		ldi r20,lo8(0)
 1417               	.L130:
 1418 054c 0E94 0000 		call nRF24L01P_ReadModifyWrite
 1419               	.LVL69:
 1420               	.LM218:
 1421 0550 86E0      		ldi r24,lo8(6)
 1422 0552 63E0      		ldi r22,lo8(3)
 1423 0554 40E0      		ldi r20,lo8(0)
 1424 0556 00C0      		rjmp .L129
 1425               	.LVL70:
 1426               	.L126:
 1427               	.LM219:
 1428 0558 9230      		cpi r25,lo8(2)
 1429 055a 01F4      		brne .L127
 1430               	.LM220:
 1431 055c 86E0      		ldi r24,lo8(6)
 1432 055e 65E0      		ldi r22,lo8(5)
 1433 0560 40E0      		ldi r20,lo8(0)
 1434 0562 0E94 0000 		call nRF24L01P_ReadModifyWrite
 1435               	.LVL71:
 1436               	.LM221:
 1437 0566 86E0      		ldi r24,lo8(6)
 1438 0568 63E0      		ldi r22,lo8(3)
 1439 056a 41E0      		ldi r20,lo8(1)
 1440               	.L129:
 1441 056c 0E94 0000 		call nRF24L01P_ReadModifyWrite
 1442 0570 0895      		ret
 1443               	.LVL72:
 1444               	.L127:
 1445               	.LM222:
 1446 0572 86E0      		ldi r24,lo8(6)
 1447 0574 65E0      		ldi r22,lo8(5)
 1448 0576 40E0      		ldi r20,lo8(0)
 1449 0578 0E94 0000 		call nRF24L01P_ReadModifyWrite
 1450               	.LVL73:
 1451               	.LM223:
 1452 057c 86E0      		ldi r24,lo8(6)
 1453 057e 63E0      		ldi r22,lo8(3)
 1454 0580 41E0      		ldi r20,lo8(1)
 1455 0582 0E94 0000 		call nRF24L01P_ReadModifyWrite
 1456               	.LVL74:
 1457               	.L128:
 1458 0586 0895      		ret
 1459               	.LFE40:
 1461               	.global	nRF24L01P_Get_Tx_Power
 1463               	nRF24L01P_Get_Tx_Power:
 1464               	.LFB41:
 1465               	.LM224:
 1466               	/* prologue: function */
 1467               	/* frame size = 0 */
 1468               	.LBB280:
 1469               	.LBB281:
 1470               	.LBB282:
 1471               	.LBB283:
 1472               	.LM225:
 1473 0588 E091 0000 		lds r30,nRF24L01P
 1474 058c F091 0000 		lds r31,(nRF24L01P)+1
 1475               	.LBE283:
 1476               	.LBE282:
 1477               	.LM226:
 1478 0590 8289      		ldd r24,Z+18
 1479 0592 8823      		tst r24
 1480 0594 01F0      		breq .L132
 1481 0596 80E0      		ldi r24,lo8(0)
 1482 0598 0895      		ret
 1483               	.L132:
 1484               	.LBE281:
 1485               	.LBE280:
 1486               	.LM227:
 1487 059a 3196      		adiw r30,1
 1488 059c 86E0      		ldi r24,lo8(6)
 1489 059e 61E0      		ldi r22,lo8(1)
 1490 05a0 AF01      		movw r20,r30
 1491 05a2 21E0      		ldi r18,lo8(1)
 1492 05a4 0E94 0000 		call nRF24L01P_ReadWrite_Register
 1493               	.LM228:
 1494 05a8 E091 0000 		lds r30,nRF24L01P
 1495 05ac F091 0000 		lds r31,(nRF24L01P)+1
 1496               	.LM229:
 1497 05b0 8181      		ldd r24,Z+1
 1498 05b2 8695      		lsr r24
 1499 05b4 8370      		andi r24,lo8(3)
 1500 05b6 8183      		std Z+1,r24
 1501               	.LM230:
 1502 05b8 0895      		ret
 1503               	.LFE41:
 1505               	.global	nRF24L01P_Set_Tx_Power
 1507               	nRF24L01P_Set_Tx_Power:
 1508               	.LFB42:
 1509               	.LM231:
 1510               	.LVL75:
 1511               	/* prologue: function */
 1512               	/* frame size = 0 */
 1513 05ba 982F      		mov r25,r24
 1514               	.LBB284:
 1515               	.LBB285:
 1516               	.LM232:
 1517 05bc E091 0000 		lds r30,nRF24L01P
 1518 05c0 F091 0000 		lds r31,(nRF24L01P)+1
 1519 05c4 8289      		ldd r24,Z+18
 1520               	.LVL76:
 1521 05c6 8823      		tst r24
 1522 05c8 01F4      		brne .L141
 1523               	.LBE285:
 1524               	.LBE284:
 1525               	.LM233:
 1526 05ca 9923      		tst r25
 1527 05cc 01F4      		brne .L137
 1528               	.LM234:
 1529 05ce 86E0      		ldi r24,lo8(6)
 1530 05d0 62E0      		ldi r22,lo8(2)
 1531 05d2 40E0      		ldi r20,lo8(0)
 1532 05d4 00C0      		rjmp .L143
 1533               	.L137:
 1534               	.LM235:
 1535 05d6 9130      		cpi r25,lo8(1)
 1536 05d8 01F4      		brne .L138
 1537               	.LM236:
 1538 05da 86E0      		ldi r24,lo8(6)
 1539 05dc 62E0      		ldi r22,lo8(2)
 1540 05de 40E0      		ldi r20,lo8(0)
 1541 05e0 00C0      		rjmp .L144
 1542               	.L138:
 1543               	.LM237:
 1544 05e2 9230      		cpi r25,lo8(2)
 1545 05e4 01F4      		brne .L139
 1546               	.LM238:
 1547 05e6 86E0      		ldi r24,lo8(6)
 1548 05e8 62E0      		ldi r22,lo8(2)
 1549 05ea 41E0      		ldi r20,lo8(1)
 1550               	.L143:
 1551 05ec 0E94 0000 		call nRF24L01P_ReadModifyWrite
 1552               	.LVL77:
 1553               	.LM239:
 1554 05f0 86E0      		ldi r24,lo8(6)
 1555 05f2 61E0      		ldi r22,lo8(1)
 1556 05f4 40E0      		ldi r20,lo8(0)
 1557 05f6 00C0      		rjmp .L142
 1558               	.LVL78:
 1559               	.L139:
 1560               	.LM240:
 1561 05f8 9330      		cpi r25,lo8(3)
 1562 05fa 01F4      		brne .L140
 1563               	.LM241:
 1564 05fc 86E0      		ldi r24,lo8(6)
 1565 05fe 62E0      		ldi r22,lo8(2)
 1566 0600 41E0      		ldi r20,lo8(1)
 1567               	.L144:
 1568 0602 0E94 0000 		call nRF24L01P_ReadModifyWrite
 1569               	.LVL79:
 1570               	.LM242:
 1571 0606 86E0      		ldi r24,lo8(6)
 1572 0608 61E0      		ldi r22,lo8(1)
 1573 060a 41E0      		ldi r20,lo8(1)
 1574               	.L142:
 1575 060c 0E94 0000 		call nRF24L01P_ReadModifyWrite
 1576 0610 0895      		ret
 1577               	.LVL80:
 1578               	.L140:
 1579               	.LM243:
 1580 0612 86E0      		ldi r24,lo8(6)
 1581 0614 62E0      		ldi r22,lo8(2)
 1582 0616 41E0      		ldi r20,lo8(1)
 1583 0618 0E94 0000 		call nRF24L01P_ReadModifyWrite
 1584               	.LVL81:
 1585               	.LM244:
 1586 061c 86E0      		ldi r24,lo8(6)
 1587 061e 61E0      		ldi r22,lo8(1)
 1588 0620 41E0      		ldi r20,lo8(1)
 1589 0622 0E94 0000 		call nRF24L01P_ReadModifyWrite
 1590               	.LVL82:
 1591               	.L141:
 1592 0626 0895      		ret
 1593               	.LFE42:
 1595               	.global	nRF24L01P_Set_Own_Address
 1597               	nRF24L01P_Set_Own_Address:
 1598               	.LFB43:
 1599               	.LM245:
 1600               	.LVL83:
 1601               	/* prologue: function */
 1602               	/* frame size = 0 */
 1603               	.LM246:
 1604 0628 E091 0000 		lds r30,nRF24L01P
 1605 062c F091 0000 		lds r31,(nRF24L01P)+1
 1606 0630 8383      		std Z+3,r24
 1607               	/* epilogue start */
 1608               	.LM247:
 1609 0632 0895      		ret
 1610               	.LFE43:
 1612               	.global	nRF24L01P_Set_Destination_Address
 1614               	nRF24L01P_Set_Destination_Address:
 1615               	.LFB44:
 1616               	.LM248:
 1617               	.LVL84:
 1618               	/* prologue: function */
 1619               	/* frame size = 0 */
 1620               	.LM249:
 1621 0634 E091 0000 		lds r30,nRF24L01P
 1622 0638 F091 0000 		lds r31,(nRF24L01P)+1
 1623 063c 8483      		std Z+4,r24
 1624               	/* epilogue start */
 1625               	.LM250:
 1626 063e 0895      		ret
 1627               	.LFE44:
 1629               	.global	nRF24L01P_Set_Receive_Timeout
 1631               	nRF24L01P_Set_Receive_Timeout:
 1632               	.LFB45:
 1633               	.LM251:
 1634               	.LVL85:
 1635               	/* prologue: function */
 1636               	/* frame size = 0 */
 1637               	.LM252:
 1638 0640 E091 0000 		lds r30,nRF24L01P
 1639 0644 F091 0000 		lds r31,(nRF24L01P)+1
 1640 0648 9683      		std Z+6,r25
 1641 064a 8583      		std Z+5,r24
 1642               	/* epilogue start */
 1643               	.LM253:
 1644 064c 0895      		ret
 1645               	.LFE45:
 1647               	.global	nRF24L01P_Set_MaxRetransmission
 1649               	nRF24L01P_Set_MaxRetransmission:
 1650               	.LFB46:
 1651               	.LM254:
 1652               	.LVL86:
 1653               	/* prologue: function */
 1654               	/* frame size = 0 */
 1655               	.LM255:
 1656 064e E091 0000 		lds r30,nRF24L01P
 1657 0652 F091 0000 		lds r31,(nRF24L01P)+1
 1658 0656 9387      		std Z+11,r25
 1659 0658 8287      		std Z+10,r24
 1660               	/* epilogue start */
 1661               	.LM256:
 1662 065a 0895      		ret
 1663               	.LFE46:
 1665               	.global	nRF24L01P_Deep_Sleep
 1667               	nRF24L01P_Deep_Sleep:
 1668               	.LFB47:
 1669               	.LM257:
 1670               	/* prologue: function */
 1671               	/* frame size = 0 */
 1672               	.LM258:
 1673 065c E091 0000 		lds r30,nRF24L01P
 1674 0660 F091 0000 		lds r31,(nRF24L01P)+1
 1675 0664 8081      		ld r24,Z
 1676 0666 8823      		tst r24
 1677 0668 01F0      		breq .L155
 1678               	.LM259:
 1679 066a 0E94 0000 		call nRF24L01P_Set_Mode_Sleep
 1680               	.LM260:
 1681 066e 0E94 0000 		call nRF24L01P_Disable
 1682               	.L155:
 1683 0672 0895      		ret
 1684               	.LFE47:
 1686               	.global	nRF24L01P_WakeUp
 1688               	nRF24L01P_WakeUp:
 1689               	.LFB48:
 1690               	.LM261:
 1691               	/* prologue: function */
 1692               	/* frame size = 0 */
 1693               	.LM262:
 1694 0674 E091 0000 		lds r30,nRF24L01P
 1695 0678 F091 0000 		lds r31,(nRF24L01P)+1
 1696 067c 8081      		ld r24,Z
 1697 067e 8823      		tst r24
 1698 0680 01F4      		brne .L158
 1699               	.LM263:
 1700 0682 0E94 0000 		call nRF24L01P_Enable
 1701               	.LM264:
 1702 0686 0E94 0000 		call nRF24L01P_Set_Mode_Rx
 1703               	.L158:
 1704 068a 0895      		ret
 1705               	.LFE48:
 1707               		.data
 1708               	.LC0:
 1709 0000 4143 4B30 		.string	"ACK00"
 1709      3000 
 1710               	.LC1:
 1711 0006 5049 5045 		.string	"PIPE1"
 1711      3100 
 1712               	.LC2:
 1713 000c 5049 5045 		.string	"PIPE2"
 1713      3200 
 1714               	.LC3:
 1715 0012 5049 5045 		.string	"PIPE3"
 1715      3300 
 1716               	.LC4:
 1717 0018 5049 5045 		.string	"PIPE4"
 1717      3400 
 1718               	.LC5:
 1719 001e 5049 5045 		.string	"PIPE5"
 1719      3500 
 1720               		.text
 1721               	.global	nRF24L01P_Init
 1723               	nRF24L01P_Init:
 1724               	.LFB49:
 1725               	.LM265:
 1726 068c 0F93      		push r16
 1727 068e 1F93      		push r17
 1728               	/* prologue: function */
 1729               	/* frame size = 0 */
 1730               	.LM266:
 1731 0690 0E94 0000 		call nRF24L01P_Struct_Init
 1732               	.LM267:
 1733 0694 0E94 0000 		call nRF24L01P_Enable
 1734               	.LM268:
 1735 0698 E091 0000 		lds r30,nRF24L01P
 1736 069c F091 0000 		lds r31,(nRF24L01P)+1
 1737 06a0 1182      		std Z+1,__zero_reg__
 1738 06a2 3196      		adiw r30,1
 1739 06a4 80E0      		ldi r24,lo8(0)
 1740 06a6 60E0      		ldi r22,lo8(0)
 1741 06a8 AF01      		movw r20,r30
 1742 06aa 21E0      		ldi r18,lo8(1)
 1743 06ac 0E94 0000 		call nRF24L01P_ReadWrite_Register
 1744               	.LM269:
 1745 06b0 E091 0000 		lds r30,nRF24L01P
 1746 06b4 F091 0000 		lds r31,(nRF24L01P)+1
 1747 06b8 1182      		std Z+1,__zero_reg__
 1748 06ba 3196      		adiw r30,1
 1749 06bc 81E0      		ldi r24,lo8(1)
 1750 06be 60E0      		ldi r22,lo8(0)
 1751 06c0 AF01      		movw r20,r30
 1752 06c2 21E0      		ldi r18,lo8(1)
 1753 06c4 0E94 0000 		call nRF24L01P_ReadWrite_Register
 1754               	.LM270:
 1755 06c8 E091 0000 		lds r30,nRF24L01P
 1756 06cc F091 0000 		lds r31,(nRF24L01P)+1
 1757 06d0 83E0      		ldi r24,lo8(3)
 1758 06d2 8183      		std Z+1,r24
 1759 06d4 3196      		adiw r30,1
 1760 06d6 82E0      		ldi r24,lo8(2)
 1761 06d8 60E0      		ldi r22,lo8(0)
 1762 06da AF01      		movw r20,r30
 1763 06dc 21E0      		ldi r18,lo8(1)
 1764 06de 0E94 0000 		call nRF24L01P_ReadWrite_Register
 1765               	.LM271:
 1766 06e2 E091 0000 		lds r30,nRF24L01P
 1767 06e6 F091 0000 		lds r31,(nRF24L01P)+1
 1768 06ea 81E0      		ldi r24,lo8(1)
 1769 06ec 8183      		std Z+1,r24
 1770 06ee 3196      		adiw r30,1
 1771 06f0 83E0      		ldi r24,lo8(3)
 1772 06f2 60E0      		ldi r22,lo8(0)
 1773 06f4 AF01      		movw r20,r30
 1774 06f6 21E0      		ldi r18,lo8(1)
 1775 06f8 0E94 0000 		call nRF24L01P_ReadWrite_Register
 1776               	.LM272:
 1777 06fc E091 0000 		lds r30,nRF24L01P
 1778 0700 F091 0000 		lds r31,(nRF24L01P)+1
 1779 0704 1182      		std Z+1,__zero_reg__
 1780 0706 3196      		adiw r30,1
 1781 0708 84E0      		ldi r24,lo8(4)
 1782 070a 60E0      		ldi r22,lo8(0)
 1783 070c AF01      		movw r20,r30
 1784 070e 21E0      		ldi r18,lo8(1)
 1785 0710 0E94 0000 		call nRF24L01P_ReadWrite_Register
 1786               	.LM273:
 1787 0714 E091 0000 		lds r30,nRF24L01P
 1788 0718 F091 0000 		lds r31,(nRF24L01P)+1
 1789 071c 82E0      		ldi r24,lo8(2)
 1790 071e 8183      		std Z+1,r24
 1791 0720 3196      		adiw r30,1
 1792 0722 85E0      		ldi r24,lo8(5)
 1793 0724 60E0      		ldi r22,lo8(0)
 1794 0726 AF01      		movw r20,r30
 1795 0728 21E0      		ldi r18,lo8(1)
 1796 072a 0E94 0000 		call nRF24L01P_ReadWrite_Register
 1797               	.LM274:
 1798 072e E091 0000 		lds r30,nRF24L01P
 1799 0732 F091 0000 		lds r31,(nRF24L01P)+1
 1800 0736 86E2      		ldi r24,lo8(38)
 1801 0738 8183      		std Z+1,r24
 1802 073a 3196      		adiw r30,1
 1803 073c 86E0      		ldi r24,lo8(6)
 1804 073e 60E0      		ldi r22,lo8(0)
 1805 0740 AF01      		movw r20,r30
 1806 0742 21E0      		ldi r18,lo8(1)
 1807 0744 0E94 0000 		call nRF24L01P_ReadWrite_Register
 1808               	.LM275:
 1809 0748 E091 0000 		lds r30,nRF24L01P
 1810 074c F091 0000 		lds r31,(nRF24L01P)+1
 1811 0750 80E7      		ldi r24,lo8(112)
 1812 0752 8183      		std Z+1,r24
 1813 0754 3196      		adiw r30,1
 1814 0756 87E0      		ldi r24,lo8(7)
 1815 0758 60E0      		ldi r22,lo8(0)
 1816 075a AF01      		movw r20,r30
 1817 075c 21E0      		ldi r18,lo8(1)
 1818 075e 0E94 0000 		call nRF24L01P_ReadWrite_Register
 1819               	.LM276:
 1820 0762 E091 0000 		lds r30,nRF24L01P
 1821 0766 F091 0000 		lds r31,(nRF24L01P)+1
 1822 076a 10E2      		ldi r17,lo8(32)
 1823 076c 1183      		std Z+1,r17
 1824               	.LM277:
 1825 076e 3196      		adiw r30,1
 1826 0770 81E1      		ldi r24,lo8(17)
 1827 0772 60E0      		ldi r22,lo8(0)
 1828 0774 AF01      		movw r20,r30
 1829 0776 21E0      		ldi r18,lo8(1)
 1830 0778 0E94 0000 		call nRF24L01P_ReadWrite_Register
 1831               	.LM278:
 1832 077c E091 0000 		lds r30,nRF24L01P
 1833 0780 F091 0000 		lds r31,(nRF24L01P)+1
 1834 0784 1183      		std Z+1,r17
 1835               	.LM279:
 1836 0786 3196      		adiw r30,1
 1837 0788 82E1      		ldi r24,lo8(18)
 1838 078a 60E0      		ldi r22,lo8(0)
 1839 078c AF01      		movw r20,r30
 1840 078e 21E0      		ldi r18,lo8(1)
 1841 0790 0E94 0000 		call nRF24L01P_ReadWrite_Register
 1842               	.LM280:
 1843 0794 E091 0000 		lds r30,nRF24L01P
 1844 0798 F091 0000 		lds r31,(nRF24L01P)+1
 1845 079c 1182      		std Z+1,__zero_reg__
 1846 079e 3196      		adiw r30,1
 1847 07a0 8CE1      		ldi r24,lo8(28)
 1848 07a2 60E0      		ldi r22,lo8(0)
 1849 07a4 AF01      		movw r20,r30
 1850 07a6 21E0      		ldi r18,lo8(1)
 1851 07a8 0E94 0000 		call nRF24L01P_ReadWrite_Register
 1852               	.LM281:
 1853 07ac E091 0000 		lds r30,nRF24L01P
 1854 07b0 F091 0000 		lds r31,(nRF24L01P)+1
 1855 07b4 1182      		std Z+1,__zero_reg__
 1856 07b6 3196      		adiw r30,1
 1857 07b8 8DE1      		ldi r24,lo8(29)
 1858 07ba 60E0      		ldi r22,lo8(0)
 1859 07bc AF01      		movw r20,r30
 1860 07be 21E0      		ldi r18,lo8(1)
 1861 07c0 0E94 0000 		call nRF24L01P_ReadWrite_Register
 1862               	.LM282:
 1863 07c4 00E0      		ldi r16,lo8(.LC0)
 1864 07c6 10E0      		ldi r17,hi8(.LC0)
 1865 07c8 80E1      		ldi r24,lo8(16)
 1866 07ca 60E0      		ldi r22,lo8(0)
 1867 07cc A801      		movw r20,r16
 1868 07ce 25E0      		ldi r18,lo8(5)
 1869 07d0 0E94 0000 		call nRF24L01P_ReadWrite_Register
 1870               	.LM283:
 1871 07d4 8AE0      		ldi r24,lo8(10)
 1872 07d6 60E0      		ldi r22,lo8(0)
 1873 07d8 A801      		movw r20,r16
 1874 07da 25E0      		ldi r18,lo8(5)
 1875 07dc 0E94 0000 		call nRF24L01P_ReadWrite_Register
 1876               	.LM284:
 1877 07e0 8BE0      		ldi r24,lo8(11)
 1878 07e2 60E0      		ldi r22,lo8(0)
 1879 07e4 40E0      		ldi r20,lo8(.LC1)
 1880 07e6 50E0      		ldi r21,hi8(.LC1)
 1881 07e8 25E0      		ldi r18,lo8(5)
 1882 07ea 0E94 0000 		call nRF24L01P_ReadWrite_Register
 1883               	.LM285:
 1884 07ee 8CE0      		ldi r24,lo8(12)
 1885 07f0 60E0      		ldi r22,lo8(0)
 1886 07f2 40E0      		ldi r20,lo8(.LC2)
 1887 07f4 50E0      		ldi r21,hi8(.LC2)
 1888 07f6 25E0      		ldi r18,lo8(5)
 1889 07f8 0E94 0000 		call nRF24L01P_ReadWrite_Register
 1890               	.LM286:
 1891 07fc 8DE0      		ldi r24,lo8(13)
 1892 07fe 60E0      		ldi r22,lo8(0)
 1893 0800 40E0      		ldi r20,lo8(.LC3)
 1894 0802 50E0      		ldi r21,hi8(.LC3)
 1895 0804 25E0      		ldi r18,lo8(5)
 1896 0806 0E94 0000 		call nRF24L01P_ReadWrite_Register
 1897               	.LM287:
 1898 080a 8EE0      		ldi r24,lo8(14)
 1899 080c 60E0      		ldi r22,lo8(0)
 1900 080e 40E0      		ldi r20,lo8(.LC4)
 1901 0810 50E0      		ldi r21,hi8(.LC4)
 1902 0812 25E0      		ldi r18,lo8(5)
 1903 0814 0E94 0000 		call nRF24L01P_ReadWrite_Register
 1904               	.LM288:
 1905 0818 8FE0      		ldi r24,lo8(15)
 1906 081a 60E0      		ldi r22,lo8(0)
 1907 081c 40E0      		ldi r20,lo8(.LC5)
 1908 081e 50E0      		ldi r21,hi8(.LC5)
 1909 0820 25E0      		ldi r18,lo8(5)
 1910 0822 0E94 0000 		call nRF24L01P_ReadWrite_Register
 1911               	.LBB286:
 1912               	.LBB287:
 1913               	.LM289:
 1914 0826 E091 0000 		lds r30,nRF24L01P
 1915 082a F091 0000 		lds r31,(nRF24L01P)+1
 1916 082e 80E2      		ldi r24,lo8(32)
 1917 0830 90E0      		ldi r25,hi8(32)
 1918 0832 9683      		std Z+6,r25
 1919 0834 8583      		std Z+5,r24
 1920               	.LBE287:
 1921               	.LBE286:
 1922               	.LM290:
 1923 0836 0E94 0000 		call nRF24L01P_Deep_Sleep
 1924               	/* epilogue start */
 1925               	.LM291:
 1926 083a 1F91      		pop r17
 1927 083c 0F91      		pop r16
 1928 083e 0895      		ret
 1929               	.LFE49:
 1931               	.global	nRF24L01P_Transmit_Basic
 1933               	nRF24L01P_Transmit_Basic:
 1934               	.LFB50:
 1935               	.LM292:
 1936               	.LVL87:
 1937 0840 FF92      		push r15
 1938 0842 0F93      		push r16
 1939 0844 1F93      		push r17
 1940               	/* prologue: function */
 1941               	/* frame size = 0 */
 1942 0846 8C01      		movw r16,r24
 1943 0848 F62E      		mov r15,r22
 1944               	.LBB288:
 1945               	.LBB289:
 1946               	.LM293:
 1947 084a E091 0000 		lds r30,nRF24L01P
 1948 084e F091 0000 		lds r31,(nRF24L01P)+1
 1949 0852 118A      		std Z+17,__zero_reg__
 1950 0854 108A      		std Z+16,__zero_reg__
 1951               	.LM294:
 1952 0856 128A      		std Z+18,__zero_reg__
 1953               	.LBE289:
 1954               	.LBE288:
 1955               	.LM295:
 1956 0858 0E94 0000 		call nRF24L01P_Set_Mode_Tx
 1957               	.LVL88:
 1958               	.LM296:
 1959 085c E091 0000 		lds r30,nRF24L01P
 1960 0860 F091 0000 		lds r31,(nRF24L01P)+1
 1961 0864 8381      		ldd r24,Z+3
 1962 0866 F801      		movw r30,r16
 1963 0868 838F      		std Z+27,r24
 1964               	.LM297:
 1965 086a E091 0000 		lds r30,nRF24L01P
 1966 086e F091 0000 		lds r31,(nRF24L01P)+1
 1967 0872 8481      		ldd r24,Z+4
 1968 0874 F801      		movw r30,r16
 1969 0876 848F      		std Z+28,r24
 1970               	.LM298:
 1971 0878 F58E      		std Z+29,r15
 1972               	.LM299:
 1973 087a C801      		movw r24,r16
 1974 087c 6EE1      		ldi r22,lo8(30)
 1975 087e 0E94 0000 		call nRF24L01P_Calcuate_CRC_Block
 1976               	.LM300:
 1977 0882 F801      		movw r30,r16
 1978 0884 968F      		std Z+30,r25
 1979               	.LM301:
 1980 0886 878F      		std Z+31,r24
 1981               	.LM302:
 1982 0888 C801      		movw r24,r16
 1983 088a 0E94 0000 		call nRF24L01P_Write_Data_To_Transmit_Buffer
 1984               	.LBB290:
 1985               	.LBB291:
 1986               	.LM303:
 1987 088e 299A      		sbi 37-32,1
 1988               	.LBE291:
 1989               	.LBE290:
 1990               	.LM304:
 1991 0890 0E94 0000 		call nRF24L01P_Wait_Till_Transmission_Completes
 1992               	.LBB292:
 1993               	.LBB293:
 1994               	.LM305:
 1995 0894 2998      		cbi 37-32,1
 1996               	/* epilogue start */
 1997               	.LBE293:
 1998               	.LBE292:
 1999               	.LM306:
 2000 0896 1F91      		pop r17
 2001 0898 0F91      		pop r16
 2002               	.LVL89:
 2003 089a FF90      		pop r15
 2004               	.LVL90:
 2005 089c 0895      		ret
 2006               	.LFE50:
 2008               	.global	nRF24L01P_Recieve_Basic
 2010               	nRF24L01P_Recieve_Basic:
 2011               	.LFB51:
 2012               	.LM307:
 2013               	.LVL91:
 2014 089e DF92      		push r13
 2015 08a0 EF92      		push r14
 2016 08a2 FF92      		push r15
 2017 08a4 0F93      		push r16
 2018 08a6 1F93      		push r17
 2019 08a8 CF93      		push r28
 2020 08aa DF93      		push r29
 2021               	/* prologue: function */
 2022               	/* frame size = 0 */
 2023 08ac 7C01      		movw r14,r24
 2024               	.LBB294:
 2025               	.LBB295:
 2026               	.LM308:
 2027 08ae E091 0000 		lds r30,nRF24L01P
 2028 08b2 F091 0000 		lds r31,(nRF24L01P)+1
 2029 08b6 118A      		std Z+17,__zero_reg__
 2030 08b8 108A      		std Z+16,__zero_reg__
 2031               	.LM309:
 2032 08ba 128A      		std Z+18,__zero_reg__
 2033               	.LBE295:
 2034               	.LBE294:
 2035               	.LM310:
 2036 08bc 1086      		std Z+8,__zero_reg__
 2037 08be 1782      		std Z+7,__zero_reg__
 2038               	.LM311:
 2039 08c0 0E94 0000 		call nRF24L01P_Set_Mode_Rx
 2040               	.LVL92:
 2041               	.LBB296:
 2042               	.LBB297:
 2043               	.LBB298:
 2044               	.LBB299:
 2045               	.LM312:
 2046 08c4 75E8      		ldi r23,lo8(-123)
 2047 08c6 D72E      		mov r13,r23
 2048 08c8 00C0      		rjmp .L164
 2049               	.LVL93:
 2050               	.L167:
 2051               	.LBE299:
 2052               	.LBE298:
 2053               	.LBE297:
 2054               	.LBE296:
 2055               	.LM313:
 2056 08ca 0E94 0000 		call nRF24L01P_Receive_Buffer_Not_Empty
 2057 08ce 8823      		tst r24
 2058 08d0 01F0      		breq .L165
 2059               	.LM314:
 2060 08d2 C701      		movw r24,r14
 2061 08d4 0E94 0000 		call nRF24L01P_Read_Data_From_Receive_Buffer
 2062               	.LM315:
 2063 08d8 F701      		movw r30,r14
 2064 08da D68D      		ldd r29,Z+30
 2065               	.LVL94:
 2066 08dc C0E0      		ldi r28,lo8(0)
 2067               	.LVL95:
 2068               	.LM316:
 2069 08de 078D      		ldd r16,Z+31
 2070 08e0 10E0      		ldi r17,lo8(0)
 2071               	.LVL96:
 2072 08e2 0C2B      		or r16,r28
 2073 08e4 1D2B      		or r17,r29
 2074               	.LVL97:
 2075               	.LM317:
 2076 08e6 C701      		movw r24,r14
 2077 08e8 6EE1      		ldi r22,lo8(30)
 2078 08ea 0E94 0000 		call nRF24L01P_Calcuate_CRC_Block
 2079               	.LM318:
 2080 08ee 0817      		cp r16,r24
 2081 08f0 1907      		cpc r17,r25
 2082 08f2 01F4      		brne .L165
 2083 08f4 81E0      		ldi r24,lo8(1)
 2084               	.LVL98:
 2085 08f6 00C0      		rjmp .L166
 2086               	.LVL99:
 2087               	.L165:
 2088               	.LBB303:
 2089               	.LBB302:
 2090               	.LBB301:
 2091               	.LBB300:
 2092               	.LM319:
 2093 08f8 8D2D      		mov r24,r13
 2094               	.LVL100:
 2095               	/* #APP */
 2096               	 ;  83 "c:/winavr-20100110/lib/gcc/../../avr/include/util/delay_basic.h" 1
 2097 08fa 8A95      		1: dec r24
 2098 08fc 01F4      		brne 1b
 2099               	 ;  0 "" 2
 2100               	/* #NOAPP */
 2101               	.LBE300:
 2102               	.LBE301:
 2103               	.LBE302:
 2104               	.LBE303:
 2105               	.LM320:
 2106 08fe E091 0000 		lds r30,nRF24L01P
 2107 0902 F091 0000 		lds r31,(nRF24L01P)+1
 2108 0906 8781      		ldd r24,Z+7
 2109 0908 9085      		ldd r25,Z+8
 2110               	.LVL101:
 2111 090a 0196      		adiw r24,1
 2112 090c 9087      		std Z+8,r25
 2113 090e 8783      		std Z+7,r24
 2114               	.L164:
 2115               	.LM321:
 2116 0910 E091 0000 		lds r30,nRF24L01P
 2117 0914 F091 0000 		lds r31,(nRF24L01P)+1
 2118 0918 2781      		ldd r18,Z+7
 2119 091a 3085      		ldd r19,Z+8
 2120 091c 8581      		ldd r24,Z+5
 2121 091e 9681      		ldd r25,Z+6
 2122 0920 2817      		cp r18,r24
 2123 0922 3907      		cpc r19,r25
 2124 0924 00F0      		brlo .L167
 2125 0926 80E0      		ldi r24,lo8(0)
 2126               	.LVL102:
 2127               	.L166:
 2128               	.LVL103:
 2129               	/* epilogue start */
 2130               	.LM322:
 2131 0928 DF91      		pop r29
 2132 092a CF91      		pop r28
 2133 092c 1F91      		pop r17
 2134               	.LVL104:
 2135 092e 0F91      		pop r16
 2136               	.LVL105:
 2137 0930 FF90      		pop r15
 2138 0932 EF90      		pop r14
 2139               	.LVL106:
 2140 0934 DF90      		pop r13
 2141 0936 0895      		ret
 2142               	.LFE51:
 2144               	.global	nRF24L01P_Transmit_With_ACK
 2146               	nRF24L01P_Transmit_With_ACK:
 2147               	.LFB52:
 2148               	.LM323:
 2149               	.LVL107:
 2150 0938 CF93      		push r28
 2151 093a DF93      		push r29
 2152               	/* prologue: function */
 2153               	/* frame size = 0 */
 2154 093c EC01      		movw r28,r24
 2155               	.LM324:
 2156 093e E091 0000 		lds r30,nRF24L01P
 2157 0942 F091 0000 		lds r31,(nRF24L01P)+1
 2158 0946 8785      		ldd r24,Z+15
 2159               	.LVL108:
 2160 0948 8823      		tst r24
 2161 094a 01F0      		breq .L170
 2162               	.LM325:
 2163 094c 81E0      		ldi r24,lo8(1)
 2164 094e 8A8F      		std Y+26,r24
 2165 0950 00C0      		rjmp .L171
 2166               	.L170:
 2167               	.LM326:
 2168 0952 1A8E      		std Y+26,__zero_reg__
 2169               	.L171:
 2170               	.LM327:
 2171 0954 CE01      		movw r24,r28
 2172 0956 0E94 0000 		call nRF24L01P_Transmit_Basic
 2173               	.LVL109:
 2174               	.LM328:
 2175 095a CE01      		movw r24,r28
 2176 095c 0E94 0000 		call nRF24L01P_Recieve_Basic
 2177 0960 8111      		cpse r24,__zero_reg__
 2178 0962 81E0      		ldi r24,lo8(1)
 2179               	.L172:
 2180               	/* epilogue start */
 2181               	.LM329:
 2182 0964 DF91      		pop r29
 2183 0966 CF91      		pop r28
 2184               	.LVL110:
 2185 0968 0895      		ret
 2186               	.LFE52:
 2188               	.global	nRF24L01P_Recieve_With_ACK
 2190               	nRF24L01P_Recieve_With_ACK:
 2191               	.LFB53:
 2192               	.LM330:
 2193               	.LVL111:
 2194 096a CF93      		push r28
 2195 096c DF93      		push r29
 2196               	/* prologue: function */
 2197               	/* frame size = 0 */
 2198 096e EC01      		movw r28,r24
 2199               	.LM331:
 2200 0970 0E94 0000 		call nRF24L01P_Recieve_Basic
 2201               	.LVL112:
 2202 0974 8823      		tst r24
 2203 0976 01F0      		breq .L175
 2204               	.LM332:
 2205 0978 8A8D      		ldd r24,Y+26
 2206 097a 8130      		cpi r24,lo8(1)
 2207 097c 01F4      		brne .L175
 2208 097e E091 0000 		lds r30,nRF24L01P
 2209 0982 F091 0000 		lds r31,(nRF24L01P)+1
 2210 0986 9381      		ldd r25,Z+3
 2211 0988 8C8D      		ldd r24,Y+28
 2212 098a 9817      		cp r25,r24
 2213 098c 01F4      		brne .L175
 2214               	.LBB304:
 2215               	.LBB305:
 2216               	.LBB306:
 2217               	.LBB307:
 2218               	.LBB308:
 2219               	.LBB309:
 2220               	.LM333:
 2221 098e 84EF      		ldi r24,lo8(500)
 2222 0990 91E0      		ldi r25,hi8(500)
 2223               	.LVL113:
 2224               	/* #APP */
 2225               	 ;  105 "c:/winavr-20100110/lib/gcc/../../avr/include/util/delay_basic.h" 1
 2226 0992 0197      		1: sbiw r24,1
 2227 0994 01F4      		brne 1b
 2228               	 ;  0 "" 2
 2229               	/* #NOAPP */
 2230               	.LBE309:
 2231               	.LBE308:
 2232               	.LBE307:
 2233               	.LBE306:
 2234               	.LBE305:
 2235               	.LBE304:
 2236               	.LBB310:
 2237               	.LBB311:
 2238               	.LM334:
 2239 0996 8B8D      		ldd r24,Y+27
 2240               	.LVL114:
 2241 0998 8483      		std Z+4,r24
 2242               	.LBE311:
 2243               	.LBE310:
 2244               	.LM335:
 2245 099a CE01      		movw r24,r28
 2246 099c 62E0      		ldi r22,lo8(2)
 2247 099e 0E94 0000 		call nRF24L01P_Transmit_Basic
 2248 09a2 81E0      		ldi r24,lo8(1)
 2249               	.LVL115:
 2250 09a4 00C0      		rjmp .L176
 2251               	.LVL116:
 2252               	.L175:
 2253 09a6 80E0      		ldi r24,lo8(0)
 2254               	.LVL117:
 2255               	.L176:
 2256               	.LVL118:
 2257               	/* epilogue start */
 2258               	.LM336:
 2259 09a8 DF91      		pop r29
 2260 09aa CF91      		pop r28
 2261               	.LVL119:
 2262 09ac 0895      		ret
 2263               	.LFE53:
 2265               	.global	nRF24L01P_Error_Handler
 2267               	nRF24L01P_Error_Handler:
 2268               	.LFB54:
 2269               	.LM337:
 2270               	/* prologue: function */
 2271               	/* frame size = 0 */
 2272               	.LBB312:
 2273               	.LBB313:
 2274               	.LBB314:
 2275               	.LBB315:
 2276               	.LM338:
 2277 09ae E091 0000 		lds r30,nRF24L01P
 2278 09b2 F091 0000 		lds r31,(nRF24L01P)+1
 2279               	.LBE315:
 2280               	.LBE314:
 2281               	.LM339:
 2282 09b6 8289      		ldd r24,Z+18
 2283 09b8 8823      		tst r24
 2284 09ba 01F0      		breq .L181
 2285               	.LBE313:
 2286               	.LBE312:
 2287               	.LBB316:
 2288               	.LBB317:
 2289               	.LM340:
 2290 09bc 118A      		std Z+17,__zero_reg__
 2291 09be 108A      		std Z+16,__zero_reg__
 2292               	.LM341:
 2293 09c0 128A      		std Z+18,__zero_reg__
 2294               	.LBE317:
 2295               	.LBE316:
 2296               	.LM342:
 2297 09c2 0E94 0000 		call nRF24L01P_Disable
 2298               	.LM343:
 2299 09c6 0E94 0000 		call nRF24L01P_Init
 2300               	.L181:
 2301 09ca 0895      		ret
 2302               	.LFE54:
 2304               		.comm nRF24L01P_type,19,1
 2305               		.comm nRF24L01P,2,1
 2714               	.Letext0:
DEFINED SYMBOLS
                            *ABS*:00000000 nrf24l01p.c
C:\Users\farid\AppData\Local\Temp/cc4VrVZq.s:2      *ABS*:0000003f __SREG__
C:\Users\farid\AppData\Local\Temp/cc4VrVZq.s:3      *ABS*:0000003e __SP_H__
C:\Users\farid\AppData\Local\Temp/cc4VrVZq.s:4      *ABS*:0000003d __SP_L__
C:\Users\farid\AppData\Local\Temp/cc4VrVZq.s:5      *ABS*:00000034 __CCP__
C:\Users\farid\AppData\Local\Temp/cc4VrVZq.s:6      *ABS*:00000000 __tmp_reg__
C:\Users\farid\AppData\Local\Temp/cc4VrVZq.s:7      *ABS*:00000001 __zero_reg__
C:\Users\farid\AppData\Local\Temp/cc4VrVZq.s:18     .text:00000000 nRF24L01P_Struct_Init
                            *COM*:00000013 nRF24L01P_type
                            *COM*:00000002 nRF24L01P
C:\Users\farid\AppData\Local\Temp/cc4VrVZq.s:72     .text:00000062 nRF24L01P_CSN_High
C:\Users\farid\AppData\Local\Temp/cc4VrVZq.s:86     .text:00000066 nRF24L01P_CSN_Low
C:\Users\farid\AppData\Local\Temp/cc4VrVZq.s:100    .text:0000006a nRF24L01P_CE_High
C:\Users\farid\AppData\Local\Temp/cc4VrVZq.s:114    .text:0000006e nRF24L01P_CE_Low
C:\Users\farid\AppData\Local\Temp/cc4VrVZq.s:128    .text:00000072 nRF24L01P_Enable_GPIO
C:\Users\farid\AppData\Local\Temp/cc4VrVZq.s:162    .text:00000084 nRF24L01P_Disable_GPIO
C:\Users\farid\AppData\Local\Temp/cc4VrVZq.s:192    .text:00000092 nRF24L01P_Enable_SPI
C:\Users\farid\AppData\Local\Temp/cc4VrVZq.s:210    .text:0000009c nRF24L01P_Disable_SPI
C:\Users\farid\AppData\Local\Temp/cc4VrVZq.s:226    .text:000000a2 nRF24L01P_Enable
C:\Users\farid\AppData\Local\Temp/cc4VrVZq.s:250    .text:000000b0 nRF24L01P_Disable
C:\Users\farid\AppData\Local\Temp/cc4VrVZq.s:272    .text:000000ba nRF24L01P_Error_Clear
C:\Users\farid\AppData\Local\Temp/cc4VrVZq.s:291    .text:000000ca nRF24L01P_Get_Error
C:\Users\farid\AppData\Local\Temp/cc4VrVZq.s:307    .text:000000d6 nRF24L01P_No_Error
C:\Users\farid\AppData\Local\Temp/cc4VrVZq.s:329    .text:000000ec nRF24L01P_Error_Timeout
C:\Users\farid\AppData\Local\Temp/cc4VrVZq.s:379    .text:00000116 nRF24L01P_SPI_Transfer
C:\Users\farid\AppData\Local\Temp/cc4VrVZq.s:452    .text:00000154 nRF24L01P_Calcuate_CRC
C:\Users\farid\AppData\Local\Temp/cc4VrVZq.s:506    .text:00000180 nRF24L01P_Calcuate_CRC_Block
C:\Users\farid\AppData\Local\Temp/cc4VrVZq.s:558    .text:000001b0 nRF24L01P_ReadWrite_Register
C:\Users\farid\AppData\Local\Temp/cc4VrVZq.s:669    .text:00000226 nRF24L01P_Flush_Transmit_Buffer
C:\Users\farid\AppData\Local\Temp/cc4VrVZq.s:702    .text:00000244 nRF24L01P_Write_Data_To_Transmit_Buffer
C:\Users\farid\AppData\Local\Temp/cc4VrVZq.s:732    .text:00000260 nRF24L01P_Transmit_Buffer_Empty
C:\Users\farid\AppData\Local\Temp/cc4VrVZq.s:780    .text:0000029c nRF24L01P_Wait_Till_Transmission_Completes
C:\Users\farid\AppData\Local\Temp/cc4VrVZq.s:835    .text:000002c4 nRF24L01P_Flush_Receive_Buffer
C:\Users\farid\AppData\Local\Temp/cc4VrVZq.s:868    .text:000002e2 nRF24L01P_Read_Data_From_Receive_Buffer
C:\Users\farid\AppData\Local\Temp/cc4VrVZq.s:898    .text:000002fe nRF24L01P_Receive_Buffer_Not_Empty
C:\Users\farid\AppData\Local\Temp/cc4VrVZq.s:941    .text:00000330 nRF24L01P_Get_Mode
C:\Users\farid\AppData\Local\Temp/cc4VrVZq.s:999    .text:00000372 nRF24L01P_Set_Mode_Sleep
C:\Users\farid\AppData\Local\Temp/cc4VrVZq.s:1037   .text:0000039a nRF24L01P_Set_Mode_Tx
C:\Users\farid\AppData\Local\Temp/cc4VrVZq.s:1086   .text:000003ce nRF24L01P_Set_Mode_Rx
C:\Users\farid\AppData\Local\Temp/cc4VrVZq.s:1133   .text:000003fe nRF24L01P_ReadModifyWrite
C:\Users\farid\AppData\Local\Temp/cc4VrVZq.s:1223   .text:0000047a nRF24L01P_Get_Channel
C:\Users\farid\AppData\Local\Temp/cc4VrVZq.s:1263   .text:000004a6 nRF24L01P_Set_Channel
C:\Users\farid\AppData\Local\Temp/cc4VrVZq.s:1309   .text:000004d0 nRF24L01P_Get_Speed
C:\Users\farid\AppData\Local\Temp/cc4VrVZq.s:1383   .text:00000526 nRF24L01P_Set_Speed
C:\Users\farid\AppData\Local\Temp/cc4VrVZq.s:1463   .text:00000588 nRF24L01P_Get_Tx_Power
C:\Users\farid\AppData\Local\Temp/cc4VrVZq.s:1507   .text:000005ba nRF24L01P_Set_Tx_Power
C:\Users\farid\AppData\Local\Temp/cc4VrVZq.s:1597   .text:00000628 nRF24L01P_Set_Own_Address
C:\Users\farid\AppData\Local\Temp/cc4VrVZq.s:1614   .text:00000634 nRF24L01P_Set_Destination_Address
C:\Users\farid\AppData\Local\Temp/cc4VrVZq.s:1631   .text:00000640 nRF24L01P_Set_Receive_Timeout
C:\Users\farid\AppData\Local\Temp/cc4VrVZq.s:1649   .text:0000064e nRF24L01P_Set_MaxRetransmission
C:\Users\farid\AppData\Local\Temp/cc4VrVZq.s:1667   .text:0000065c nRF24L01P_Deep_Sleep
C:\Users\farid\AppData\Local\Temp/cc4VrVZq.s:1688   .text:00000674 nRF24L01P_WakeUp
C:\Users\farid\AppData\Local\Temp/cc4VrVZq.s:1723   .text:0000068c nRF24L01P_Init
C:\Users\farid\AppData\Local\Temp/cc4VrVZq.s:1933   .text:00000840 nRF24L01P_Transmit_Basic
C:\Users\farid\AppData\Local\Temp/cc4VrVZq.s:2010   .text:0000089e nRF24L01P_Recieve_Basic
C:\Users\farid\AppData\Local\Temp/cc4VrVZq.s:2146   .text:00000938 nRF24L01P_Transmit_With_ACK
C:\Users\farid\AppData\Local\Temp/cc4VrVZq.s:2190   .text:0000096a nRF24L01P_Recieve_With_ACK
C:\Users\farid\AppData\Local\Temp/cc4VrVZq.s:2267   .text:000009ae nRF24L01P_Error_Handler

UNDEFINED SYMBOLS
__do_copy_data
__do_clear_bss
