   1               		.file	"sensors.c"
   2               	__SREG__ = 0x3f
   3               	__SP_H__ = 0x3e
   4               	__SP_L__ = 0x3d
   5               	__CCP__  = 0x34
   6               	__tmp_reg__ = 0
   7               	__zero_reg__ = 1
  15               	.Ltext0:
  16               	.global	Sensors_HDC1080_Struct_Init
  18               	Sensors_HDC1080_Struct_Init:
  19               	.LFB6:
  20               	.LM1:
  21               	/* prologue: function */
  22               	/* frame size = 0 */
  23               	.LM2:
  24 0000 1092 0000 		sts HDC1080,__zero_reg__
  25               	.LM3:
  26 0004 1092 0000 		sts HDC1080+1,__zero_reg__
  27               	.LM4:
  28 0008 1092 0000 		sts (HDC1080+2)+1,__zero_reg__
  29 000c 1092 0000 		sts HDC1080+2,__zero_reg__
  30               	.LM5:
  31 0010 1092 0000 		sts (HDC1080+4)+1,__zero_reg__
  32 0014 1092 0000 		sts HDC1080+4,__zero_reg__
  33               	.LM6:
  34 0018 1092 0000 		sts (HDC1080+6)+1,__zero_reg__
  35 001c 1092 0000 		sts HDC1080+6,__zero_reg__
  36               	.LM7:
  37 0020 1092 0000 		sts HDC1080+8,__zero_reg__
  38               	.LM8:
  39 0024 1092 0000 		sts HDC1080+9,__zero_reg__
  40               	.LM9:
  41 0028 1092 0000 		sts HDC1080+10,__zero_reg__
  42               	/* epilogue start */
  43               	.LM10:
  44 002c 0895      		ret
  45               	.LFE6:
  47               	.global	Sensors_Init
  49               	Sensors_Init:
  50               	.LFB7:
  51               	.LM11:
  52               	/* prologue: function */
  53               	/* frame size = 0 */
  54               	.LM12:
  55 002e 0E94 0000 		call Sensors_HDC1080_Struct_Init
  56               	.LM13:
  57 0032 5B9A      		sbi 43-32,3
  58               	.LM14:
  59 0034 539A      		sbi 42-32,3
  60               	.LM15:
  61 0036 4598      		cbi 40-32,5
  62               	.LM16:
  63 0038 3D98      		cbi 39-32,5
  64               	.LM17:
  65 003a 4498      		cbi 40-32,4
  66               	.LM18:
  67 003c 3C98      		cbi 39-32,4
  68               	/* epilogue start */
  69               	.LM19:
  70 003e 0895      		ret
  71               	.LFE7:
  73               	.global	Sensors_I2C_Enable
  75               	Sensors_I2C_Enable:
  76               	.LFB8:
  77               	.LM20:
  78               	/* prologue: function */
  79               	/* frame size = 0 */
  80               	.LM21:
  81 0040 83E0      		ldi r24,lo8(3)
  82 0042 8093 B800 		sts 184,r24
  83               	.LM22:
  84 0046 84E0      		ldi r24,lo8(4)
  85 0048 8093 BC00 		sts 188,r24
  86               	/* epilogue start */
  87               	.LM23:
  88 004c 0895      		ret
  89               	.LFE8:
  91               	.global	Sensors_I2C_Disable
  93               	Sensors_I2C_Disable:
  94               	.LFB9:
  95               	.LM24:
  96               	/* prologue: function */
  97               	/* frame size = 0 */
  98               	.LM25:
  99 004e 1092 BC00 		sts 188,__zero_reg__
 100               	.LM26:
 101 0052 1092 B800 		sts 184,__zero_reg__
 102               	/* epilogue start */
 103               	.LM27:
 104 0056 0895      		ret
 105               	.LFE9:
 107               	.global	Sensors_HDC1080_Timeout_Clear
 109               	Sensors_HDC1080_Timeout_Clear:
 110               	.LFB10:
 111               	.LM28:
 112               	/* prologue: function */
 113               	/* frame size = 0 */
 114               	.LM29:
 115 0058 1092 0000 		sts (HDC1080+2)+1,__zero_reg__
 116 005c 1092 0000 		sts HDC1080+2,__zero_reg__
 117               	.LM30:
 118 0060 1092 0000 		sts HDC1080+8,__zero_reg__
 119               	/* epilogue start */
 120               	.LM31:
 121 0064 0895      		ret
 122               	.LFE10:
 124               	.global	Sensors_HDC1080_Error_Clear
 126               	Sensors_HDC1080_Error_Clear:
 127               	.LFB11:
 128               	.LM32:
 129               	/* prologue: function */
 130               	/* frame size = 0 */
 131               	.LM33:
 132 0066 1092 0000 		sts HDC1080+9,__zero_reg__
 133               	/* epilogue start */
 134               	.LM34:
 135 006a 0895      		ret
 136               	.LFE11:
 138               	.global	Sensors_HDC1080_Error_Reset
 140               	Sensors_HDC1080_Error_Reset:
 141               	.LFB12:
 142               	.LM35:
 143               	/* prologue: function */
 144               	/* frame size = 0 */
 145               	.LBB83:
 146               	.LBB84:
 147               	.LM36:
 148 006c 1092 0000 		sts (HDC1080+2)+1,__zero_reg__
 149 0070 1092 0000 		sts HDC1080+2,__zero_reg__
 150               	.LM37:
 151 0074 1092 0000 		sts HDC1080+8,__zero_reg__
 152               	.LBE84:
 153               	.LBE83:
 154               	.LBB85:
 155               	.LBB86:
 156               	.LM38:
 157 0078 1092 0000 		sts HDC1080+9,__zero_reg__
 158               	/* epilogue start */
 159               	.LBE86:
 160               	.LBE85:
 161               	.LM39:
 162 007c 0895      		ret
 163               	.LFE12:
 165               	.global	Sensors_HDC1080_Timeout
 167               	Sensors_HDC1080_Timeout:
 168               	.LFB13:
 169               	.LM40:
 170               	/* prologue: function */
 171               	/* frame size = 0 */
 172               	.LBB87:
 173               	.LBB88:
 174               	.LBB89:
 175               	.LBB90:
 176               	.LM41:
 177 007e 86E0      		ldi r24,lo8(6)
 178               	.LVL0:
 179               	/* #APP */
 180               	 ;  83 "c:/winavr-20100110/lib/gcc/../../avr/include/util/delay_basic.h" 1
 181 0080 8A95      		1: dec r24
 182 0082 01F4      		brne 1b
 183               	 ;  0 "" 2
 184               	/* #NOAPP */
 185               	.LBE90:
 186               	.LBE89:
 187               	.LBE88:
 188               	.LBE87:
 189               	.LM42:
 190 0084 8091 0000 		lds r24,HDC1080+2
 191 0088 9091 0000 		lds r25,(HDC1080+2)+1
 192               	.LVL1:
 193 008c 0196      		adiw r24,1
 194 008e 9093 0000 		sts (HDC1080+2)+1,r25
 195 0092 8093 0000 		sts HDC1080+2,r24
 196               	.LM43:
 197 0096 8536      		cpi r24,101
 198 0098 9105      		cpc r25,__zero_reg__
 199 009a 00F4      		brsh .L16
 200 009c 80E0      		ldi r24,lo8(0)
 201               	.LVL2:
 202 009e 0895      		ret
 203               	.LVL3:
 204               	.L16:
 205               	.LM44:
 206 00a0 1092 0000 		sts (HDC1080+2)+1,__zero_reg__
 207 00a4 1092 0000 		sts HDC1080+2,__zero_reg__
 208 00a8 81E0      		ldi r24,lo8(1)
 209               	.LVL4:
 210               	.LVL5:
 211               	.LM45:
 212 00aa 0895      		ret
 213               	.LFE13:
 215               	.global	Sensors_HDC1080_I2C_Start
 217               	Sensors_HDC1080_I2C_Start:
 218               	.LFB14:
 219               	.LM46:
 220               	/* prologue: function */
 221               	/* frame size = 0 */
 222               	.LM47:
 223 00ac 8091 0000 		lds r24,HDC1080+9
 224 00b0 8823      		tst r24
 225 00b2 01F4      		brne .L23
 226               	.LM48:
 227 00b4 84EA      		ldi r24,lo8(-92)
 228 00b6 8093 BC00 		sts 188,r24
 229               	.LBB91:
 230               	.LBB92:
 231               	.LM49:
 232 00ba 1092 0000 		sts (HDC1080+2)+1,__zero_reg__
 233 00be 1092 0000 		sts HDC1080+2,__zero_reg__
 234               	.LM50:
 235 00c2 1092 0000 		sts HDC1080+8,__zero_reg__
 236 00c6 00C0      		rjmp .L21
 237               	.L22:
 238               	.LBE92:
 239               	.LBE91:
 240               	.LM51:
 241 00c8 0E94 0000 		call Sensors_HDC1080_Timeout
 242 00cc 8823      		tst r24
 243 00ce 01F0      		breq .L21
 244               	.LM52:
 245 00d0 81E0      		ldi r24,lo8(1)
 246 00d2 8093 0000 		sts HDC1080+9,r24
 247 00d6 0895      		ret
 248               	.L21:
 249               	.LM53:
 250 00d8 8091 BC00 		lds r24,188
 251 00dc 87FF      		sbrs r24,7
 252 00de 00C0      		rjmp .L22
 253               	.LM54:
 254 00e0 8091 B900 		lds r24,185
 255 00e4 887F      		andi r24,lo8(-8)
 256 00e6 8093 0000 		sts HDC1080,r24
 257               	.LM55:
 258 00ea 8830      		cpi r24,lo8(8)
 259 00ec 01F0      		breq .L23
 260               	.LM56:
 261 00ee 82E0      		ldi r24,lo8(2)
 262 00f0 8093 0000 		sts HDC1080+9,r24
 263               	.L23:
 264 00f4 0895      		ret
 265               	.LFE14:
 267               	.global	Sensors_HDC1080_I2C_Stop
 269               	Sensors_HDC1080_I2C_Stop:
 270               	.LFB15:
 271               	.LM57:
 272               	/* prologue: function */
 273               	/* frame size = 0 */
 274               	.LM58:
 275 00f6 8091 0000 		lds r24,HDC1080+9
 276 00fa 8823      		tst r24
 277 00fc 01F4      		brne .L27
 278               	.LM59:
 279 00fe 84E9      		ldi r24,lo8(-108)
 280 0100 8093 BC00 		sts 188,r24
 281               	.L27:
 282 0104 0895      		ret
 283               	.LFE15:
 285               	.global	Sensors_HDC1080_I2C_Forced_Stop_Clear_Error
 287               	Sensors_HDC1080_I2C_Forced_Stop_Clear_Error:
 288               	.LFB16:
 289               	.LM60:
 290               	/* prologue: function */
 291               	/* frame size = 0 */
 292               	.LM61:
 293 0106 9091 0000 		lds r25,HDC1080+9
 294 010a 9923      		tst r25
 295 010c 01F0      		breq .L30
 296               	.LM62:
 297 010e 84E9      		ldi r24,lo8(-108)
 298 0110 8093 BC00 		sts 188,r24
 299               	.LM63:
 300 0114 9093 0000 		sts HDC1080+10,r25
 301               	.LM64:
 302 0118 1092 0000 		sts HDC1080+9,__zero_reg__
 303               	.L30:
 304 011c 0895      		ret
 305               	.LFE16:
 307               	.global	Sensors_HDC1080_I2C_Send_Address
 309               	Sensors_HDC1080_I2C_Send_Address:
 310               	.LFB17:
 311               	.LM65:
 312               	.LVL6:
 313               	/* prologue: function */
 314               	/* frame size = 0 */
 315 011e 982F      		mov r25,r24
 316               	.LM66:
 317 0120 8091 0000 		lds r24,HDC1080+9
 318               	.LVL7:
 319 0124 8823      		tst r24
 320 0126 01F4      		brne .L35
 321               	.LM67:
 322 0128 990F      		lsl r25
 323 012a 9093 BB00 		sts 187,r25
 324               	.LM68:
 325 012e 84E8      		ldi r24,lo8(-124)
 326 0130 8093 BC00 		sts 188,r24
 327               	.LBB93:
 328               	.LBB94:
 329               	.LM69:
 330 0134 1092 0000 		sts (HDC1080+2)+1,__zero_reg__
 331 0138 1092 0000 		sts HDC1080+2,__zero_reg__
 332               	.LM70:
 333 013c 1092 0000 		sts HDC1080+8,__zero_reg__
 334 0140 00C0      		rjmp .L33
 335               	.L34:
 336               	.LBE94:
 337               	.LBE93:
 338               	.LM71:
 339 0142 0E94 0000 		call Sensors_HDC1080_Timeout
 340               	.LVL8:
 341 0146 8823      		tst r24
 342 0148 01F0      		breq .L33
 343               	.LM72:
 344 014a 83E0      		ldi r24,lo8(3)
 345 014c 8093 0000 		sts HDC1080+9,r24
 346 0150 0895      		ret
 347               	.LVL9:
 348               	.L33:
 349               	.LM73:
 350 0152 8091 BC00 		lds r24,188
 351 0156 87FF      		sbrs r24,7
 352 0158 00C0      		rjmp .L34
 353               	.LM74:
 354 015a 8091 B900 		lds r24,185
 355 015e 887F      		andi r24,lo8(-8)
 356 0160 8093 0000 		sts HDC1080,r24
 357               	.LM75:
 358 0164 8831      		cpi r24,lo8(24)
 359 0166 01F0      		breq .L35
 360 0168 8034      		cpi r24,lo8(64)
 361 016a 01F0      		breq .L35
 362               	.LM76:
 363 016c 84E0      		ldi r24,lo8(4)
 364 016e 8093 0000 		sts HDC1080+9,r24
 365               	.L35:
 366 0172 0895      		ret
 367               	.LFE17:
 369               	.global	Sensors_HDC1080_I2C_Read
 371               	Sensors_HDC1080_I2C_Read:
 372               	.LFB18:
 373               	.LM77:
 374               	/* prologue: function */
 375               	/* frame size = 0 */
 376               	.LM78:
 377 0174 8091 0000 		lds r24,HDC1080+9
 378 0178 8823      		tst r24
 379 017a 01F4      		brne .L38
 380               	.LM79:
 381 017c 84EC      		ldi r24,lo8(-60)
 382 017e 8093 BC00 		sts 188,r24
 383               	.LBB95:
 384               	.LBB96:
 385               	.LM80:
 386 0182 1092 0000 		sts (HDC1080+2)+1,__zero_reg__
 387 0186 1092 0000 		sts HDC1080+2,__zero_reg__
 388               	.LM81:
 389 018a 1092 0000 		sts HDC1080+8,__zero_reg__
 390 018e 00C0      		rjmp .L39
 391               	.L41:
 392               	.LBE96:
 393               	.LBE95:
 394               	.LM82:
 395 0190 0E94 0000 		call Sensors_HDC1080_Timeout
 396 0194 8823      		tst r24
 397 0196 01F0      		breq .L39
 398               	.LM83:
 399 0198 85E0      		ldi r24,lo8(5)
 400 019a 8093 0000 		sts HDC1080+9,r24
 401 019e 80E0      		ldi r24,lo8(0)
 402 01a0 0895      		ret
 403               	.L39:
 404               	.LM84:
 405 01a2 8091 BC00 		lds r24,188
 406 01a6 87FF      		sbrs r24,7
 407 01a8 00C0      		rjmp .L41
 408               	.LM85:
 409 01aa 8091 B900 		lds r24,185
 410 01ae 887F      		andi r24,lo8(-8)
 411 01b0 8093 0000 		sts HDC1080,r24
 412               	.LM86:
 413 01b4 8091 BB00 		lds r24,187
 414 01b8 0895      		ret
 415               	.L38:
 416               	.LM87:
 417 01ba 0895      		ret
 418               	.LFE18:
 420               	.global	Sensors_HDC1080_I2C_Write
 422               	Sensors_HDC1080_I2C_Write:
 423               	.LFB19:
 424               	.LM88:
 425               	.LVL10:
 426               	/* prologue: function */
 427               	/* frame size = 0 */
 428 01bc 982F      		mov r25,r24
 429               	.LM89:
 430 01be 8091 0000 		lds r24,HDC1080+9
 431               	.LVL11:
 432 01c2 8823      		tst r24
 433 01c4 01F4      		brne .L48
 434               	.LM90:
 435 01c6 9093 BB00 		sts 187,r25
 436               	.LM91:
 437 01ca 84EC      		ldi r24,lo8(-60)
 438 01cc 8093 BC00 		sts 188,r24
 439               	.LBB97:
 440               	.LBB98:
 441               	.LM92:
 442 01d0 1092 0000 		sts (HDC1080+2)+1,__zero_reg__
 443 01d4 1092 0000 		sts HDC1080+2,__zero_reg__
 444               	.LM93:
 445 01d8 1092 0000 		sts HDC1080+8,__zero_reg__
 446 01dc 00C0      		rjmp .L46
 447               	.L47:
 448               	.LBE98:
 449               	.LBE97:
 450               	.LM94:
 451 01de 0E94 0000 		call Sensors_HDC1080_Timeout
 452               	.LVL12:
 453 01e2 8823      		tst r24
 454 01e4 01F0      		breq .L46
 455               	.LM95:
 456 01e6 87E0      		ldi r24,lo8(7)
 457 01e8 8093 0000 		sts HDC1080+9,r24
 458 01ec 0895      		ret
 459               	.LVL13:
 460               	.L46:
 461               	.LM96:
 462 01ee 8091 BC00 		lds r24,188
 463 01f2 87FF      		sbrs r24,7
 464 01f4 00C0      		rjmp .L47
 465               	.LM97:
 466 01f6 8091 B900 		lds r24,185
 467 01fa 887F      		andi r24,lo8(-8)
 468 01fc 8093 0000 		sts HDC1080,r24
 469               	.LM98:
 470 0200 8832      		cpi r24,lo8(40)
 471 0202 01F0      		breq .L48
 472               	.LM99:
 473 0204 88E0      		ldi r24,lo8(8)
 474 0206 8093 0000 		sts HDC1080+9,r24
 475               	.L48:
 476 020a 0895      		ret
 477               	.LFE19:
 479               	.global	Sensors_HDC1080_I2C_Read_Nack
 481               	Sensors_HDC1080_I2C_Read_Nack:
 482               	.LFB20:
 483               	.LM100:
 484               	/* prologue: function */
 485               	/* frame size = 0 */
 486               	.LM101:
 487 020c 8091 0000 		lds r24,HDC1080+8
 488 0210 8823      		tst r24
 489 0212 01F0      		breq .L51
 490 0214 80E0      		ldi r24,lo8(0)
 491 0216 0895      		ret
 492               	.L51:
 493               	.LM102:
 494 0218 84E8      		ldi r24,lo8(-124)
 495 021a 8093 BC00 		sts 188,r24
 496               	.LBB99:
 497               	.LBB100:
 498               	.LM103:
 499 021e 1092 0000 		sts (HDC1080+2)+1,__zero_reg__
 500 0222 1092 0000 		sts HDC1080+2,__zero_reg__
 501               	.LM104:
 502 0226 1092 0000 		sts HDC1080+8,__zero_reg__
 503 022a 00C0      		rjmp .L53
 504               	.L55:
 505               	.LBE100:
 506               	.LBE99:
 507               	.LM105:
 508 022c 0E94 0000 		call Sensors_HDC1080_Timeout
 509 0230 8823      		tst r24
 510 0232 01F0      		breq .L53
 511               	.LM106:
 512 0234 83EF      		ldi r24,lo8(-13)
 513 0236 8093 0000 		sts HDC1080+8,r24
 514 023a 00C0      		rjmp .L54
 515               	.L53:
 516               	.LM107:
 517 023c 8091 BC00 		lds r24,188
 518 0240 87FF      		sbrs r24,7
 519 0242 00C0      		rjmp .L55
 520               	.L54:
 521               	.LM108:
 522 0244 8091 B900 		lds r24,185
 523 0248 887F      		andi r24,lo8(-8)
 524 024a 8093 0000 		sts HDC1080,r24
 525               	.LM109:
 526 024e 8091 BB00 		lds r24,187
 527               	.LM110:
 528 0252 0895      		ret
 529               	.LFE20:
 531               	.global	Sensors_HDC1080_Find_Address
 533               	Sensors_HDC1080_Find_Address:
 534               	.LFB21:
 535               	.LM111:
 536 0254 0F93      		push r16
 537 0256 1F93      		push r17
 538               	/* prologue: function */
 539               	/* frame size = 0 */
 540               	.LM112:
 541 0258 10E0      		ldi r17,lo8(0)
 542               	.LVL14:
 543               	.LBB101:
 544               	.LBB102:
 545               	.LBB103:
 546               	.LM113:
 547 025a 04E9      		ldi r16,lo8(-108)
 548               	.L62:
 549               	.LBE103:
 550               	.LBE102:
 551               	.LM114:
 552 025c 0E94 0000 		call Sensors_HDC1080_I2C_Start
 553               	.LM115:
 554 0260 812F      		mov r24,r17
 555 0262 880F      		lsl r24
 556 0264 0E94 0000 		call Sensors_HDC1080_I2C_Write
 557               	.LBB105:
 558               	.LBB104:
 559               	.LM116:
 560 0268 8091 0000 		lds r24,HDC1080+9
 561 026c 8823      		tst r24
 562 026e 01F4      		brne .L59
 563               	.LM117:
 564 0270 0093 BC00 		sts 188,r16
 565               	.L59:
 566               	.LBE104:
 567               	.LBE105:
 568               	.LM118:
 569 0274 8091 0000 		lds r24,HDC1080+8
 570 0278 8823      		tst r24
 571 027a 01F4      		brne .L60
 572               	.LM119:
 573 027c 8091 0000 		lds r24,HDC1080
 574 0280 8831      		cpi r24,lo8(24)
 575 0282 01F4      		brne .L60
 576               	.LM120:
 577 0284 1093 0000 		sts HDC1080+1,r17
 578 0288 812F      		mov r24,r17
 579               	.LVL15:
 580 028a 00C0      		rjmp .L61
 581               	.LVL16:
 582               	.L60:
 583               	.LM121:
 584 028c 1F5F      		subi r17,lo8(-(1))
 585 028e 1F37      		cpi r17,lo8(127)
 586 0290 01F4      		brne .L62
 587 0292 80E0      		ldi r24,lo8(0)
 588               	.LVL17:
 589               	.L61:
 590               	.LVL18:
 591               	/* epilogue start */
 592               	.LBE101:
 593               	.LM122:
 594 0294 1F91      		pop r17
 595               	.LVL19:
 596 0296 0F91      		pop r16
 597 0298 0895      		ret
 598               	.LFE21:
 600               	.global	Sensors_HDC1080_Read_Reg
 602               	Sensors_HDC1080_Read_Reg:
 603               	.LFB22:
 604               	.LM123:
 605               	.LVL20:
 606 029a 0F93      		push r16
 607 029c 1F93      		push r17
 608               	/* prologue: function */
 609               	/* frame size = 0 */
 610 029e 082F      		mov r16,r24
 611               	.LM124:
 612 02a0 0E94 0000 		call Sensors_HDC1080_I2C_Start
 613               	.LVL21:
 614               	.LM125:
 615 02a4 8091 0000 		lds r24,HDC1080+1
 616 02a8 880F      		lsl r24
 617 02aa 0E94 0000 		call Sensors_HDC1080_I2C_Write
 618               	.LM126:
 619 02ae 802F      		mov r24,r16
 620 02b0 0E94 0000 		call Sensors_HDC1080_I2C_Write
 621               	.LBB106:
 622               	.LBB107:
 623               	.LM127:
 624 02b4 8091 0000 		lds r24,HDC1080+9
 625 02b8 8823      		tst r24
 626 02ba 01F4      		brne .L66
 627               	.LM128:
 628 02bc 84E9      		ldi r24,lo8(-108)
 629 02be 8093 BC00 		sts 188,r24
 630               	.L66:
 631               	.LBE107:
 632               	.LBE106:
 633               	.LM129:
 634 02c2 0E94 0000 		call Sensors_HDC1080_I2C_Start
 635               	.LM130:
 636 02c6 8091 0000 		lds r24,HDC1080+1
 637 02ca 880F      		lsl r24
 638 02cc 8160      		ori r24,lo8(1)
 639 02ce 0E94 0000 		call Sensors_HDC1080_I2C_Write
 640               	.LM131:
 641 02d2 8091 0000 		lds r24,HDC1080
 642 02d6 8831      		cpi r24,lo8(24)
 643 02d8 01F4      		brne .L67
 644               	.LM132:
 645 02da 802F      		mov r24,r16
 646 02dc 0E94 0000 		call Sensors_HDC1080_I2C_Write
 647               	.LM133:
 648 02e0 8091 0000 		lds r24,HDC1080
 649 02e4 8832      		cpi r24,lo8(40)
 650 02e6 01F4      		brne .L68
 651               	.LBB108:
 652               	.LBB109:
 653               	.LM134:
 654 02e8 8091 0000 		lds r24,HDC1080+9
 655 02ec 8823      		tst r24
 656 02ee 01F4      		brne .L69
 657               	.LM135:
 658 02f0 84E9      		ldi r24,lo8(-108)
 659 02f2 8093 BC00 		sts 188,r24
 660               	.L69:
 661               	.LBE109:
 662               	.LBE108:
 663               	.LM136:
 664 02f6 0E94 0000 		call Sensors_HDC1080_I2C_Start
 665               	.LM137:
 666 02fa 8091 0000 		lds r24,HDC1080+1
 667 02fe 880F      		lsl r24
 668 0300 8160      		ori r24,lo8(1)
 669 0302 0E94 0000 		call Sensors_HDC1080_I2C_Write
 670               	.LM138:
 671 0306 8091 0000 		lds r24,HDC1080
 672 030a 8034      		cpi r24,lo8(64)
 673 030c 01F4      		brne .L70
 674               	.LM139:
 675 030e 0E94 0000 		call Sensors_HDC1080_I2C_Read
 676 0312 282F      		mov r18,r24
 677               	.LVL22:
 678 0314 30E0      		ldi r19,lo8(0)
 679               	.LVL23:
 680               	.LM140:
 681 0316 8091 0000 		lds r24,HDC1080
 682 031a 8035      		cpi r24,lo8(80)
 683 031c 01F4      		brne .L71
 684               	.LM141:
 685 031e 122F      		mov r17,r18
 686 0320 0027      		clr r16
 687               	.LVL24:
 688               	.LM142:
 689 0322 0E94 0000 		call Sensors_HDC1080_I2C_Read_Nack
 690               	.LVL25:
 691 0326 282F      		mov r18,r24
 692               	.LVL26:
 693 0328 30E0      		ldi r19,lo8(0)
 694               	.LVL27:
 695 032a 202B      		or r18,r16
 696 032c 312B      		or r19,r17
 697               	.LVL28:
 698               	.LM143:
 699 032e 8091 0000 		lds r24,HDC1080
 700 0332 8835      		cpi r24,lo8(88)
 701 0334 01F4      		brne .L72
 702               	.LM144:
 703 0336 1092 0000 		sts HDC1080+9,__zero_reg__
 704 033a 00C0      		rjmp .L73
 705               	.L72:
 706               	.LM145:
 707 033c 85E0      		ldi r24,lo8(5)
 708 033e 00C0      		rjmp .L78
 709               	.LVL29:
 710               	.L71:
 711               	.LM146:
 712 0340 84E0      		ldi r24,lo8(4)
 713               	.L78:
 714 0342 8093 0000 		sts HDC1080+9,r24
 715 0346 00C0      		rjmp .L73
 716               	.LVL30:
 717               	.L70:
 718               	.LM147:
 719 0348 83E0      		ldi r24,lo8(3)
 720 034a 00C0      		rjmp .L77
 721               	.L68:
 722               	.LM148:
 723 034c 82E0      		ldi r24,lo8(2)
 724 034e 00C0      		rjmp .L77
 725               	.L67:
 726               	.LM149:
 727 0350 81E0      		ldi r24,lo8(1)
 728               	.L77:
 729 0352 8093 0000 		sts HDC1080+9,r24
 730 0356 20E0      		ldi r18,lo8(0)
 731 0358 30E0      		ldi r19,hi8(0)
 732               	.LVL31:
 733               	.L73:
 734               	.LBB110:
 735               	.LBB111:
 736               	.LM150:
 737 035a 8091 0000 		lds r24,HDC1080+9
 738 035e 8823      		tst r24
 739 0360 01F0      		breq .L74
 740 0362 20E0      		ldi r18,lo8(0)
 741 0364 30E0      		ldi r19,hi8(0)
 742 0366 00C0      		rjmp .L75
 743               	.L74:
 744               	.LM151:
 745 0368 84E9      		ldi r24,lo8(-108)
 746 036a 8093 BC00 		sts 188,r24
 747               	.L75:
 748               	.LBE111:
 749               	.LBE110:
 750               	.LM152:
 751 036e C901      		movw r24,r18
 752               	.LVL32:
 753               	/* epilogue start */
 754 0370 1F91      		pop r17
 755 0372 0F91      		pop r16
 756               	.LVL33:
 757 0374 0895      		ret
 758               	.LFE22:
 760               	.global	Sensors_HDC1080_Write_Reg
 762               	Sensors_HDC1080_Write_Reg:
 763               	.LFB23:
 764               	.LM153:
 765               	.LVL34:
 766 0376 FF92      		push r15
 767 0378 0F93      		push r16
 768 037a 1F93      		push r17
 769               	/* prologue: function */
 770               	/* frame size = 0 */
 771 037c 182F      		mov r17,r24
 772 037e F62E      		mov r15,r22
 773 0380 072F      		mov r16,r23
 774               	.LVL35:
 775               	.LM154:
 776 0382 0E94 0000 		call Sensors_HDC1080_I2C_Start
 777               	.LVL36:
 778               	.LM155:
 779 0386 80E8      		ldi r24,lo8(-128)
 780 0388 0E94 0000 		call Sensors_HDC1080_I2C_Send_Address
 781               	.LM156:
 782 038c 812F      		mov r24,r17
 783 038e 0E94 0000 		call Sensors_HDC1080_I2C_Write
 784               	.LM157:
 785 0392 802F      		mov r24,r16
 786 0394 0E94 0000 		call Sensors_HDC1080_I2C_Write
 787               	.LM158:
 788 0398 8F2D      		mov r24,r15
 789 039a 0E94 0000 		call Sensors_HDC1080_I2C_Write
 790               	.LBB112:
 791               	.LBB113:
 792               	.LM159:
 793 039e 8091 0000 		lds r24,HDC1080+9
 794 03a2 8823      		tst r24
 795 03a4 01F4      		brne .L81
 796               	.LM160:
 797 03a6 84E9      		ldi r24,lo8(-108)
 798 03a8 8093 BC00 		sts 188,r24
 799               	.L81:
 800               	/* epilogue start */
 801               	.LBE113:
 802               	.LBE112:
 803               	.LM161:
 804 03ac 1F91      		pop r17
 805               	.LVL37:
 806 03ae 0F91      		pop r16
 807               	.LVL38:
 808 03b0 FF90      		pop r15
 809               	.LVL39:
 810 03b2 0895      		ret
 811               	.LFE23:
 813               	.global	Sensors_HDC1080_Trigger_Humidity_Measurement
 815               	Sensors_HDC1080_Trigger_Humidity_Measurement:
 816               	.LFB24:
 817               	.LM162:
 818               	/* prologue: function */
 819               	/* frame size = 0 */
 820               	.LM163:
 821 03b4 0E94 0000 		call Sensors_HDC1080_I2C_Start
 822               	.LM164:
 823 03b8 80E8      		ldi r24,lo8(-128)
 824 03ba 0E94 0000 		call Sensors_HDC1080_I2C_Send_Address
 825               	.LM165:
 826 03be 81E0      		ldi r24,lo8(1)
 827 03c0 0E94 0000 		call Sensors_HDC1080_I2C_Write
 828               	.LBB114:
 829               	.LBB115:
 830               	.LM166:
 831 03c4 8091 0000 		lds r24,HDC1080+9
 832 03c8 8823      		tst r24
 833 03ca 01F4      		brne .L84
 834               	.LM167:
 835 03cc 84E9      		ldi r24,lo8(-108)
 836 03ce 8093 BC00 		sts 188,r24
 837               	.L84:
 838 03d2 0895      		ret
 839               	.LBE115:
 840               	.LBE114:
 841               	.LFE24:
 843               	.global	Sensors_HDC1080_Read_Humidity_Plain
 845               	Sensors_HDC1080_Read_Humidity_Plain:
 846               	.LFB25:
 847               	.LM168:
 848 03d4 1F93      		push r17
 849               	/* prologue: function */
 850               	/* frame size = 0 */
 851               	.LBB116:
 852               	.LBB117:
 853               	.LM169:
 854 03d6 1092 0000 		sts (HDC1080+2)+1,__zero_reg__
 855 03da 1092 0000 		sts HDC1080+2,__zero_reg__
 856               	.LM170:
 857 03de 1092 0000 		sts HDC1080+8,__zero_reg__
 858               	.LBE117:
 859               	.LBE116:
 860               	.LBB118:
 861               	.LBB119:
 862               	.LBB120:
 863               	.LBB121:
 864               	.LM171:
 865 03e2 80E1      		ldi r24,lo8(10000)
 866 03e4 97E2      		ldi r25,hi8(10000)
 867               	.LVL40:
 868               	/* #APP */
 869               	 ;  105 "c:/winavr-20100110/lib/gcc/../../avr/include/util/delay_basic.h" 1
 870 03e6 0197      		1: sbiw r24,1
 871 03e8 01F4      		brne 1b
 872               	 ;  0 "" 2
 873               	/* #NOAPP */
 874               	.LBE121:
 875               	.LBE120:
 876               	.LBE119:
 877               	.LBE118:
 878               	.LM172:
 879 03ea 0E94 0000 		call Sensors_HDC1080_I2C_Start
 880               	.LVL41:
 881               	.LM173:
 882 03ee 8091 0000 		lds r24,HDC1080+1
 883 03f2 880F      		lsl r24
 884 03f4 8160      		ori r24,lo8(1)
 885 03f6 0E94 0000 		call Sensors_HDC1080_I2C_Write
 886               	.LM174:
 887 03fa 0E94 0000 		call Sensors_HDC1080_I2C_Read
 888 03fe 182F      		mov r17,r24
 889               	.LM175:
 890 0400 0E94 0000 		call Sensors_HDC1080_I2C_Read_Nack
 891 0404 282F      		mov r18,r24
 892               	.LBB122:
 893               	.LBB123:
 894               	.LM176:
 895 0406 8091 0000 		lds r24,HDC1080+9
 896 040a 8823      		tst r24
 897 040c 01F4      		brne .L86
 898               	.LM177:
 899 040e 84E9      		ldi r24,lo8(-108)
 900 0410 8093 BC00 		sts 188,r24
 901               	.L86:
 902               	.LBE123:
 903               	.LBE122:
 904               	.LM178:
 905 0414 8091 0000 		lds r24,HDC1080+8
 906 0418 8823      		tst r24
 907 041a 01F0      		breq .L87
 908 041c 20E0      		ldi r18,lo8(0)
 909 041e 30E0      		ldi r19,hi8(0)
 910 0420 40E0      		ldi r20,hlo8(0)
 911 0422 50E0      		ldi r21,hhi8(0)
 912               	.LVL42:
 913 0424 00C0      		rjmp .L88
 914               	.LVL43:
 915               	.L87:
 916               	.LM179:
 917 0426 612F      		mov r22,r17
 918               	.LVL44:
 919 0428 70E0      		ldi r23,lo8(0)
 920               	.LVL45:
 921 042a 80E0      		ldi r24,lo8(0)
 922 042c 90E0      		ldi r25,hi8(0)
 923               	.LVL46:
 924               	.LM180:
 925 042e 982F      		mov r25,r24
 926 0430 872F      		mov r24,r23
 927 0432 762F      		mov r23,r22
 928 0434 6627      		clr r22
 929               	.LVL47:
 930               	.LM181:
 931 0436 30E0      		ldi r19,lo8(0)
 932 0438 40E0      		ldi r20,lo8(0)
 933 043a 50E0      		ldi r21,hi8(0)
 934 043c 622B      		or r22,r18
 935 043e 732B      		or r23,r19
 936 0440 842B      		or r24,r20
 937 0442 952B      		or r25,r21
 938               	.LM182:
 939 0444 24E6      		ldi r18,lo8(100)
 940 0446 30E0      		ldi r19,hi8(100)
 941 0448 40E0      		ldi r20,hlo8(100)
 942 044a 50E0      		ldi r21,hhi8(100)
 943 044c 0E94 0000 		call __mulsi3
 944               	.LVL48:
 945               	.LM183:
 946 0450 2FEF      		ldi r18,lo8(65535)
 947 0452 3FEF      		ldi r19,hi8(65535)
 948 0454 40E0      		ldi r20,hlo8(65535)
 949 0456 50E0      		ldi r21,hhi8(65535)
 950 0458 0E94 0000 		call __udivmodsi4
 951 045c C901      		movw r24,r18
 952               	.LVL49:
 953 045e DA01      		movw r26,r20
 954 0460 9C01      		movw r18,r24
 955 0462 AD01      		movw r20,r26
 956               	.LVL50:
 957               	.LM184:
 958 0464 3093 0000 		sts (HDC1080+6)+1,r19
 959 0468 2093 0000 		sts HDC1080+6,r18
 960               	.LVL51:
 961               	.L88:
 962               	.LM185:
 963 046c C901      		movw r24,r18
 964               	.LVL52:
 965               	/* epilogue start */
 966 046e 1F91      		pop r17
 967 0470 0895      		ret
 968               	.LFE25:
 970               	.global	Sensors_Sample
 972               	Sensors_Sample:
 973               	.LFB26:
 974               	.LM186:
 975               	/* prologue: function */
 976               	/* frame size = 0 */
 977               	.LM187:
 978 0472 5B98      		cbi 43-32,3
 979               	.LBB124:
 980               	.LBB125:
 981               	.LM188:
 982 0474 83E0      		ldi r24,lo8(3)
 983 0476 8093 B800 		sts 184,r24
 984               	.LM189:
 985 047a 84E0      		ldi r24,lo8(4)
 986 047c 8093 BC00 		sts 188,r24
 987               	.LBE125:
 988               	.LBE124:
 989               	.LBB126:
 990               	.LBB127:
 991               	.LBB128:
 992               	.LBB129:
 993               	.LM190:
 994 0480 80E1      		ldi r24,lo8(10000)
 995 0482 97E2      		ldi r25,hi8(10000)
 996               	.LVL53:
 997               	/* #APP */
 998               	 ;  105 "c:/winavr-20100110/lib/gcc/../../avr/include/util/delay_basic.h" 1
 999 0484 0197      		1: sbiw r24,1
 1000 0486 01F4      		brne 1b
 1001               	 ;  0 "" 2
 1002               	/* #NOAPP */
 1003               	.LBE129:
 1004               	.LBE128:
 1005               	.LBE127:
 1006               	.LBE126:
 1007               	.LBB130:
 1008               	.LBB131:
 1009               	.LBB132:
 1010               	.LBB133:
 1011               	.LM191:
 1012 0488 1092 0000 		sts (HDC1080+2)+1,__zero_reg__
 1013 048c 1092 0000 		sts HDC1080+2,__zero_reg__
 1014               	.LM192:
 1015 0490 1092 0000 		sts HDC1080+8,__zero_reg__
 1016               	.LBE133:
 1017               	.LBE132:
 1018               	.LBB134:
 1019               	.LBB135:
 1020               	.LM193:
 1021 0494 1092 0000 		sts HDC1080+9,__zero_reg__
 1022               	.LBE135:
 1023               	.LBE134:
 1024               	.LBE131:
 1025               	.LBE130:
 1026               	.LM194:
 1027 0498 0E94 0000 		call Sensors_HDC1080_I2C_Start
 1028               	.LVL54:
 1029               	.LM195:
 1030 049c 80E8      		ldi r24,lo8(-128)
 1031 049e 0E94 0000 		call Sensors_HDC1080_I2C_Send_Address
 1032               	.LBB136:
 1033               	.LBB137:
 1034               	.LM196:
 1035 04a2 9091 0000 		lds r25,HDC1080+9
 1036 04a6 9923      		tst r25
 1037 04a8 01F4      		brne .L91
 1038               	.LM197:
 1039 04aa 84E9      		ldi r24,lo8(-108)
 1040 04ac 8093 BC00 		sts 188,r24
 1041 04b0 00C0      		rjmp .L92
 1042               	.L91:
 1043               	.LBE137:
 1044               	.LBE136:
 1045               	.LBB138:
 1046               	.LBB139:
 1047               	.LM198:
 1048 04b2 84E9      		ldi r24,lo8(-108)
 1049 04b4 8093 BC00 		sts 188,r24
 1050               	.LM199:
 1051 04b8 9093 0000 		sts HDC1080+10,r25
 1052               	.LM200:
 1053 04bc 1092 0000 		sts HDC1080+9,__zero_reg__
 1054               	.L92:
 1055               	.LBE139:
 1056               	.LBE138:
 1057               	.LBB140:
 1058               	.LBB141:
 1059               	.LM201:
 1060 04c0 1092 BC00 		sts 188,__zero_reg__
 1061               	.LM202:
 1062 04c4 1092 B800 		sts 184,__zero_reg__
 1063               	.LBE141:
 1064               	.LBE140:
 1065               	.LM203:
 1066 04c8 5B9A      		sbi 43-32,3
 1067               	/* epilogue start */
 1068               	.LM204:
 1069 04ca 0895      		ret
 1070               	.LFE26:
 1072               	.global	Sensors_HDC1080_Address_Get
 1074               	Sensors_HDC1080_Address_Get:
 1075               	.LFB27:
 1076               	.LM205:
 1077               	/* prologue: function */
 1078               	/* frame size = 0 */
 1079               	.LM206:
 1080 04cc 8091 0000 		lds r24,HDC1080+1
 1081               	/* epilogue start */
 1082 04d0 0895      		ret
 1083               	.LFE27:
 1085               	.global	Sensors_HDC1080_Status_Get
 1087               	Sensors_HDC1080_Status_Get:
 1088               	.LFB28:
 1089               	.LM207:
 1090               	/* prologue: function */
 1091               	/* frame size = 0 */
 1092               	.LM208:
 1093 04d2 8091 0000 		lds r24,HDC1080
 1094               	/* epilogue start */
 1095 04d6 0895      		ret
 1096               	.LFE28:
 1098               	.global	Sensors_HDC1080_Error_Get
 1100               	Sensors_HDC1080_Error_Get:
 1101               	.LFB29:
 1102               	.LM209:
 1103               	/* prologue: function */
 1104               	/* frame size = 0 */
 1105               	.LM210:
 1106 04d8 8091 0000 		lds r24,HDC1080+9
 1107               	/* epilogue start */
 1108 04dc 0895      		ret
 1109               	.LFE29:
 1111               	.global	Sensors_HDC1080_Sticky_Error_Get
 1113               	Sensors_HDC1080_Sticky_Error_Get:
 1114               	.LFB30:
 1115               	.LM211:
 1116               	/* prologue: function */
 1117               	/* frame size = 0 */
 1118               	.LM212:
 1119 04de 8091 0000 		lds r24,HDC1080+10
 1120               	/* epilogue start */
 1121 04e2 0895      		ret
 1122               	.LFE30:
 1124               	.global	Sensors_HDC1080_Timeout_Error_Get
 1126               	Sensors_HDC1080_Timeout_Error_Get:
 1127               	.LFB31:
 1128               	.LM213:
 1129               	/* prologue: function */
 1130               	/* frame size = 0 */
 1131               	.LM214:
 1132 04e4 8091 0000 		lds r24,HDC1080+8
 1133               	/* epilogue start */
 1134 04e8 0895      		ret
 1135               	.LFE31:
 1137               	.global	Sensors_HDC1080_RH_Get
 1139               	Sensors_HDC1080_RH_Get:
 1140               	.LFB32:
 1141               	.LM215:
 1142               	/* prologue: function */
 1143               	/* frame size = 0 */
 1144               	.LM216:
 1145 04ea 8091 0000 		lds r24,HDC1080+6
 1146 04ee 9091 0000 		lds r25,HDC1080+7
 1147               	/* epilogue start */
 1148 04f2 0895      		ret
 1149               	.LFE32:
 1151               		.comm HDC1080,11,1
 1384               	.Letext0:
DEFINED SYMBOLS
                            *ABS*:00000000 sensors.c
C:\Users\farid\AppData\Local\Temp/ccuMs90P.s:2      *ABS*:0000003f __SREG__
C:\Users\farid\AppData\Local\Temp/ccuMs90P.s:3      *ABS*:0000003e __SP_H__
C:\Users\farid\AppData\Local\Temp/ccuMs90P.s:4      *ABS*:0000003d __SP_L__
C:\Users\farid\AppData\Local\Temp/ccuMs90P.s:5      *ABS*:00000034 __CCP__
C:\Users\farid\AppData\Local\Temp/ccuMs90P.s:6      *ABS*:00000000 __tmp_reg__
C:\Users\farid\AppData\Local\Temp/ccuMs90P.s:7      *ABS*:00000001 __zero_reg__
C:\Users\farid\AppData\Local\Temp/ccuMs90P.s:18     .text:00000000 Sensors_HDC1080_Struct_Init
                            *COM*:0000000b HDC1080
C:\Users\farid\AppData\Local\Temp/ccuMs90P.s:49     .text:0000002e Sensors_Init
C:\Users\farid\AppData\Local\Temp/ccuMs90P.s:75     .text:00000040 Sensors_I2C_Enable
C:\Users\farid\AppData\Local\Temp/ccuMs90P.s:93     .text:0000004e Sensors_I2C_Disable
C:\Users\farid\AppData\Local\Temp/ccuMs90P.s:109    .text:00000058 Sensors_HDC1080_Timeout_Clear
C:\Users\farid\AppData\Local\Temp/ccuMs90P.s:126    .text:00000066 Sensors_HDC1080_Error_Clear
C:\Users\farid\AppData\Local\Temp/ccuMs90P.s:140    .text:0000006c Sensors_HDC1080_Error_Reset
C:\Users\farid\AppData\Local\Temp/ccuMs90P.s:167    .text:0000007e Sensors_HDC1080_Timeout
C:\Users\farid\AppData\Local\Temp/ccuMs90P.s:217    .text:000000ac Sensors_HDC1080_I2C_Start
C:\Users\farid\AppData\Local\Temp/ccuMs90P.s:269    .text:000000f6 Sensors_HDC1080_I2C_Stop
C:\Users\farid\AppData\Local\Temp/ccuMs90P.s:287    .text:00000106 Sensors_HDC1080_I2C_Forced_Stop_Clear_Error
C:\Users\farid\AppData\Local\Temp/ccuMs90P.s:309    .text:0000011e Sensors_HDC1080_I2C_Send_Address
C:\Users\farid\AppData\Local\Temp/ccuMs90P.s:371    .text:00000174 Sensors_HDC1080_I2C_Read
C:\Users\farid\AppData\Local\Temp/ccuMs90P.s:422    .text:000001bc Sensors_HDC1080_I2C_Write
C:\Users\farid\AppData\Local\Temp/ccuMs90P.s:481    .text:0000020c Sensors_HDC1080_I2C_Read_Nack
C:\Users\farid\AppData\Local\Temp/ccuMs90P.s:533    .text:00000254 Sensors_HDC1080_Find_Address
C:\Users\farid\AppData\Local\Temp/ccuMs90P.s:602    .text:0000029a Sensors_HDC1080_Read_Reg
C:\Users\farid\AppData\Local\Temp/ccuMs90P.s:762    .text:00000376 Sensors_HDC1080_Write_Reg
C:\Users\farid\AppData\Local\Temp/ccuMs90P.s:815    .text:000003b4 Sensors_HDC1080_Trigger_Humidity_Measurement
C:\Users\farid\AppData\Local\Temp/ccuMs90P.s:845    .text:000003d4 Sensors_HDC1080_Read_Humidity_Plain
C:\Users\farid\AppData\Local\Temp/ccuMs90P.s:972    .text:00000472 Sensors_Sample
C:\Users\farid\AppData\Local\Temp/ccuMs90P.s:1074   .text:000004cc Sensors_HDC1080_Address_Get
C:\Users\farid\AppData\Local\Temp/ccuMs90P.s:1087   .text:000004d2 Sensors_HDC1080_Status_Get
C:\Users\farid\AppData\Local\Temp/ccuMs90P.s:1100   .text:000004d8 Sensors_HDC1080_Error_Get
C:\Users\farid\AppData\Local\Temp/ccuMs90P.s:1113   .text:000004de Sensors_HDC1080_Sticky_Error_Get
C:\Users\farid\AppData\Local\Temp/ccuMs90P.s:1126   .text:000004e4 Sensors_HDC1080_Timeout_Error_Get
C:\Users\farid\AppData\Local\Temp/ccuMs90P.s:1139   .text:000004ea Sensors_HDC1080_RH_Get

UNDEFINED SYMBOLS
__mulsi3
__udivmodsi4
__do_clear_bss
