   1               		.file	"sensors.c"
   2               	__SREG__ = 0x3f
   3               	__SP_H__ = 0x3e
   4               	__SP_L__ = 0x3d
   5               	__CCP__  = 0x34
   6               	__tmp_reg__ = 0
   7               	__zero_reg__ = 1
  15               	.Ltext0:
  16               	.global	Sensors_HDC1080_Struct_Init
  18               	Sensors_HDC1080_Struct_Init:
  19               	.LFB6:
  20               	.LM1:
  21               	/* prologue: function */
  22               	/* frame size = 0 */
  23               	.LM2:
  24 0000 1092 0000 		sts HDC1080,__zero_reg__
  25               	.LM3:
  26 0004 1092 0000 		sts HDC1080+4,__zero_reg__
  27               	.LM4:
  28 0008 1092 0000 		sts (HDC1080+5)+1,__zero_reg__
  29 000c 1092 0000 		sts HDC1080+5,__zero_reg__
  30               	.LM5:
  31 0010 1092 0000 		sts HDC1080+7,__zero_reg__
  32 0014 1092 0000 		sts (HDC1080+7)+1,__zero_reg__
  33 0018 1092 0000 		sts (HDC1080+7)+2,__zero_reg__
  34 001c 1092 0000 		sts (HDC1080+7)+3,__zero_reg__
  35               	.LM6:
  36 0020 1092 0000 		sts (HDC1080+11)+1,__zero_reg__
  37 0024 1092 0000 		sts HDC1080+11,__zero_reg__
  38               	.LM7:
  39 0028 1092 0000 		sts HDC1080+13,__zero_reg__
  40 002c 1092 0000 		sts (HDC1080+13)+1,__zero_reg__
  41 0030 1092 0000 		sts (HDC1080+13)+2,__zero_reg__
  42 0034 1092 0000 		sts (HDC1080+13)+3,__zero_reg__
  43               	.LM8:
  44 0038 1092 0000 		sts (HDC1080+17)+1,__zero_reg__
  45 003c 1092 0000 		sts HDC1080+17,__zero_reg__
  46               	.LM9:
  47 0040 1092 0000 		sts HDC1080+19,__zero_reg__
  48               	.LM10:
  49 0044 1092 0000 		sts HDC1080+20,__zero_reg__
  50               	.LM11:
  51 0048 1092 0000 		sts HDC1080+21,__zero_reg__
  52               	.LM12:
  53 004c 1092 0000 		sts NTC,__zero_reg__
  54 0050 1092 0000 		sts (NTC)+1,__zero_reg__
  55 0054 1092 0000 		sts (NTC)+2,__zero_reg__
  56 0058 1092 0000 		sts (NTC)+3,__zero_reg__
  57               	.LM13:
  58 005c 1092 0000 		sts NTC+4,__zero_reg__
  59 0060 1092 0000 		sts (NTC+4)+1,__zero_reg__
  60 0064 1092 0000 		sts (NTC+4)+2,__zero_reg__
  61 0068 1092 0000 		sts (NTC+4)+3,__zero_reg__
  62               	/* epilogue start */
  63               	.LM14:
  64 006c 0895      		ret
  65               	.LFE6:
  67               	.global	Sensors_Init
  69               	Sensors_Init:
  70               	.LFB7:
  71               	.LM15:
  72               	/* prologue: function */
  73               	/* frame size = 0 */
  74               	.LM16:
  75 006e 0E94 0000 		call Sensors_HDC1080_Struct_Init
  76               	.LM17:
  77 0072 5B9A      		sbi 43-32,3
  78               	.LM18:
  79 0074 539A      		sbi 42-32,3
  80               	.LM19:
  81 0076 4598      		cbi 40-32,5
  82               	.LM20:
  83 0078 3D98      		cbi 39-32,5
  84               	.LM21:
  85 007a 4498      		cbi 40-32,4
  86               	.LM22:
  87 007c 3C98      		cbi 39-32,4
  88               	/* epilogue start */
  89               	.LM23:
  90 007e 0895      		ret
  91               	.LFE7:
  93               	.global	Sensors_Power_Enable
  95               	Sensors_Power_Enable:
  96               	.LFB8:
  97               	.LM24:
  98               	/* prologue: function */
  99               	/* frame size = 0 */
 100               	.LM25:
 101 0080 5B98      		cbi 43-32,3
 102               	/* epilogue start */
 103               	.LM26:
 104 0082 0895      		ret
 105               	.LFE8:
 107               	.global	Sensors_Power_Disable
 109               	Sensors_Power_Disable:
 110               	.LFB9:
 111               	.LM27:
 112               	/* prologue: function */
 113               	/* frame size = 0 */
 114               	.LM28:
 115 0084 5B9A      		sbi 43-32,3
 116               	/* epilogue start */
 117               	.LM29:
 118 0086 0895      		ret
 119               	.LFE9:
 121               	.global	Sensors_I2C_SCL_State_Set
 123               	Sensors_I2C_SCL_State_Set:
 124               	.LFB10:
 125               	.LM30:
 126               	.LVL0:
 127               	/* prologue: function */
 128               	/* frame size = 0 */
 129               	.LM31:
 130 0088 8130      		cpi r24,lo8(1)
 131 008a 01F4      		brne .L10
 132               	.LM32:
 133 008c 3D98      		cbi 39-32,5
 134               	.LM33:
 135 008e 8093 0000 		sts HDC1080+2,r24
 136 0092 0895      		ret
 137               	.L10:
 138               	.LM34:
 139 0094 8823      		tst r24
 140 0096 01F4      		brne .L12
 141               	.LM35:
 142 0098 3D9A      		sbi 39-32,5
 143               	.LM36:
 144 009a 1092 0000 		sts HDC1080+2,__zero_reg__
 145               	.L12:
 146 009e 0895      		ret
 147               	.LFE10:
 149               	.global	Sensors_I2C_SDA_State_Set
 151               	Sensors_I2C_SDA_State_Set:
 152               	.LFB11:
 153               	.LM37:
 154               	.LVL1:
 155               	/* prologue: function */
 156               	/* frame size = 0 */
 157               	.LM38:
 158 00a0 8130      		cpi r24,lo8(1)
 159 00a2 01F4      		brne .L14
 160               	.LM39:
 161 00a4 3C98      		cbi 39-32,4
 162               	.LM40:
 163 00a6 8093 0000 		sts HDC1080+3,r24
 164 00aa 0895      		ret
 165               	.L14:
 166               	.LM41:
 167 00ac 8823      		tst r24
 168 00ae 01F4      		brne .L16
 169               	.LM42:
 170 00b0 3C9A      		sbi 39-32,4
 171               	.LM43:
 172 00b2 1092 0000 		sts HDC1080+3,__zero_reg__
 173               	.L16:
 174 00b6 0895      		ret
 175               	.LFE11:
 177               	.global	Sensors_I2C_SDA_State_Get
 179               	Sensors_I2C_SDA_State_Get:
 180               	.LFB12:
 181               	.LM44:
 182               	/* prologue: function */
 183               	/* frame size = 0 */
 184               	.LM45:
 185 00b8 3C9B      		sbis 39-32,4
 186 00ba 00C0      		rjmp .L18
 187               	.LM46:
 188 00bc 3C98      		cbi 39-32,4
 189               	.LBB304:
 190               	.LBB305:
 191               	.LBB306:
 192               	.LBB307:
 193               	.LM47:
 194 00be 86E0      		ldi r24,lo8(6)
 195               	.LVL2:
 196               	/* #APP */
 197               	 ;  83 "c:/winavr-20100110/lib/gcc/../../avr/include/util/delay_basic.h" 1
 198 00c0 8A95      		1: dec r24
 199 00c2 01F4      		brne 1b
 200               	 ;  0 "" 2
 201               	/* #NOAPP */
 202               	.L18:
 203               	.LBE307:
 204               	.LBE306:
 205               	.LBE305:
 206               	.LBE304:
 207               	.LM48:
 208 00c4 86B1      		in r24,38-32
 209               	.LVL3:
 210 00c6 90E0      		ldi r25,lo8(0)
 211 00c8 24E0      		ldi r18,4
 212 00ca 9695      	1:	lsr r25
 213 00cc 8795      		ror r24
 214 00ce 2A95      		dec r18
 215 00d0 01F4      		brne 1b
 216               	.LM49:
 217 00d2 8170      		andi r24,lo8(1)
 218               	/* epilogue start */
 219 00d4 0895      		ret
 220               	.LFE12:
 222               	.global	Sensors_I2C_Bus_Idle
 224               	Sensors_I2C_Bus_Idle:
 225               	.LFB13:
 226               	.LM50:
 227               	/* prologue: function */
 228               	/* frame size = 0 */
 229               	.LM51:
 230 00d6 3D9B      		sbis 39-32,5
 231 00d8 00C0      		rjmp .L21
 232 00da 80E0      		ldi r24,lo8(0)
 233 00dc 0895      		ret
 234               	.L21:
 235 00de 87B1      		in r24,39-32
 236 00e0 8295      		swap r24
 237 00e2 8F70      		andi r24,lo8(15)
 238 00e4 8095      		com r24
 239 00e6 8170      		andi r24,lo8(1)
 240               	.LM52:
 241 00e8 0895      		ret
 242               	.LFE13:
 244               	.global	Sensors_HDC1080_I2C_Start
 246               	Sensors_HDC1080_I2C_Start:
 247               	.LFB14:
 248               	.LM53:
 249 00ea 1F93      		push r17
 250               	/* prologue: function */
 251               	/* frame size = 0 */
 252               	.LM54:
 253 00ec 8091 0000 		lds r24,HDC1080+20
 254 00f0 8823      		tst r24
 255 00f2 01F4      		brne .L26
 256               	.LM55:
 257 00f4 81E0      		ldi r24,lo8(1)
 258 00f6 0E94 0000 		call Sensors_I2C_SCL_State_Set
 259               	.LBB308:
 260               	.LBB309:
 261               	.LBB310:
 262               	.LBB311:
 263               	.LM56:
 264 00fa 16E0      		ldi r17,lo8(6)
 265 00fc 812F      		mov r24,r17
 266               	.LVL4:
 267               	/* #APP */
 268               	 ;  83 "c:/winavr-20100110/lib/gcc/../../avr/include/util/delay_basic.h" 1
 269 00fe 8A95      		1: dec r24
 270 0100 01F4      		brne 1b
 271               	 ;  0 "" 2
 272               	/* #NOAPP */
 273               	.LBE311:
 274               	.LBE310:
 275               	.LBE309:
 276               	.LBE308:
 277               	.LM57:
 278 0102 81E0      		ldi r24,lo8(1)
 279               	.LVL5:
 280 0104 0E94 0000 		call Sensors_I2C_SDA_State_Set
 281               	.LBB312:
 282               	.LBB313:
 283               	.LBB314:
 284               	.LBB315:
 285               	.LM58:
 286 0108 812F      		mov r24,r17
 287               	.LVL6:
 288               	/* #APP */
 289               	 ;  83 "c:/winavr-20100110/lib/gcc/../../avr/include/util/delay_basic.h" 1
 290 010a 8A95      		1: dec r24
 291 010c 01F4      		brne 1b
 292               	 ;  0 "" 2
 293               	/* #NOAPP */
 294               	.LBE315:
 295               	.LBE314:
 296               	.LBE313:
 297               	.LBE312:
 298               	.LM59:
 299 010e 80E0      		ldi r24,lo8(0)
 300               	.LVL7:
 301 0110 0E94 0000 		call Sensors_I2C_SDA_State_Set
 302               	.LBB316:
 303               	.LBB317:
 304               	.LBB318:
 305               	.LBB319:
 306               	.LM60:
 307 0114 812F      		mov r24,r17
 308               	.LVL8:
 309               	/* #APP */
 310               	 ;  83 "c:/winavr-20100110/lib/gcc/../../avr/include/util/delay_basic.h" 1
 311 0116 8A95      		1: dec r24
 312 0118 01F4      		brne 1b
 313               	 ;  0 "" 2
 314               	/* #NOAPP */
 315               	.LBE319:
 316               	.LBE318:
 317               	.LBE317:
 318               	.LBE316:
 319               	.LM61:
 320 011a 80E0      		ldi r24,lo8(0)
 321               	.LVL9:
 322 011c 0E94 0000 		call Sensors_I2C_SCL_State_Set
 323               	.LBB320:
 324               	.LBB321:
 325               	.LBB322:
 326               	.LBB323:
 327               	.LM62:
 328               	/* #APP */
 329               	 ;  83 "c:/winavr-20100110/lib/gcc/../../avr/include/util/delay_basic.h" 1
 330 0120 1A95      		1: dec r17
 331 0122 01F4      		brne 1b
 332               	 ;  0 "" 2
 333               	.LVL10:
 334               	/* #NOAPP */
 335               	.L26:
 336               	/* epilogue start */
 337               	.LBE323:
 338               	.LBE322:
 339               	.LBE321:
 340               	.LBE320:
 341               	.LM63:
 342 0124 1F91      		pop r17
 343               	.LVL11:
 344 0126 0895      		ret
 345               	.LFE14:
 347               	.global	Sensors_HDC1080_I2C_Stop
 349               	Sensors_HDC1080_I2C_Stop:
 350               	.LFB15:
 351               	.LM64:
 352 0128 1F93      		push r17
 353               	/* prologue: function */
 354               	/* frame size = 0 */
 355               	.LM65:
 356 012a 8091 0000 		lds r24,HDC1080+20
 357 012e 8823      		tst r24
 358 0130 01F4      		brne .L31
 359               	.LM66:
 360 0132 3D99      		sbic 39-32,5
 361 0134 00C0      		rjmp .L29
 362               	.LM67:
 363 0136 0E94 0000 		call Sensors_I2C_SCL_State_Set
 364               	.LBB324:
 365               	.LBB325:
 366               	.LBB326:
 367               	.LBB327:
 368               	.LM68:
 369 013a 82E0      		ldi r24,lo8(2)
 370               	.LVL12:
 371               	/* #APP */
 372               	 ;  83 "c:/winavr-20100110/lib/gcc/../../avr/include/util/delay_basic.h" 1
 373 013c 8A95      		1: dec r24
 374 013e 01F4      		brne 1b
 375               	 ;  0 "" 2
 376               	/* #NOAPP */
 377               	.L29:
 378               	.LBE327:
 379               	.LBE326:
 380               	.LBE325:
 381               	.LBE324:
 382               	.LM69:
 383 0140 3C99      		sbic 39-32,4
 384 0142 00C0      		rjmp .L30
 385               	.LM70:
 386 0144 80E0      		ldi r24,lo8(0)
 387               	.LVL13:
 388 0146 0E94 0000 		call Sensors_I2C_SDA_State_Set
 389               	.LBB328:
 390               	.LBB329:
 391               	.LBB330:
 392               	.LBB331:
 393               	.LM71:
 394 014a 82E0      		ldi r24,lo8(2)
 395               	.LVL14:
 396               	/* #APP */
 397               	 ;  83 "c:/winavr-20100110/lib/gcc/../../avr/include/util/delay_basic.h" 1
 398 014c 8A95      		1: dec r24
 399 014e 01F4      		brne 1b
 400               	 ;  0 "" 2
 401               	.LVL15:
 402               	/* #NOAPP */
 403               	.L30:
 404               	.LBE331:
 405               	.LBE330:
 406               	.LBE329:
 407               	.LBE328:
 408               	.LM72:
 409 0150 81E0      		ldi r24,lo8(1)
 410               	.LVL16:
 411 0152 0E94 0000 		call Sensors_I2C_SCL_State_Set
 412               	.LBB332:
 413               	.LBB333:
 414               	.LBB334:
 415               	.LBB335:
 416               	.LM73:
 417 0156 16E0      		ldi r17,lo8(6)
 418 0158 812F      		mov r24,r17
 419               	.LVL17:
 420               	/* #APP */
 421               	 ;  83 "c:/winavr-20100110/lib/gcc/../../avr/include/util/delay_basic.h" 1
 422 015a 8A95      		1: dec r24
 423 015c 01F4      		brne 1b
 424               	 ;  0 "" 2
 425               	/* #NOAPP */
 426               	.LBE335:
 427               	.LBE334:
 428               	.LBE333:
 429               	.LBE332:
 430               	.LM74:
 431 015e 81E0      		ldi r24,lo8(1)
 432               	.LVL18:
 433 0160 0E94 0000 		call Sensors_I2C_SDA_State_Set
 434               	.LBB336:
 435               	.LBB337:
 436               	.LBB338:
 437               	.LBB339:
 438               	.LM75:
 439               	/* #APP */
 440               	 ;  83 "c:/winavr-20100110/lib/gcc/../../avr/include/util/delay_basic.h" 1
 441 0164 1A95      		1: dec r17
 442 0166 01F4      		brne 1b
 443               	 ;  0 "" 2
 444               	.LVL19:
 445               	/* #NOAPP */
 446               	.L31:
 447               	/* epilogue start */
 448               	.LBE339:
 449               	.LBE338:
 450               	.LBE337:
 451               	.LBE336:
 452               	.LM76:
 453 0168 1F91      		pop r17
 454               	.LVL20:
 455 016a 0895      		ret
 456               	.LFE15:
 458               	.global	Sensors_HDC1080_I2C_Forced_Stop
 460               	Sensors_HDC1080_I2C_Forced_Stop:
 461               	.LFB16:
 462               	.LM77:
 463 016c 1F93      		push r17
 464               	/* prologue: function */
 465               	/* frame size = 0 */
 466               	.LM78:
 467 016e 8091 0000 		lds r24,HDC1080+20
 468 0172 8823      		tst r24
 469 0174 01F0      		breq .L34
 470               	.LM79:
 471 0176 0E94 0000 		call Sensors_I2C_Bus_Idle
 472 017a 8823      		tst r24
 473 017c 01F4      		brne .L34
 474               	.LM80:
 475 017e 0E94 0000 		call Sensors_I2C_SCL_State_Set
 476               	.LBB340:
 477               	.LBB341:
 478               	.LBB342:
 479               	.LBB343:
 480               	.LM81:
 481 0182 12E0      		ldi r17,lo8(2)
 482 0184 812F      		mov r24,r17
 483               	.LVL21:
 484               	/* #APP */
 485               	 ;  83 "c:/winavr-20100110/lib/gcc/../../avr/include/util/delay_basic.h" 1
 486 0186 8A95      		1: dec r24
 487 0188 01F4      		brne 1b
 488               	 ;  0 "" 2
 489               	/* #NOAPP */
 490               	.LBE343:
 491               	.LBE342:
 492               	.LBE341:
 493               	.LBE340:
 494               	.LM82:
 495 018a 80E0      		ldi r24,lo8(0)
 496               	.LVL22:
 497 018c 0E94 0000 		call Sensors_I2C_SDA_State_Set
 498               	.LBB344:
 499               	.LBB345:
 500               	.LBB346:
 501               	.LBB347:
 502               	.LM83:
 503               	/* #APP */
 504               	 ;  83 "c:/winavr-20100110/lib/gcc/../../avr/include/util/delay_basic.h" 1
 505 0190 1A95      		1: dec r17
 506 0192 01F4      		brne 1b
 507               	 ;  0 "" 2
 508               	.LVL23:
 509               	/* #NOAPP */
 510               	.LBE347:
 511               	.LBE346:
 512               	.LBE345:
 513               	.LBE344:
 514               	.LM84:
 515 0194 81E0      		ldi r24,lo8(1)
 516 0196 0E94 0000 		call Sensors_I2C_SCL_State_Set
 517               	.LBB348:
 518               	.LBB349:
 519               	.LBB350:
 520               	.LBB351:
 521               	.LM85:
 522 019a 16E0      		ldi r17,lo8(6)
 523               	.LVL24:
 524 019c 812F      		mov r24,r17
 525               	.LVL25:
 526               	/* #APP */
 527               	 ;  83 "c:/winavr-20100110/lib/gcc/../../avr/include/util/delay_basic.h" 1
 528 019e 8A95      		1: dec r24
 529 01a0 01F4      		brne 1b
 530               	 ;  0 "" 2
 531               	/* #NOAPP */
 532               	.LBE351:
 533               	.LBE350:
 534               	.LBE349:
 535               	.LBE348:
 536               	.LM86:
 537 01a2 81E0      		ldi r24,lo8(1)
 538               	.LVL26:
 539 01a4 0E94 0000 		call Sensors_I2C_SDA_State_Set
 540               	.LBB352:
 541               	.LBB353:
 542               	.LBB354:
 543               	.LBB355:
 544               	.LM87:
 545               	/* #APP */
 546               	 ;  83 "c:/winavr-20100110/lib/gcc/../../avr/include/util/delay_basic.h" 1
 547 01a8 1A95      		1: dec r17
 548 01aa 01F4      		brne 1b
 549               	 ;  0 "" 2
 550               	.LVL27:
 551               	/* #NOAPP */
 552               	.L34:
 553               	/* epilogue start */
 554               	.LBE355:
 555               	.LBE354:
 556               	.LBE353:
 557               	.LBE352:
 558               	.LM88:
 559 01ac 1F91      		pop r17
 560               	.LVL28:
 561 01ae 0895      		ret
 562               	.LFE16:
 564               	.global	Sensors_HDC1080_I2C_Send
 566               	Sensors_HDC1080_I2C_Send:
 567               	.LFB17:
 568               	.LM89:
 569               	.LVL29:
 570 01b0 FF92      		push r15
 571 01b2 0F93      		push r16
 572 01b4 1F93      		push r17
 573               	/* prologue: function */
 574               	/* frame size = 0 */
 575 01b6 082F      		mov r16,r24
 576               	.LM90:
 577 01b8 8091 0000 		lds r24,HDC1080+20
 578               	.LVL30:
 579 01bc 8823      		tst r24
 580 01be 01F4      		brne .L40
 581 01c0 10E0      		ldi r17,lo8(0)
 582               	.LVL31:
 583               	.LBB356:
 584               	.LBB357:
 585               	.LBB358:
 586               	.LBB359:
 587               	.LBB360:
 588               	.LM91:
 589 01c2 36E0      		ldi r19,lo8(6)
 590 01c4 F32E      		mov r15,r19
 591               	.LVL32:
 592               	.L39:
 593               	.LBE360:
 594               	.LBE359:
 595               	.LBE358:
 596               	.LBE357:
 597               	.LM92:
 598 01c6 07FF      		sbrs r16,7
 599 01c8 00C0      		rjmp .L37
 600               	.LM93:
 601 01ca 81E0      		ldi r24,lo8(1)
 602               	.LVL33:
 603 01cc 00C0      		rjmp .L41
 604               	.LVL34:
 605               	.L37:
 606               	.LM94:
 607 01ce 80E0      		ldi r24,lo8(0)
 608               	.LVL35:
 609               	.L41:
 610 01d0 0E94 0000 		call Sensors_I2C_SDA_State_Set
 611               	.LBB364:
 612               	.LBB363:
 613               	.LBB362:
 614               	.LBB361:
 615               	.LM95:
 616 01d4 8F2D      		mov r24,r15
 617               	.LVL36:
 618               	/* #APP */
 619               	 ;  83 "c:/winavr-20100110/lib/gcc/../../avr/include/util/delay_basic.h" 1
 620 01d6 8A95      		1: dec r24
 621 01d8 01F4      		brne 1b
 622               	 ;  0 "" 2
 623               	/* #NOAPP */
 624               	.LBE361:
 625               	.LBE362:
 626               	.LBE363:
 627               	.LBE364:
 628               	.LM96:
 629 01da 81E0      		ldi r24,lo8(1)
 630               	.LVL37:
 631 01dc 0E94 0000 		call Sensors_I2C_SCL_State_Set
 632               	.LBB365:
 633               	.LBB366:
 634               	.LBB367:
 635               	.LBB368:
 636               	.LM97:
 637 01e0 8F2D      		mov r24,r15
 638               	.LVL38:
 639               	/* #APP */
 640               	 ;  83 "c:/winavr-20100110/lib/gcc/../../avr/include/util/delay_basic.h" 1
 641 01e2 8A95      		1: dec r24
 642 01e4 01F4      		brne 1b
 643               	 ;  0 "" 2
 644               	/* #NOAPP */
 645               	.LBE368:
 646               	.LBE367:
 647               	.LBE366:
 648               	.LBE365:
 649               	.LM98:
 650 01e6 80E0      		ldi r24,lo8(0)
 651               	.LVL39:
 652 01e8 0E94 0000 		call Sensors_I2C_SCL_State_Set
 653               	.LBB369:
 654               	.LBB370:
 655               	.LBB371:
 656               	.LBB372:
 657               	.LM99:
 658 01ec 8F2D      		mov r24,r15
 659               	.LVL40:
 660               	/* #APP */
 661               	 ;  83 "c:/winavr-20100110/lib/gcc/../../avr/include/util/delay_basic.h" 1
 662 01ee 8A95      		1: dec r24
 663 01f0 01F4      		brne 1b
 664               	 ;  0 "" 2
 665               	/* #NOAPP */
 666               	.LBE372:
 667               	.LBE371:
 668               	.LBE370:
 669               	.LBE369:
 670               	.LM100:
 671 01f2 1F5F      		subi r17,lo8(-(1))
 672 01f4 1830      		cpi r17,lo8(8)
 673 01f6 01F0      		breq .L40
 674               	.LM101:
 675 01f8 000F      		lsl r16
 676 01fa 00C0      		rjmp .L39
 677               	.L40:
 678               	/* epilogue start */
 679               	.LBE356:
 680               	.LM102:
 681 01fc 1F91      		pop r17
 682               	.LVL41:
 683 01fe 0F91      		pop r16
 684               	.LVL42:
 685 0200 FF90      		pop r15
 686 0202 0895      		ret
 687               	.LFE17:
 689               	.global	Sensors_HDC1080_I2C_Receive
 691               	Sensors_HDC1080_I2C_Receive:
 692               	.LFB18:
 693               	.LM103:
 694 0204 FF92      		push r15
 695 0206 0F93      		push r16
 696 0208 1F93      		push r17
 697               	/* prologue: function */
 698               	/* frame size = 0 */
 699               	.LM104:
 700 020a 8091 0000 		lds r24,HDC1080+20
 701 020e 8823      		tst r24
 702 0210 01F0      		breq .L43
 703 0212 10E0      		ldi r17,lo8(0)
 704               	.LVL43:
 705 0214 00C0      		rjmp .L44
 706               	.LVL44:
 707               	.L43:
 708               	.LM105:
 709 0216 81E0      		ldi r24,lo8(1)
 710 0218 0E94 0000 		call Sensors_I2C_SDA_State_Set
 711               	.LBB373:
 712               	.LBB374:
 713               	.LBB375:
 714               	.LBB376:
 715               	.LM106:
 716 021c 86E0      		ldi r24,lo8(6)
 717               	.LVL45:
 718               	/* #APP */
 719               	 ;  83 "c:/winavr-20100110/lib/gcc/../../avr/include/util/delay_basic.h" 1
 720 021e 8A95      		1: dec r24
 721 0220 01F4      		brne 1b
 722               	 ;  0 "" 2
 723               	/* #NOAPP */
 724 0222 10E0      		ldi r17,lo8(0)
 725               	.LVL46:
 726 0224 00E0      		ldi r16,lo8(0)
 727               	.LVL47:
 728               	.LBE376:
 729               	.LBE375:
 730               	.LBE374:
 731               	.LBE373:
 732               	.LBB377:
 733               	.LBB378:
 734               	.LBB379:
 735               	.LBB380:
 736               	.LBB381:
 737 0226 46E0      		ldi r20,lo8(6)
 738 0228 F42E      		mov r15,r20
 739               	.LVL48:
 740               	.L46:
 741               	.LBE381:
 742               	.LBE380:
 743               	.LBE379:
 744               	.LBE378:
 745               	.LM107:
 746 022a 110F      		lsl r17
 747               	.LM108:
 748 022c 0E94 0000 		call Sensors_I2C_SDA_State_Get
 749               	.LVL49:
 750 0230 8130      		cpi r24,lo8(1)
 751 0232 01F4      		brne .L45
 752               	.LM109:
 753 0234 1160      		ori r17,lo8(1)
 754               	.L45:
 755               	.LM110:
 756 0236 81E0      		ldi r24,lo8(1)
 757 0238 0E94 0000 		call Sensors_I2C_SCL_State_Set
 758               	.LBB385:
 759               	.LBB384:
 760               	.LBB383:
 761               	.LBB382:
 762               	.LM111:
 763 023c 8F2D      		mov r24,r15
 764               	.LVL50:
 765               	/* #APP */
 766               	 ;  83 "c:/winavr-20100110/lib/gcc/../../avr/include/util/delay_basic.h" 1
 767 023e 8A95      		1: dec r24
 768 0240 01F4      		brne 1b
 769               	 ;  0 "" 2
 770               	/* #NOAPP */
 771               	.LBE382:
 772               	.LBE383:
 773               	.LBE384:
 774               	.LBE385:
 775               	.LM112:
 776 0242 80E0      		ldi r24,lo8(0)
 777               	.LVL51:
 778 0244 0E94 0000 		call Sensors_I2C_SCL_State_Set
 779               	.LBB386:
 780               	.LBB387:
 781               	.LBB388:
 782               	.LBB389:
 783               	.LM113:
 784 0248 8F2D      		mov r24,r15
 785               	.LVL52:
 786               	/* #APP */
 787               	 ;  83 "c:/winavr-20100110/lib/gcc/../../avr/include/util/delay_basic.h" 1
 788 024a 8A95      		1: dec r24
 789 024c 01F4      		brne 1b
 790               	 ;  0 "" 2
 791               	/* #NOAPP */
 792               	.LBE389:
 793               	.LBE388:
 794               	.LBE387:
 795               	.LBE386:
 796               	.LM114:
 797 024e 0F5F      		subi r16,lo8(-(1))
 798 0250 0830      		cpi r16,lo8(8)
 799 0252 01F4      		brne .L46
 800               	.L44:
 801               	.LBE377:
 802               	.LM115:
 803 0254 812F      		mov r24,r17
 804               	.LVL53:
 805               	/* epilogue start */
 806 0256 1F91      		pop r17
 807               	.LVL54:
 808 0258 0F91      		pop r16
 809               	.LVL55:
 810 025a FF90      		pop r15
 811 025c 0895      		ret
 812               	.LFE18:
 814               	.global	Sensors_HDC1080_I2C_Check_Ack
 816               	Sensors_HDC1080_I2C_Check_Ack:
 817               	.LFB19:
 818               	.LM116:
 819 025e 1F93      		push r17
 820               	/* prologue: function */
 821               	/* frame size = 0 */
 822               	.LM117:
 823 0260 8091 0000 		lds r24,HDC1080+20
 824 0264 8823      		tst r24
 825 0266 01F4      		brne .L53
 826               	.LM118:
 827 0268 81E0      		ldi r24,lo8(1)
 828 026a 0E94 0000 		call Sensors_I2C_SDA_State_Set
 829               	.LBB390:
 830               	.LBB391:
 831               	.LBB392:
 832               	.LBB393:
 833               	.LM119:
 834 026e 12E0      		ldi r17,lo8(2)
 835 0270 812F      		mov r24,r17
 836               	.LVL56:
 837               	/* #APP */
 838               	 ;  83 "c:/winavr-20100110/lib/gcc/../../avr/include/util/delay_basic.h" 1
 839 0272 8A95      		1: dec r24
 840 0274 01F4      		brne 1b
 841               	 ;  0 "" 2
 842               	/* #NOAPP */
 843               	.LBE393:
 844               	.LBE392:
 845               	.LBE391:
 846               	.LBE390:
 847               	.LM120:
 848 0276 81E0      		ldi r24,lo8(1)
 849               	.LVL57:
 850 0278 0E94 0000 		call Sensors_I2C_SCL_State_Set
 851               	.LBB394:
 852               	.LBB395:
 853               	.LBB396:
 854               	.LBB397:
 855               	.LM121:
 856               	/* #APP */
 857               	 ;  83 "c:/winavr-20100110/lib/gcc/../../avr/include/util/delay_basic.h" 1
 858 027c 1A95      		1: dec r17
 859 027e 01F4      		brne 1b
 860               	 ;  0 "" 2
 861               	.LVL58:
 862               	/* #NOAPP */
 863               	.LBE397:
 864               	.LBE396:
 865               	.LBE395:
 866               	.LBE394:
 867               	.LM122:
 868 0280 0E94 0000 		call Sensors_I2C_SDA_State_Get
 869 0284 8823      		tst r24
 870 0286 01F4      		brne .L51
 871               	.LM123:
 872 0288 81E0      		ldi r24,lo8(1)
 873 028a 8093 0000 		sts HDC1080+1,r24
 874 028e 00C0      		rjmp .L52
 875               	.L51:
 876               	.LM124:
 877 0290 1092 0000 		sts HDC1080+1,__zero_reg__
 878               	.L52:
 879               	.LBB398:
 880               	.LBB399:
 881               	.LBB400:
 882               	.LBB401:
 883               	.LM125:
 884 0294 12E0      		ldi r17,lo8(2)
 885               	.LVL59:
 886 0296 812F      		mov r24,r17
 887               	.LVL60:
 888               	/* #APP */
 889               	 ;  83 "c:/winavr-20100110/lib/gcc/../../avr/include/util/delay_basic.h" 1
 890 0298 8A95      		1: dec r24
 891 029a 01F4      		brne 1b
 892               	 ;  0 "" 2
 893               	/* #NOAPP */
 894               	.LBE401:
 895               	.LBE400:
 896               	.LBE399:
 897               	.LBE398:
 898               	.LM126:
 899 029c 80E0      		ldi r24,lo8(0)
 900               	.LVL61:
 901 029e 0E94 0000 		call Sensors_I2C_SCL_State_Set
 902               	.LBB402:
 903               	.LBB403:
 904               	.LBB404:
 905               	.LBB405:
 906               	.LM127:
 907               	/* #APP */
 908               	 ;  83 "c:/winavr-20100110/lib/gcc/../../avr/include/util/delay_basic.h" 1
 909 02a2 1A95      		1: dec r17
 910 02a4 01F4      		brne 1b
 911               	 ;  0 "" 2
 912               	.LVL62:
 913               	/* #NOAPP */
 914               	.L53:
 915               	/* epilogue start */
 916               	.LBE405:
 917               	.LBE404:
 918               	.LBE403:
 919               	.LBE402:
 920               	.LM128:
 921 02a6 1F91      		pop r17
 922               	.LVL63:
 923 02a8 0895      		ret
 924               	.LFE19:
 926               	.global	Sensors_HDC1080_I2C_Send_Ack
 928               	Sensors_HDC1080_I2C_Send_Ack:
 929               	.LFB20:
 930               	.LM129:
 931 02aa 1F93      		push r17
 932               	/* prologue: function */
 933               	/* frame size = 0 */
 934               	.LM130:
 935 02ac 8091 0000 		lds r24,HDC1080+20
 936 02b0 8823      		tst r24
 937 02b2 01F4      		brne .L56
 938               	.LM131:
 939 02b4 0E94 0000 		call Sensors_I2C_SDA_State_Set
 940               	.LBB406:
 941               	.LBB407:
 942               	.LBB408:
 943               	.LBB409:
 944               	.LM132:
 945 02b8 12E0      		ldi r17,lo8(2)
 946 02ba 812F      		mov r24,r17
 947               	.LVL64:
 948               	/* #APP */
 949               	 ;  83 "c:/winavr-20100110/lib/gcc/../../avr/include/util/delay_basic.h" 1
 950 02bc 8A95      		1: dec r24
 951 02be 01F4      		brne 1b
 952               	 ;  0 "" 2
 953               	/* #NOAPP */
 954               	.LBE409:
 955               	.LBE408:
 956               	.LBE407:
 957               	.LBE406:
 958               	.LM133:
 959 02c0 81E0      		ldi r24,lo8(1)
 960               	.LVL65:
 961 02c2 0E94 0000 		call Sensors_I2C_SCL_State_Set
 962               	.LBB410:
 963               	.LBB411:
 964               	.LBB412:
 965               	.LBB413:
 966               	.LM134:
 967 02c6 812F      		mov r24,r17
 968               	.LVL66:
 969               	/* #APP */
 970               	 ;  83 "c:/winavr-20100110/lib/gcc/../../avr/include/util/delay_basic.h" 1
 971 02c8 8A95      		1: dec r24
 972 02ca 01F4      		brne 1b
 973               	 ;  0 "" 2
 974               	/* #NOAPP */
 975               	.LBE413:
 976               	.LBE412:
 977               	.LBE411:
 978               	.LBE410:
 979               	.LBB414:
 980               	.LBB415:
 981               	.LBB416:
 982               	.LBB417:
 983 02cc 812F      		mov r24,r17
 984               	.LVL67:
 985               	/* #APP */
 986               	 ;  83 "c:/winavr-20100110/lib/gcc/../../avr/include/util/delay_basic.h" 1
 987 02ce 8A95      		1: dec r24
 988 02d0 01F4      		brne 1b
 989               	 ;  0 "" 2
 990               	/* #NOAPP */
 991               	.LBE417:
 992               	.LBE416:
 993               	.LBE415:
 994               	.LBE414:
 995               	.LM135:
 996 02d2 80E0      		ldi r24,lo8(0)
 997               	.LVL68:
 998 02d4 0E94 0000 		call Sensors_I2C_SCL_State_Set
 999               	.LBB418:
 1000               	.LBB419:
 1001               	.LBB420:
 1002               	.LBB421:
 1003               	.LM136:
 1004               	/* #APP */
 1005               	 ;  83 "c:/winavr-20100110/lib/gcc/../../avr/include/util/delay_basic.h" 1
 1006 02d8 1A95      		1: dec r17
 1007 02da 01F4      		brne 1b
 1008               	 ;  0 "" 2
 1009               	.LVL69:
 1010               	/* #NOAPP */
 1011               	.L56:
 1012               	/* epilogue start */
 1013               	.LBE421:
 1014               	.LBE420:
 1015               	.LBE419:
 1016               	.LBE418:
 1017               	.LM137:
 1018 02dc 1F91      		pop r17
 1019               	.LVL70:
 1020 02de 0895      		ret
 1021               	.LFE20:
 1023               	.global	Sensors_HDC1080_Slave_Addr_Send
 1025               	Sensors_HDC1080_Slave_Addr_Send:
 1026               	.LFB21:
 1027               	.LM138:
 1028               	.LVL71:
 1029 02e0 0F93      		push r16
 1030 02e2 1F93      		push r17
 1031               	/* prologue: function */
 1032               	/* frame size = 0 */
 1033 02e4 082F      		mov r16,r24
 1034               	.LM139:
 1035 02e6 10E0      		ldi r17,lo8(0)
 1036               	.LVL72:
 1037               	.L60:
 1038               	.LM140:
 1039 02e8 0E94 0000 		call Sensors_HDC1080_I2C_Start
 1040               	.LM141:
 1041 02ec 802F      		mov r24,r16
 1042 02ee 0E94 0000 		call Sensors_HDC1080_I2C_Send
 1043               	.LM142:
 1044 02f2 0E94 0000 		call Sensors_HDC1080_I2C_Check_Ack
 1045               	.LM143:
 1046 02f6 8091 0000 		lds r24,HDC1080+1
 1047 02fa 8823      		tst r24
 1048 02fc 01F0      		breq .L58
 1049 02fe 81E0      		ldi r24,lo8(1)
 1050               	.LVL73:
 1051 0300 00C0      		rjmp .L59
 1052               	.LVL74:
 1053               	.L58:
 1054               	.LM144:
 1055 0302 0E94 0000 		call Sensors_HDC1080_I2C_Stop
 1056               	.LM145:
 1057 0306 1F5F      		subi r17,lo8(-(1))
 1058               	.LM146:
 1059 0308 1F31      		cpi r17,lo8(31)
 1060 030a 01F4      		brne .L60
 1061               	.LM147:
 1062 030c 81E0      		ldi r24,lo8(1)
 1063 030e 8093 0000 		sts HDC1080+20,r24
 1064 0312 80E0      		ldi r24,lo8(0)
 1065               	.LVL75:
 1066               	.L59:
 1067               	.LVL76:
 1068               	/* epilogue start */
 1069               	.LM148:
 1070 0314 1F91      		pop r17
 1071               	.LVL77:
 1072 0316 0F91      		pop r16
 1073               	.LVL78:
 1074 0318 0895      		ret
 1075               	.LFE21:
 1077               	.global	Sensors_HDC1080_Config
 1079               	Sensors_HDC1080_Config:
 1080               	.LFB22:
 1081               	.LM149:
 1082               	.LVL79:
 1083 031a FF92      		push r15
 1084 031c 0F93      		push r16
 1085 031e 1F93      		push r17
 1086               	/* prologue: function */
 1087               	/* frame size = 0 */
 1088 0320 182F      		mov r17,r24
 1089               	.LM150:
 1090 0322 80E8      		ldi r24,lo8(-128)
 1091               	.LVL80:
 1092 0324 0E94 0000 		call Sensors_HDC1080_Slave_Addr_Send
 1093               	.LM151:
 1094 0328 82E0      		ldi r24,lo8(2)
 1095 032a 0E94 0000 		call Sensors_HDC1080_I2C_Send
 1096               	.LM152:
 1097 032e 0E94 0000 		call Sensors_HDC1080_I2C_Check_Ack
 1098               	.LM153:
 1099 0332 F090 0000 		lds r15,HDC1080+1
 1100               	.LVL81:
 1101               	.LM154:
 1102 0336 812F      		mov r24,r17
 1103 0338 0E94 0000 		call Sensors_HDC1080_I2C_Send
 1104               	.LM155:
 1105 033c 0E94 0000 		call Sensors_HDC1080_I2C_Check_Ack
 1106               	.LM156:
 1107 0340 0091 0000 		lds r16,HDC1080+1
 1108               	.LM157:
 1109 0344 80E0      		ldi r24,lo8(0)
 1110 0346 0E94 0000 		call Sensors_HDC1080_I2C_Send
 1111               	.LM158:
 1112 034a 0E94 0000 		call Sensors_HDC1080_I2C_Check_Ack
 1113               	.LM159:
 1114 034e 1091 0000 		lds r17,HDC1080+1
 1115               	.LVL82:
 1116               	.LM160:
 1117 0352 0E94 0000 		call Sensors_HDC1080_I2C_Stop
 1118               	.LM161:
 1119 0356 8091 0000 		lds r24,HDC1080+20
 1120 035a 8823      		tst r24
 1121 035c 01F4      		brne .L65
 1122 035e 000F      		lsl r16
 1123 0360 110F      		lsl r17
 1124 0362 110F      		lsl r17
 1125 0364 102B      		or r17,r16
 1126 0366 1F29      		or r17,r15
 1127 0368 1730      		cpi r17,lo8(7)
 1128 036a 01F0      		breq .L65
 1129               	.LM162:
 1130 036c 85E0      		ldi r24,lo8(5)
 1131 036e 8093 0000 		sts HDC1080+20,r24
 1132               	.L65:
 1133               	/* epilogue start */
 1134               	.LM163:
 1135 0372 1F91      		pop r17
 1136 0374 0F91      		pop r16
 1137 0376 FF90      		pop r15
 1138               	.LVL83:
 1139 0378 0895      		ret
 1140               	.LFE22:
 1142               	.global	Sensors_Sample_Temp_RH
 1144               	Sensors_Sample_Temp_RH:
 1145               	.LFB23:
 1146               	.LM164:
 1147 037a EF92      		push r14
 1148 037c FF92      		push r15
 1149 037e 0F93      		push r16
 1150 0380 1F93      		push r17
 1151               	/* prologue: function */
 1152               	/* frame size = 0 */
 1153               	.LBB422:
 1154               	.LBB423:
 1155               	.LBB424:
 1156               	.LBB425:
 1157               	.LM165:
 1158 0382 80E2      		ldi r24,lo8(20000)
 1159 0384 9EE4      		ldi r25,hi8(20000)
 1160               	.LVL84:
 1161               	/* #APP */
 1162               	 ;  105 "c:/winavr-20100110/lib/gcc/../../avr/include/util/delay_basic.h" 1
 1163 0386 0197      		1: sbiw r24,1
 1164 0388 01F4      		brne 1b
 1165               	 ;  0 "" 2
 1166               	/* #NOAPP */
 1167               	.LBE425:
 1168               	.LBE424:
 1169               	.LBE423:
 1170               	.LBE422:
 1171               	.LM166:
 1172 038a 1092 0000 		sts HDC1080+20,__zero_reg__
 1173               	.LM167:
 1174 038e 80E0      		ldi r24,lo8(0)
 1175               	.LVL85:
 1176 0390 0E94 0000 		call Sensors_HDC1080_Config
 1177               	.LM168:
 1178 0394 0E94 0000 		call Sensors_HDC1080_I2C_Start
 1179               	.LM169:
 1180 0398 80E8      		ldi r24,lo8(-128)
 1181 039a 0E94 0000 		call Sensors_HDC1080_I2C_Send
 1182               	.LM170:
 1183 039e 0E94 0000 		call Sensors_HDC1080_I2C_Check_Ack
 1184               	.LM171:
 1185 03a2 E090 0000 		lds r14,HDC1080+1
 1186               	.LVL86:
 1187               	.LM172:
 1188 03a6 80E0      		ldi r24,lo8(0)
 1189 03a8 0E94 0000 		call Sensors_HDC1080_I2C_Send
 1190               	.LM173:
 1191 03ac 0E94 0000 		call Sensors_HDC1080_I2C_Check_Ack
 1192               	.LM174:
 1193 03b0 1091 0000 		lds r17,HDC1080+1
 1194               	.LM175:
 1195 03b4 0E94 0000 		call Sensors_HDC1080_I2C_Stop
 1196               	.LM176:
 1197 03b8 8091 0000 		lds r24,HDC1080+20
 1198 03bc 8823      		tst r24
 1199 03be 01F4      		brne .L67
 1200 03c0 110F      		lsl r17
 1201 03c2 1E29      		or r17,r14
 1202 03c4 1330      		cpi r17,lo8(3)
 1203 03c6 01F0      		breq .L67
 1204               	.LM177:
 1205 03c8 86E0      		ldi r24,lo8(6)
 1206 03ca 8093 0000 		sts HDC1080+20,r24
 1207               	.L67:
 1208               	.LBB426:
 1209               	.LBB427:
 1210               	.LBB428:
 1211               	.LBB429:
 1212               	.LM178:
 1213 03ce 80E7      		ldi r24,lo8(6000)
 1214 03d0 97E1      		ldi r25,hi8(6000)
 1215               	.LVL87:
 1216               	/* #APP */
 1217               	 ;  105 "c:/winavr-20100110/lib/gcc/../../avr/include/util/delay_basic.h" 1
 1218 03d2 0197      		1: sbiw r24,1
 1219 03d4 01F4      		brne 1b
 1220               	 ;  0 "" 2
 1221               	/* #NOAPP */
 1222               	.LBE429:
 1223               	.LBE428:
 1224               	.LBE427:
 1225               	.LBE426:
 1226               	.LM179:
 1227 03d6 81E8      		ldi r24,lo8(-127)
 1228               	.LVL88:
 1229 03d8 0E94 0000 		call Sensors_HDC1080_Slave_Addr_Send
 1230               	.LM180:
 1231 03dc 0E94 0000 		call Sensors_HDC1080_I2C_Receive
 1232 03e0 90E0      		ldi r25,lo8(0)
 1233 03e2 A0E0      		ldi r26,lo8(0)
 1234 03e4 B0E0      		ldi r27,hi8(0)
 1235 03e6 8093 0000 		sts HDC1080+7,r24
 1236 03ea 9093 0000 		sts (HDC1080+7)+1,r25
 1237 03ee A093 0000 		sts (HDC1080+7)+2,r26
 1238 03f2 B093 0000 		sts (HDC1080+7)+3,r27
 1239               	.LM181:
 1240 03f6 0E94 0000 		call Sensors_HDC1080_I2C_Send_Ack
 1241               	.LM182:
 1242 03fa E090 0000 		lds r14,HDC1080+7
 1243 03fe F090 0000 		lds r15,(HDC1080+7)+1
 1244 0402 0091 0000 		lds r16,(HDC1080+7)+2
 1245 0406 1091 0000 		lds r17,(HDC1080+7)+3
 1246               	.LVL89:
 1247 040a 102F      		mov r17,r16
 1248 040c 0F2D      		mov r16,r15
 1249 040e FE2C      		mov r15,r14
 1250 0410 EE24      		clr r14
 1251 0412 E092 0000 		sts HDC1080+7,r14
 1252 0416 F092 0000 		sts (HDC1080+7)+1,r15
 1253 041a 0093 0000 		sts (HDC1080+7)+2,r16
 1254 041e 1093 0000 		sts (HDC1080+7)+3,r17
 1255               	.LM183:
 1256 0422 0E94 0000 		call Sensors_HDC1080_I2C_Receive
 1257 0426 90E0      		ldi r25,lo8(0)
 1258 0428 A0E0      		ldi r26,lo8(0)
 1259 042a B0E0      		ldi r27,hi8(0)
 1260 042c 8E29      		or r24,r14
 1261 042e 9F29      		or r25,r15
 1262 0430 A02B      		or r26,r16
 1263 0432 B12B      		or r27,r17
 1264 0434 8093 0000 		sts HDC1080+7,r24
 1265 0438 9093 0000 		sts (HDC1080+7)+1,r25
 1266 043c A093 0000 		sts (HDC1080+7)+2,r26
 1267 0440 B093 0000 		sts (HDC1080+7)+3,r27
 1268               	.LM184:
 1269 0444 0E94 0000 		call Sensors_HDC1080_I2C_Check_Ack
 1270               	.LM185:
 1271 0448 0E94 0000 		call Sensors_HDC1080_I2C_Stop
 1272               	.LM186:
 1273 044c 0E94 0000 		call Sensors_HDC1080_I2C_Start
 1274               	.LM187:
 1275 0450 80E8      		ldi r24,lo8(-128)
 1276 0452 0E94 0000 		call Sensors_HDC1080_I2C_Send
 1277               	.LM188:
 1278 0456 0E94 0000 		call Sensors_HDC1080_I2C_Check_Ack
 1279               	.LM189:
 1280 045a E090 0000 		lds r14,HDC1080+1
 1281               	.LVL90:
 1282               	.LM190:
 1283 045e 81E0      		ldi r24,lo8(1)
 1284 0460 0E94 0000 		call Sensors_HDC1080_I2C_Send
 1285               	.LM191:
 1286 0464 0E94 0000 		call Sensors_HDC1080_I2C_Check_Ack
 1287               	.LM192:
 1288 0468 1091 0000 		lds r17,HDC1080+1
 1289               	.LM193:
 1290 046c 0E94 0000 		call Sensors_HDC1080_I2C_Stop
 1291               	.LM194:
 1292 0470 8091 0000 		lds r24,HDC1080+20
 1293 0474 8823      		tst r24
 1294 0476 01F4      		brne .L68
 1295 0478 110F      		lsl r17
 1296 047a 1E29      		or r17,r14
 1297 047c 1330      		cpi r17,lo8(3)
 1298 047e 01F0      		breq .L68
 1299               	.LM195:
 1300 0480 87E0      		ldi r24,lo8(7)
 1301 0482 8093 0000 		sts HDC1080+20,r24
 1302               	.L68:
 1303               	.LBB430:
 1304               	.LBB431:
 1305               	.LBB432:
 1306               	.LBB433:
 1307               	.LM196:
 1308 0486 80E7      		ldi r24,lo8(6000)
 1309 0488 97E1      		ldi r25,hi8(6000)
 1310               	.LVL91:
 1311               	/* #APP */
 1312               	 ;  105 "c:/winavr-20100110/lib/gcc/../../avr/include/util/delay_basic.h" 1
 1313 048a 0197      		1: sbiw r24,1
 1314 048c 01F4      		brne 1b
 1315               	 ;  0 "" 2
 1316               	/* #NOAPP */
 1317               	.LBE433:
 1318               	.LBE432:
 1319               	.LBE431:
 1320               	.LBE430:
 1321               	.LM197:
 1322 048e 81E8      		ldi r24,lo8(-127)
 1323               	.LVL92:
 1324 0490 0E94 0000 		call Sensors_HDC1080_Slave_Addr_Send
 1325               	.LM198:
 1326 0494 0E94 0000 		call Sensors_HDC1080_I2C_Receive
 1327 0498 90E0      		ldi r25,lo8(0)
 1328 049a A0E0      		ldi r26,lo8(0)
 1329 049c B0E0      		ldi r27,hi8(0)
 1330 049e 8093 0000 		sts HDC1080+13,r24
 1331 04a2 9093 0000 		sts (HDC1080+13)+1,r25
 1332 04a6 A093 0000 		sts (HDC1080+13)+2,r26
 1333 04aa B093 0000 		sts (HDC1080+13)+3,r27
 1334               	.LM199:
 1335 04ae 0E94 0000 		call Sensors_HDC1080_I2C_Send_Ack
 1336               	.LM200:
 1337 04b2 E090 0000 		lds r14,HDC1080+13
 1338 04b6 F090 0000 		lds r15,(HDC1080+13)+1
 1339 04ba 0091 0000 		lds r16,(HDC1080+13)+2
 1340 04be 1091 0000 		lds r17,(HDC1080+13)+3
 1341               	.LVL93:
 1342 04c2 102F      		mov r17,r16
 1343 04c4 0F2D      		mov r16,r15
 1344 04c6 FE2C      		mov r15,r14
 1345 04c8 EE24      		clr r14
 1346 04ca E092 0000 		sts HDC1080+13,r14
 1347 04ce F092 0000 		sts (HDC1080+13)+1,r15
 1348 04d2 0093 0000 		sts (HDC1080+13)+2,r16
 1349 04d6 1093 0000 		sts (HDC1080+13)+3,r17
 1350               	.LM201:
 1351 04da 0E94 0000 		call Sensors_HDC1080_I2C_Receive
 1352 04de 90E0      		ldi r25,lo8(0)
 1353 04e0 A0E0      		ldi r26,lo8(0)
 1354 04e2 B0E0      		ldi r27,hi8(0)
 1355 04e4 8E29      		or r24,r14
 1356 04e6 9F29      		or r25,r15
 1357 04e8 A02B      		or r26,r16
 1358 04ea B12B      		or r27,r17
 1359 04ec 8093 0000 		sts HDC1080+13,r24
 1360 04f0 9093 0000 		sts (HDC1080+13)+1,r25
 1361 04f4 A093 0000 		sts (HDC1080+13)+2,r26
 1362 04f8 B093 0000 		sts (HDC1080+13)+3,r27
 1363               	.LM202:
 1364 04fc 0E94 0000 		call Sensors_HDC1080_I2C_Check_Ack
 1365               	.LM203:
 1366 0500 0E94 0000 		call Sensors_HDC1080_I2C_Stop
 1367               	.LM204:
 1368 0504 0E94 0000 		call Sensors_HDC1080_I2C_Forced_Stop
 1369               	/* epilogue start */
 1370               	.LM205:
 1371 0508 1F91      		pop r17
 1372 050a 0F91      		pop r16
 1373 050c FF90      		pop r15
 1374 050e EF90      		pop r14
 1375 0510 0895      		ret
 1376               	.LFE23:
 1378               	.global	Sensors_HDC1080_Calculate
 1380               	Sensors_HDC1080_Calculate:
 1381               	.LFB24:
 1382               	.LM206:
 1383               	/* prologue: function */
 1384               	/* frame size = 0 */
 1385               	.LM207:
 1386 0512 8091 0000 		lds r24,HDC1080+20
 1387 0516 8823      		tst r24
 1388 0518 01F4      		brne .L71
 1389               	.LM208:
 1390 051a 6091 0000 		lds r22,HDC1080+7
 1391 051e 7091 0000 		lds r23,(HDC1080+7)+1
 1392 0522 8091 0000 		lds r24,(HDC1080+7)+2
 1393 0526 9091 0000 		lds r25,(HDC1080+7)+3
 1394 052a 22E7      		ldi r18,lo8(1650)
 1395 052c 36E0      		ldi r19,hi8(1650)
 1396 052e 40E0      		ldi r20,hlo8(1650)
 1397 0530 50E0      		ldi r21,hhi8(1650)
 1398 0532 0E94 0000 		call __mulsi3
 1399 0536 BC01      		movw r22,r24
 1400 0538 8827      		clr r24
 1401 053a 9927      		clr r25
 1402 053c 6093 0000 		sts HDC1080+7,r22
 1403 0540 7093 0000 		sts (HDC1080+7)+1,r23
 1404 0544 8093 0000 		sts (HDC1080+7)+2,r24
 1405 0548 9093 0000 		sts (HDC1080+7)+3,r25
 1406               	.LM209:
 1407 054c 6059      		subi r22,lo8(-(-400))
 1408 054e 7140      		sbci r23,hi8(-(-400))
 1409 0550 7093 0000 		sts (HDC1080+11)+1,r23
 1410 0554 6093 0000 		sts HDC1080+11,r22
 1411               	.LM210:
 1412 0558 6091 0000 		lds r22,HDC1080+13
 1413 055c 7091 0000 		lds r23,(HDC1080+13)+1
 1414 0560 8091 0000 		lds r24,(HDC1080+13)+2
 1415 0564 9091 0000 		lds r25,(HDC1080+13)+3
 1416 0568 24E6      		ldi r18,lo8(100)
 1417 056a 30E0      		ldi r19,hi8(100)
 1418 056c 40E0      		ldi r20,hlo8(100)
 1419 056e 50E0      		ldi r21,hhi8(100)
 1420 0570 0E94 0000 		call __mulsi3
 1421 0574 BC01      		movw r22,r24
 1422 0576 8827      		clr r24
 1423 0578 9927      		clr r25
 1424 057a 6093 0000 		sts HDC1080+13,r22
 1425 057e 7093 0000 		sts (HDC1080+13)+1,r23
 1426 0582 8093 0000 		sts (HDC1080+13)+2,r24
 1427 0586 9093 0000 		sts (HDC1080+13)+3,r25
 1428               	.LM211:
 1429 058a 7093 0000 		sts (HDC1080+17)+1,r23
 1430 058e 6093 0000 		sts HDC1080+17,r22
 1431 0592 0895      		ret
 1432               	.L71:
 1433               	.LM212:
 1434 0594 8093 0000 		sts HDC1080+21,r24
 1435               	.LM213:
 1436 0598 1092 0000 		sts HDC1080+20,__zero_reg__
 1437 059c 0895      		ret
 1438               	.LFE24:
 1440               	.global	Sensors_HDC1080_Address_Get
 1442               	Sensors_HDC1080_Address_Get:
 1443               	.LFB25:
 1444               	.LM214:
 1445               	/* prologue: function */
 1446               	/* frame size = 0 */
 1447               	.LM215:
 1448 059e 8091 0000 		lds r24,HDC1080+4
 1449               	/* epilogue start */
 1450 05a2 0895      		ret
 1451               	.LFE25:
 1453               	.global	Sensors_HDC1080_Status_Get
 1455               	Sensors_HDC1080_Status_Get:
 1456               	.LFB26:
 1457               	.LM216:
 1458               	/* prologue: function */
 1459               	/* frame size = 0 */
 1460               	.LM217:
 1461 05a4 8091 0000 		lds r24,HDC1080
 1462               	/* epilogue start */
 1463 05a8 0895      		ret
 1464               	.LFE26:
 1466               	.global	Sensors_HDC1080_Error_Get
 1468               	Sensors_HDC1080_Error_Get:
 1469               	.LFB27:
 1470               	.LM218:
 1471               	/* prologue: function */
 1472               	/* frame size = 0 */
 1473               	.LM219:
 1474 05aa 8091 0000 		lds r24,HDC1080+20
 1475               	/* epilogue start */
 1476 05ae 0895      		ret
 1477               	.LFE27:
 1479               	.global	Sensors_HDC1080_Sticky_Error_Get
 1481               	Sensors_HDC1080_Sticky_Error_Get:
 1482               	.LFB28:
 1483               	.LM220:
 1484               	/* prologue: function */
 1485               	/* frame size = 0 */
 1486               	.LM221:
 1487 05b0 8091 0000 		lds r24,HDC1080+21
 1488               	/* epilogue start */
 1489 05b4 0895      		ret
 1490               	.LFE28:
 1492               	.global	Sensors_HDC1080_Temp_Get
 1494               	Sensors_HDC1080_Temp_Get:
 1495               	.LFB29:
 1496               	.LM222:
 1497               	/* prologue: function */
 1498               	/* frame size = 0 */
 1499               	.LM223:
 1500 05b6 8091 0000 		lds r24,HDC1080+11
 1501 05ba 9091 0000 		lds r25,HDC1080+12
 1502               	/* epilogue start */
 1503 05be 0895      		ret
 1504               	.LFE29:
 1506               	.global	Sensors_HDC1080_RH_Get
 1508               	Sensors_HDC1080_RH_Get:
 1509               	.LFB30:
 1510               	.LM224:
 1511               	/* prologue: function */
 1512               	/* frame size = 0 */
 1513               	.LM225:
 1514 05c0 8091 0000 		lds r24,HDC1080+17
 1515 05c4 9091 0000 		lds r25,HDC1080+18
 1516               	/* epilogue start */
 1517 05c8 0895      		ret
 1518               	.LFE30:
 1520               	.global	Sensors_NTC_Temp_Get
 1522               	Sensors_NTC_Temp_Get:
 1523               	.LFB31:
 1524               	.LM226:
 1525               	/* prologue: function */
 1526               	/* frame size = 0 */
 1527               	.LM227:
 1528 05ca 8091 0000 		lds r24,NTC+4
 1529 05ce 9091 0000 		lds r25,NTC+5
 1530               	/* epilogue start */
 1531 05d2 0895      		ret
 1532               	.LFE31:
 1534               		.comm HDC1080,22,1
 1535               		.comm NTC,8,1
 1760               	.Letext0:
DEFINED SYMBOLS
                            *ABS*:00000000 sensors.c
C:\Users\WALTON\AppData\Local\Temp/ccJK0Tbo.s:2      *ABS*:0000003f __SREG__
C:\Users\WALTON\AppData\Local\Temp/ccJK0Tbo.s:3      *ABS*:0000003e __SP_H__
C:\Users\WALTON\AppData\Local\Temp/ccJK0Tbo.s:4      *ABS*:0000003d __SP_L__
C:\Users\WALTON\AppData\Local\Temp/ccJK0Tbo.s:5      *ABS*:00000034 __CCP__
C:\Users\WALTON\AppData\Local\Temp/ccJK0Tbo.s:6      *ABS*:00000000 __tmp_reg__
C:\Users\WALTON\AppData\Local\Temp/ccJK0Tbo.s:7      *ABS*:00000001 __zero_reg__
C:\Users\WALTON\AppData\Local\Temp/ccJK0Tbo.s:18     .text:00000000 Sensors_HDC1080_Struct_Init
                            *COM*:00000016 HDC1080
                            *COM*:00000008 NTC
C:\Users\WALTON\AppData\Local\Temp/ccJK0Tbo.s:69     .text:0000006e Sensors_Init
C:\Users\WALTON\AppData\Local\Temp/ccJK0Tbo.s:95     .text:00000080 Sensors_Power_Enable
C:\Users\WALTON\AppData\Local\Temp/ccJK0Tbo.s:109    .text:00000084 Sensors_Power_Disable
C:\Users\WALTON\AppData\Local\Temp/ccJK0Tbo.s:123    .text:00000088 Sensors_I2C_SCL_State_Set
C:\Users\WALTON\AppData\Local\Temp/ccJK0Tbo.s:151    .text:000000a0 Sensors_I2C_SDA_State_Set
C:\Users\WALTON\AppData\Local\Temp/ccJK0Tbo.s:179    .text:000000b8 Sensors_I2C_SDA_State_Get
C:\Users\WALTON\AppData\Local\Temp/ccJK0Tbo.s:224    .text:000000d6 Sensors_I2C_Bus_Idle
C:\Users\WALTON\AppData\Local\Temp/ccJK0Tbo.s:246    .text:000000ea Sensors_HDC1080_I2C_Start
C:\Users\WALTON\AppData\Local\Temp/ccJK0Tbo.s:349    .text:00000128 Sensors_HDC1080_I2C_Stop
C:\Users\WALTON\AppData\Local\Temp/ccJK0Tbo.s:460    .text:0000016c Sensors_HDC1080_I2C_Forced_Stop
C:\Users\WALTON\AppData\Local\Temp/ccJK0Tbo.s:566    .text:000001b0 Sensors_HDC1080_I2C_Send
C:\Users\WALTON\AppData\Local\Temp/ccJK0Tbo.s:691    .text:00000204 Sensors_HDC1080_I2C_Receive
C:\Users\WALTON\AppData\Local\Temp/ccJK0Tbo.s:816    .text:0000025e Sensors_HDC1080_I2C_Check_Ack
C:\Users\WALTON\AppData\Local\Temp/ccJK0Tbo.s:928    .text:000002aa Sensors_HDC1080_I2C_Send_Ack
C:\Users\WALTON\AppData\Local\Temp/ccJK0Tbo.s:1025   .text:000002e0 Sensors_HDC1080_Slave_Addr_Send
C:\Users\WALTON\AppData\Local\Temp/ccJK0Tbo.s:1079   .text:0000031a Sensors_HDC1080_Config
C:\Users\WALTON\AppData\Local\Temp/ccJK0Tbo.s:1144   .text:0000037a Sensors_Sample_Temp_RH
C:\Users\WALTON\AppData\Local\Temp/ccJK0Tbo.s:1380   .text:00000512 Sensors_HDC1080_Calculate
C:\Users\WALTON\AppData\Local\Temp/ccJK0Tbo.s:1442   .text:0000059e Sensors_HDC1080_Address_Get
C:\Users\WALTON\AppData\Local\Temp/ccJK0Tbo.s:1455   .text:000005a4 Sensors_HDC1080_Status_Get
C:\Users\WALTON\AppData\Local\Temp/ccJK0Tbo.s:1468   .text:000005aa Sensors_HDC1080_Error_Get
C:\Users\WALTON\AppData\Local\Temp/ccJK0Tbo.s:1481   .text:000005b0 Sensors_HDC1080_Sticky_Error_Get
C:\Users\WALTON\AppData\Local\Temp/ccJK0Tbo.s:1494   .text:000005b6 Sensors_HDC1080_Temp_Get
C:\Users\WALTON\AppData\Local\Temp/ccJK0Tbo.s:1508   .text:000005c0 Sensors_HDC1080_RH_Get
C:\Users\WALTON\AppData\Local\Temp/ccJK0Tbo.s:1522   .text:000005ca Sensors_NTC_Temp_Get

UNDEFINED SYMBOLS
__mulsi3
__do_clear_bss
