   1               		.file	"tasks.c"
   2               	__SREG__ = 0x3f
   3               	__SP_H__ = 0x3e
   4               	__SP_L__ = 0x3d
   5               	__CCP__  = 0x34
   6               	__tmp_reg__ = 0
   7               	__zero_reg__ = 1
  15               	.Ltext0:
  16               	.global	Tasks_Disable_Peripherals
  18               	Tasks_Disable_Peripherals:
  19               	.LFB6:
  20               	.LM1:
  21               	/* prologue: function */
  22               	/* frame size = 0 */
  23               	/* epilogue start */
  24               	.LM2:
  25 0000 0895      		ret
  26               	.LFE6:
  28               	.global	Task_Sensor
  30               	Task_Sensor:
  31               	.LFB10:
  32               	.LM3:
  33               	/* prologue: function */
  34               	/* frame size = 0 */
  35               	.LM4:
  36 0002 0E94 0000 		call Sensors_Init
  37               	.L4:
  38               	.LM5:
  39 0006 0E94 0000 		call Sensors_Sample
  40               	.LM6:
  41 000a 8EE1      		ldi r24,lo8(30)
  42 000c 90E0      		ldi r25,hi8(30)
  43 000e 0E94 0000 		call Kernel_Task_Sleep
  44 0012 00C0      		rjmp .L4
  45               	.LFE10:
  47               	.global	Task_Radio
  49               	Task_Radio:
  50               	.LFB9:
  51               	.LM7:
  52 0014 0F93      		push r16
  53 0016 1F93      		push r17
  54 0018 DF93      		push r29
  55 001a CF93      		push r28
  56 001c CDB7      		in r28,__SP_L__
  57 001e DEB7      		in r29,__SP_H__
  58 0020 A097      		sbiw r28,32
  59 0022 0FB6      		in __tmp_reg__,__SREG__
  60 0024 F894      		cli
  61 0026 DEBF      		out __SP_H__,r29
  62 0028 0FBE      		out __SREG__,__tmp_reg__
  63 002a CDBF      		out __SP_L__,r28
  64               	/* prologue: function */
  65               	/* frame size = 32 */
  66               	.LM8:
  67 002c 0E94 0000 		call nRF24L01P_Init
  68               	.LM9:
  69 0030 8E01      		movw r16,r28
  70 0032 0F5F      		subi r16,lo8(-(1))
  71 0034 1F4F      		sbci r17,hi8(-(1))
  72               	.L7:
  73               	.LM10:
  74 0036 0E94 0000 		call Peripherals_Vin_RawADC_Get
  75               	.LM11:
  76 003a 9983      		std Y+1,r25
  77               	.LM12:
  78 003c 8A83      		std Y+2,r24
  79               	.LM13:
  80 003e 0E94 0000 		call Peripherals_Analog_Temp_Get
  81               	.LM14:
  82 0042 292F      		mov r18,r25
  83 0044 3327      		clr r19
  84 0046 27FD      		sbrc r18,7
  85 0048 3A95      		dec r19
  86               	.LVL0:
  87 004a 2B83      		std Y+3,r18
  88               	.LM15:
  89 004c 8C83      		std Y+4,r24
  90               	.LM16:
  91 004e 0E94 0000 		call Peripherals_Digital_Temp_Get
  92               	.LVL1:
  93               	.LM17:
  94 0052 292F      		mov r18,r25
  95 0054 3327      		clr r19
  96 0056 27FD      		sbrc r18,7
  97 0058 3A95      		dec r19
  98               	.LVL2:
  99 005a 2D83      		std Y+5,r18
 100               	.LM18:
 101 005c 8E83      		std Y+6,r24
 102               	.LM19:
 103 005e 0E94 0000 		call Peripherals_Digital_RH_Get
 104               	.LVL3:
 105               	.LM20:
 106 0062 9F83      		std Y+7,r25
 107               	.LM21:
 108 0064 8887      		std Y+8,r24
 109               	.LM22:
 110 0066 8981      		ldd r24,Y+1
 111 0068 0E94 0000 		call Debug_Tx_Byte
 112               	.LM23:
 113 006c 8A81      		ldd r24,Y+2
 114 006e 0E94 0000 		call Debug_Tx_Byte
 115               	.LM24:
 116 0072 8B81      		ldd r24,Y+3
 117 0074 0E94 0000 		call Debug_Tx_Byte
 118               	.LM25:
 119 0078 8C81      		ldd r24,Y+4
 120 007a 0E94 0000 		call Debug_Tx_Byte
 121               	.LM26:
 122 007e 8D81      		ldd r24,Y+5
 123 0080 0E94 0000 		call Debug_Tx_Byte
 124               	.LM27:
 125 0084 8E81      		ldd r24,Y+6
 126 0086 0E94 0000 		call Debug_Tx_Byte
 127               	.LM28:
 128 008a 8F81      		ldd r24,Y+7
 129 008c 0E94 0000 		call Debug_Tx_Byte
 130               	.LM29:
 131 0090 8885      		ldd r24,Y+8
 132 0092 0E94 0000 		call Debug_Tx_Byte
 133               	.LM30:
 134 0096 0E94 0000 		call Sensors_HDC1080_Address_Get
 135 009a 0E94 0000 		call Debug_Tx_Byte
 136               	.LM31:
 137 009e 0E94 0000 		call Sensors_HDC1080_Status_Get
 138 00a2 0E94 0000 		call Debug_Tx_Byte
 139               	.LM32:
 140 00a6 0E94 0000 		call Sensors_HDC1080_Error_Get
 141 00aa 0E94 0000 		call Debug_Tx_Byte
 142               	.LM33:
 143 00ae 0E94 0000 		call Sensors_HDC1080_Sticky_Error_Get
 144 00b2 0E94 0000 		call Debug_Tx_Byte
 145               	.LM34:
 146 00b6 0E94 0000 		call nRF24L01P_WakeUp
 147               	.LM35:
 148 00ba C801      		movw r24,r16
 149 00bc 68E0      		ldi r22,lo8(8)
 150 00be 0E94 0000 		call nRF24L01P_Transmit_Basic
 151               	.LM36:
 152 00c2 0E94 0000 		call nRF24L01P_Deep_Sleep
 153               	.LM37:
 154 00c6 8FE0      		ldi r24,lo8(15)
 155 00c8 90E0      		ldi r25,hi8(15)
 156 00ca 0E94 0000 		call Kernel_Task_Sleep
 157 00ce 00C0      		rjmp .L7
 158               	.LFE9:
 160               	.global	Task_Vin_Sense
 162               	Task_Vin_Sense:
 163               	.LFB8:
 164               	.LM38:
 165               	/* prologue: function */
 166               	/* frame size = 0 */
 167               	.LM39:
 168 00d0 529A      		sbi 42-32,2
 169               	.LM40:
 170 00d2 5A98      		cbi 43-32,2
 171               	.L10:
 172               	.LM41:
 173 00d4 0E94 0000 		call Peripherals_Vin_Sense_Sample
 174               	.LM42:
 175 00d8 8AE0      		ldi r24,lo8(10)
 176 00da 90E0      		ldi r25,hi8(10)
 177 00dc 0E94 0000 		call Kernel_Task_Sleep
 178 00e0 00C0      		rjmp .L10
 179               	.LFE8:
 181               	.global	Task_RGB_LED
 183               	Task_RGB_LED:
 184               	.LFB7:
 185               	.LM43:
 186 00e2 1F93      		push r17
 187               	/* prologue: function */
 188               	/* frame size = 0 */
 189               	.LM44:
 190 00e4 0E94 0000 		call RGB_Init
 191               	.LBB24:
 192               	.LBB25:
 193               	.LBB26:
 194               	.LBB27:
 195               	.LM45:
 196 00e8 12E4      		ldi r17,lo8(66)
 197               	.L13:
 198               	.LBE27:
 199               	.LBE26:
 200               	.LBE25:
 201               	.LBE24:
 202               	.LM46:
 203 00ea 81E0      		ldi r24,lo8(1)
 204 00ec 60E0      		ldi r22,lo8(0)
 205 00ee 40E0      		ldi r20,lo8(0)
 206 00f0 0E94 0000 		call RGB_Set_State
 207               	.LBB31:
 208               	.LBB30:
 209               	.LBB29:
 210               	.LBB28:
 211               	.LM47:
 212 00f4 812F      		mov r24,r17
 213               	.LVL4:
 214               	/* #APP */
 215               	 ;  83 "c:/winavr-20100110/lib/gcc/../../avr/include/util/delay_basic.h" 1
 216 00f6 8A95      		1: dec r24
 217 00f8 01F4      		brne 1b
 218               	 ;  0 "" 2
 219               	/* #NOAPP */
 220               	.LBE28:
 221               	.LBE29:
 222               	.LBE30:
 223               	.LBE31:
 224               	.LM48:
 225 00fa 80E0      		ldi r24,lo8(0)
 226               	.LVL5:
 227 00fc 60E0      		ldi r22,lo8(0)
 228 00fe 40E0      		ldi r20,lo8(0)
 229 0100 0E94 0000 		call RGB_Set_State
 230               	.LM49:
 231 0104 85E0      		ldi r24,lo8(5)
 232 0106 90E0      		ldi r25,hi8(5)
 233 0108 0E94 0000 		call Kernel_Task_Sleep
 234 010c 00C0      		rjmp .L13
 235               	.LFE7:
 293               	.Letext0:
DEFINED SYMBOLS
                            *ABS*:00000000 tasks.c
C:\Users\farid\AppData\Local\Temp/ccjduSEp.s:2      *ABS*:0000003f __SREG__
C:\Users\farid\AppData\Local\Temp/ccjduSEp.s:3      *ABS*:0000003e __SP_H__
C:\Users\farid\AppData\Local\Temp/ccjduSEp.s:4      *ABS*:0000003d __SP_L__
C:\Users\farid\AppData\Local\Temp/ccjduSEp.s:5      *ABS*:00000034 __CCP__
C:\Users\farid\AppData\Local\Temp/ccjduSEp.s:6      *ABS*:00000000 __tmp_reg__
C:\Users\farid\AppData\Local\Temp/ccjduSEp.s:7      *ABS*:00000001 __zero_reg__
C:\Users\farid\AppData\Local\Temp/ccjduSEp.s:18     .text:00000000 Tasks_Disable_Peripherals
C:\Users\farid\AppData\Local\Temp/ccjduSEp.s:30     .text:00000002 Task_Sensor
C:\Users\farid\AppData\Local\Temp/ccjduSEp.s:49     .text:00000014 Task_Radio
C:\Users\farid\AppData\Local\Temp/ccjduSEp.s:162    .text:000000d0 Task_Vin_Sense
C:\Users\farid\AppData\Local\Temp/ccjduSEp.s:183    .text:000000e2 Task_RGB_LED

UNDEFINED SYMBOLS
Sensors_Init
Sensors_Sample
Kernel_Task_Sleep
nRF24L01P_Init
Peripherals_Vin_RawADC_Get
Peripherals_Analog_Temp_Get
Peripherals_Digital_Temp_Get
Peripherals_Digital_RH_Get
Debug_Tx_Byte
Sensors_HDC1080_Address_Get
Sensors_HDC1080_Status_Get
Sensors_HDC1080_Error_Get
Sensors_HDC1080_Sticky_Error_Get
nRF24L01P_WakeUp
nRF24L01P_Transmit_Basic
nRF24L01P_Deep_Sleep
Peripherals_Vin_Sense_Sample
RGB_Init
RGB_Set_State
