   1               		.file	"tasks.c"
   2               	__SREG__ = 0x3f
   3               	__SP_H__ = 0x3e
   4               	__SP_L__ = 0x3d
   5               	__CCP__  = 0x34
   6               	__tmp_reg__ = 0
   7               	__zero_reg__ = 1
  15               	.Ltext0:
  16               	.global	Task_Disable_Peripherals
  18               	Task_Disable_Peripherals:
  19               	.LFB6:
  20               	.LM1:
  21               	/* prologue: function */
  22               	/* frame size = 0 */
  23               	/* epilogue start */
  24               	.LM2:
  25 0000 0895      		ret
  26               	.LFE6:
  28               	.global	Task_Sensor
  30               	Task_Sensor:
  31               	.LFB10:
  32               	.LM3:
  33               	/* prologue: function */
  34               	/* frame size = 0 */
  35               	.LM4:
  36 0002 0E94 0000 		call Sensors_Init
  37               	.LM5:
  38 0006 82E0      		ldi r24,lo8(2)
  39 0008 90E0      		ldi r25,hi8(2)
  40               	.L6:
  41 000a 0E94 0000 		call Kernel_Task_Sleep
  42               	.LM6:
  43 000e 0E94 0000 		call Sensors_Sample
  44               	.LM7:
  45 0012 88E7      		ldi r24,lo8(120)
  46 0014 90E0      		ldi r25,hi8(120)
  47 0016 00C0      		rjmp .L6
  48               	.LFE10:
  50               	.global	Task_Radio
  52               	Task_Radio:
  53               	.LFB9:
  54               	.LM8:
  55 0018 0F93      		push r16
  56 001a 1F93      		push r17
  57 001c DF93      		push r29
  58 001e CF93      		push r28
  59 0020 CDB7      		in r28,__SP_L__
  60 0022 DEB7      		in r29,__SP_H__
  61 0024 A097      		sbiw r28,32
  62 0026 0FB6      		in __tmp_reg__,__SREG__
  63 0028 F894      		cli
  64 002a DEBF      		out __SP_H__,r29
  65 002c 0FBE      		out __SREG__,__tmp_reg__
  66 002e CDBF      		out __SP_L__,r28
  67               	/* prologue: function */
  68               	/* frame size = 32 */
  69               	.LM9:
  70 0030 0E94 0000 		call nRF24L01P_Init
  71               	.LM10:
  72 0034 82E0      		ldi r24,lo8(2)
  73 0036 90E0      		ldi r25,hi8(2)
  74 0038 0E94 0000 		call Kernel_Task_Sleep
  75               	.LM11:
  76 003c 8E01      		movw r16,r28
  77 003e 0F5F      		subi r16,lo8(-(1))
  78 0040 1F4F      		sbci r17,hi8(-(1))
  79               	.L8:
  80               	.LM12:
  81 0042 0E94 0000 		call Peripherals_Vin_RawADC_Get
  82               	.LM13:
  83 0046 9983      		std Y+1,r25
  84               	.LM14:
  85 0048 8A83      		std Y+2,r24
  86               	.LM15:
  87 004a 0E94 0000 		call Peripherals_Analog_Temp_Get
  88               	.LM16:
  89 004e 292F      		mov r18,r25
  90 0050 3327      		clr r19
  91 0052 27FD      		sbrc r18,7
  92 0054 3A95      		dec r19
  93               	.LVL0:
  94 0056 2B83      		std Y+3,r18
  95               	.LM17:
  96 0058 8C83      		std Y+4,r24
  97               	.LM18:
  98 005a 0E94 0000 		call Peripherals_Digital_Temp_Get
  99               	.LVL1:
 100               	.LM19:
 101 005e 292F      		mov r18,r25
 102 0060 3327      		clr r19
 103 0062 27FD      		sbrc r18,7
 104 0064 3A95      		dec r19
 105               	.LVL2:
 106 0066 2D83      		std Y+5,r18
 107               	.LM20:
 108 0068 8E83      		std Y+6,r24
 109               	.LM21:
 110 006a 0E94 0000 		call Peripherals_Digital_RH_Get
 111               	.LVL3:
 112               	.LM22:
 113 006e 9F83      		std Y+7,r25
 114               	.LM23:
 115 0070 8887      		std Y+8,r24
 116               	.LM24:
 117 0072 8981      		ldd r24,Y+1
 118 0074 0E94 0000 		call Debug_Tx_Byte
 119               	.LM25:
 120 0078 8A81      		ldd r24,Y+2
 121 007a 0E94 0000 		call Debug_Tx_Byte
 122               	.LM26:
 123 007e 8B81      		ldd r24,Y+3
 124 0080 0E94 0000 		call Debug_Tx_Byte
 125               	.LM27:
 126 0084 8C81      		ldd r24,Y+4
 127 0086 0E94 0000 		call Debug_Tx_Byte
 128               	.LM28:
 129 008a 8D81      		ldd r24,Y+5
 130 008c 0E94 0000 		call Debug_Tx_Byte
 131               	.LM29:
 132 0090 8E81      		ldd r24,Y+6
 133 0092 0E94 0000 		call Debug_Tx_Byte
 134               	.LM30:
 135 0096 8F81      		ldd r24,Y+7
 136 0098 0E94 0000 		call Debug_Tx_Byte
 137               	.LM31:
 138 009c 8885      		ldd r24,Y+8
 139 009e 0E94 0000 		call Debug_Tx_Byte
 140               	.LM32:
 141 00a2 0E94 0000 		call nRF24L01P_WakeUp
 142               	.LM33:
 143 00a6 C801      		movw r24,r16
 144 00a8 68E0      		ldi r22,lo8(8)
 145 00aa 0E94 0000 		call nRF24L01P_Transmit_Basic
 146               	.LM34:
 147 00ae 0E94 0000 		call nRF24L01P_Deep_Sleep
 148               	.LM35:
 149 00b2 8CE3      		ldi r24,lo8(60)
 150 00b4 90E0      		ldi r25,hi8(60)
 151 00b6 0E94 0000 		call Kernel_Task_Sleep
 152 00ba 00C0      		rjmp .L8
 153               	.LFE9:
 155               	.global	Task_Vin_Sense
 157               	Task_Vin_Sense:
 158               	.LFB8:
 159               	.LM36:
 160               	/* prologue: function */
 161               	/* frame size = 0 */
 162               	.LM37:
 163 00bc 529A      		sbi 42-32,2
 164               	.LM38:
 165 00be 5A98      		cbi 43-32,2
 166               	.LM39:
 167 00c0 82E0      		ldi r24,lo8(2)
 168 00c2 90E0      		ldi r25,hi8(2)
 169               	.L13:
 170 00c4 0E94 0000 		call Kernel_Task_Sleep
 171               	.LM40:
 172 00c8 0E94 0000 		call Peripherals_Vin_Sense_Sample
 173               	.LM41:
 174 00cc 8EE1      		ldi r24,lo8(30)
 175 00ce 90E0      		ldi r25,hi8(30)
 176 00d0 00C0      		rjmp .L13
 177               	.LFE8:
 179               	.global	Task_RGB_LED
 181               	Task_RGB_LED:
 182               	.LFB7:
 183               	.LM42:
 184 00d2 1F93      		push r17
 185               	/* prologue: function */
 186               	/* frame size = 0 */
 187               	.LM43:
 188 00d4 0E94 0000 		call RGB_Init
 189               	.LM44:
 190 00d8 82E0      		ldi r24,lo8(2)
 191 00da 90E0      		ldi r25,hi8(2)
 192 00dc 0E94 0000 		call Kernel_Task_Sleep
 193               	.LBB24:
 194               	.LBB25:
 195               	.LBB26:
 196               	.LBB27:
 197               	.LM45:
 198 00e0 15E8      		ldi r17,lo8(-123)
 199               	.L15:
 200               	.LBE27:
 201               	.LBE26:
 202               	.LBE25:
 203               	.LBE24:
 204               	.LM46:
 205 00e2 81E0      		ldi r24,lo8(1)
 206 00e4 60E0      		ldi r22,lo8(0)
 207 00e6 40E0      		ldi r20,lo8(0)
 208 00e8 0E94 0000 		call RGB_Set_State
 209               	.LBB31:
 210               	.LBB30:
 211               	.LBB29:
 212               	.LBB28:
 213               	.LM47:
 214 00ec 812F      		mov r24,r17
 215               	.LVL4:
 216               	/* #APP */
 217               	 ;  83 "c:/winavr-20100110/lib/gcc/../../avr/include/util/delay_basic.h" 1
 218 00ee 8A95      		1: dec r24
 219 00f0 01F4      		brne 1b
 220               	 ;  0 "" 2
 221               	/* #NOAPP */
 222               	.LBE28:
 223               	.LBE29:
 224               	.LBE30:
 225               	.LBE31:
 226               	.LM48:
 227 00f2 80E0      		ldi r24,lo8(0)
 228               	.LVL5:
 229 00f4 60E0      		ldi r22,lo8(0)
 230 00f6 40E0      		ldi r20,lo8(0)
 231 00f8 0E94 0000 		call RGB_Set_State
 232               	.LM49:
 233 00fc 85E0      		ldi r24,lo8(5)
 234 00fe 90E0      		ldi r25,hi8(5)
 235 0100 0E94 0000 		call Kernel_Task_Sleep
 236 0104 00C0      		rjmp .L15
 237               	.LFE7:
 295               	.Letext0:
DEFINED SYMBOLS
                            *ABS*:00000000 tasks.c
C:\Users\WALTON\AppData\Local\Temp/ccNCVq30.s:2      *ABS*:0000003f __SREG__
C:\Users\WALTON\AppData\Local\Temp/ccNCVq30.s:3      *ABS*:0000003e __SP_H__
C:\Users\WALTON\AppData\Local\Temp/ccNCVq30.s:4      *ABS*:0000003d __SP_L__
C:\Users\WALTON\AppData\Local\Temp/ccNCVq30.s:5      *ABS*:00000034 __CCP__
C:\Users\WALTON\AppData\Local\Temp/ccNCVq30.s:6      *ABS*:00000000 __tmp_reg__
C:\Users\WALTON\AppData\Local\Temp/ccNCVq30.s:7      *ABS*:00000001 __zero_reg__
C:\Users\WALTON\AppData\Local\Temp/ccNCVq30.s:18     .text:00000000 Task_Disable_Peripherals
C:\Users\WALTON\AppData\Local\Temp/ccNCVq30.s:30     .text:00000002 Task_Sensor
C:\Users\WALTON\AppData\Local\Temp/ccNCVq30.s:52     .text:00000018 Task_Radio
C:\Users\WALTON\AppData\Local\Temp/ccNCVq30.s:157    .text:000000bc Task_Vin_Sense
C:\Users\WALTON\AppData\Local\Temp/ccNCVq30.s:181    .text:000000d2 Task_RGB_LED

UNDEFINED SYMBOLS
Sensors_Init
Kernel_Task_Sleep
Sensors_Sample
nRF24L01P_Init
Peripherals_Vin_RawADC_Get
Peripherals_Analog_Temp_Get
Peripherals_Digital_Temp_Get
Peripherals_Digital_RH_Get
Debug_Tx_Byte
nRF24L01P_WakeUp
nRF24L01P_Transmit_Basic
nRF24L01P_Deep_Sleep
Peripherals_Vin_Sense_Sample
RGB_Init
RGB_Set_State
